ARM GAS  /tmp/ccrTWjYe.s 			page 1


   1              		.cpu cortex-m4
   2              		.eabi_attribute 27, 1
   3              		.eabi_attribute 28, 1
   4              		.eabi_attribute 20, 1
   5              		.eabi_attribute 21, 1
   6              		.eabi_attribute 23, 3
   7              		.eabi_attribute 24, 1
   8              		.eabi_attribute 25, 1
   9              		.eabi_attribute 26, 1
  10              		.eabi_attribute 30, 1
  11              		.eabi_attribute 34, 1
  12              		.eabi_attribute 18, 4
  13              		.file	"stm32f4xx_ll_usb.c"
  14              		.text
  15              	.Ltext0:
  16              		.cfi_sections	.debug_frame
  17              		.section	.text.USB_CoreReset,"ax",%progbits
  18              		.align	1
  19              		.arch armv7e-m
  20              		.syntax unified
  21              		.thumb
  22              		.thumb_func
  23              		.fpu fpv4-sp-d16
  25              	USB_CoreReset:
  26              	.LVL0:
  27              	.LFB163:
  28              		.file 1 "Drivers/STM32F4xx_HAL_Driver/Src/stm32f4xx_ll_usb.c"
   1:Drivers/STM32F4xx_HAL_Driver/Src/stm32f4xx_ll_usb.c **** /**
   2:Drivers/STM32F4xx_HAL_Driver/Src/stm32f4xx_ll_usb.c ****   ******************************************************************************
   3:Drivers/STM32F4xx_HAL_Driver/Src/stm32f4xx_ll_usb.c ****   * @file    stm32f4xx_ll_usb.c
   4:Drivers/STM32F4xx_HAL_Driver/Src/stm32f4xx_ll_usb.c ****   * @author  MCD Application Team
   5:Drivers/STM32F4xx_HAL_Driver/Src/stm32f4xx_ll_usb.c ****   * @brief   USB Low Layer HAL module driver.
   6:Drivers/STM32F4xx_HAL_Driver/Src/stm32f4xx_ll_usb.c ****   *
   7:Drivers/STM32F4xx_HAL_Driver/Src/stm32f4xx_ll_usb.c ****   *          This file provides firmware functions to manage the following
   8:Drivers/STM32F4xx_HAL_Driver/Src/stm32f4xx_ll_usb.c ****   *          functionalities of the USB Peripheral Controller:
   9:Drivers/STM32F4xx_HAL_Driver/Src/stm32f4xx_ll_usb.c ****   *           + Initialization/de-initialization functions
  10:Drivers/STM32F4xx_HAL_Driver/Src/stm32f4xx_ll_usb.c ****   *           + I/O operation functions
  11:Drivers/STM32F4xx_HAL_Driver/Src/stm32f4xx_ll_usb.c ****   *           + Peripheral Control functions
  12:Drivers/STM32F4xx_HAL_Driver/Src/stm32f4xx_ll_usb.c ****   *           + Peripheral State functions
  13:Drivers/STM32F4xx_HAL_Driver/Src/stm32f4xx_ll_usb.c ****   *
  14:Drivers/STM32F4xx_HAL_Driver/Src/stm32f4xx_ll_usb.c ****   @verbatim
  15:Drivers/STM32F4xx_HAL_Driver/Src/stm32f4xx_ll_usb.c ****   ==============================================================================
  16:Drivers/STM32F4xx_HAL_Driver/Src/stm32f4xx_ll_usb.c ****                     ##### How to use this driver #####
  17:Drivers/STM32F4xx_HAL_Driver/Src/stm32f4xx_ll_usb.c ****   ==============================================================================
  18:Drivers/STM32F4xx_HAL_Driver/Src/stm32f4xx_ll_usb.c ****     [..]
  19:Drivers/STM32F4xx_HAL_Driver/Src/stm32f4xx_ll_usb.c ****       (#) Fill parameters of Init structure in USB_OTG_CfgTypeDef structure.
  20:Drivers/STM32F4xx_HAL_Driver/Src/stm32f4xx_ll_usb.c **** 
  21:Drivers/STM32F4xx_HAL_Driver/Src/stm32f4xx_ll_usb.c ****       (#) Call USB_CoreInit() API to initialize the USB Core peripheral.
  22:Drivers/STM32F4xx_HAL_Driver/Src/stm32f4xx_ll_usb.c **** 
  23:Drivers/STM32F4xx_HAL_Driver/Src/stm32f4xx_ll_usb.c ****       (#) The upper HAL HCD/PCD driver will call the right routines for its internal processes.
  24:Drivers/STM32F4xx_HAL_Driver/Src/stm32f4xx_ll_usb.c **** 
  25:Drivers/STM32F4xx_HAL_Driver/Src/stm32f4xx_ll_usb.c ****   @endverbatim
  26:Drivers/STM32F4xx_HAL_Driver/Src/stm32f4xx_ll_usb.c ****   ******************************************************************************
  27:Drivers/STM32F4xx_HAL_Driver/Src/stm32f4xx_ll_usb.c ****   * @attention
  28:Drivers/STM32F4xx_HAL_Driver/Src/stm32f4xx_ll_usb.c ****   *
  29:Drivers/STM32F4xx_HAL_Driver/Src/stm32f4xx_ll_usb.c ****   * <h2><center>&copy; Copyright (c) 2016 STMicroelectronics.
  30:Drivers/STM32F4xx_HAL_Driver/Src/stm32f4xx_ll_usb.c ****   * All rights reserved.</center></h2>
ARM GAS  /tmp/ccrTWjYe.s 			page 2


  31:Drivers/STM32F4xx_HAL_Driver/Src/stm32f4xx_ll_usb.c ****   *
  32:Drivers/STM32F4xx_HAL_Driver/Src/stm32f4xx_ll_usb.c ****   * This software component is licensed by ST under BSD 3-Clause license,
  33:Drivers/STM32F4xx_HAL_Driver/Src/stm32f4xx_ll_usb.c ****   * the "License"; You may not use this file except in compliance with the
  34:Drivers/STM32F4xx_HAL_Driver/Src/stm32f4xx_ll_usb.c ****   * License. You may obtain a copy of the License at:
  35:Drivers/STM32F4xx_HAL_Driver/Src/stm32f4xx_ll_usb.c ****   *                        opensource.org/licenses/BSD-3-Clause
  36:Drivers/STM32F4xx_HAL_Driver/Src/stm32f4xx_ll_usb.c ****   *
  37:Drivers/STM32F4xx_HAL_Driver/Src/stm32f4xx_ll_usb.c ****   ******************************************************************************
  38:Drivers/STM32F4xx_HAL_Driver/Src/stm32f4xx_ll_usb.c ****   */
  39:Drivers/STM32F4xx_HAL_Driver/Src/stm32f4xx_ll_usb.c **** 
  40:Drivers/STM32F4xx_HAL_Driver/Src/stm32f4xx_ll_usb.c **** /* Includes ------------------------------------------------------------------*/
  41:Drivers/STM32F4xx_HAL_Driver/Src/stm32f4xx_ll_usb.c **** #include "stm32f4xx_hal.h"
  42:Drivers/STM32F4xx_HAL_Driver/Src/stm32f4xx_ll_usb.c **** 
  43:Drivers/STM32F4xx_HAL_Driver/Src/stm32f4xx_ll_usb.c **** /** @addtogroup STM32F4xx_LL_USB_DRIVER
  44:Drivers/STM32F4xx_HAL_Driver/Src/stm32f4xx_ll_usb.c ****   * @{
  45:Drivers/STM32F4xx_HAL_Driver/Src/stm32f4xx_ll_usb.c ****   */
  46:Drivers/STM32F4xx_HAL_Driver/Src/stm32f4xx_ll_usb.c **** 
  47:Drivers/STM32F4xx_HAL_Driver/Src/stm32f4xx_ll_usb.c **** #if defined (HAL_PCD_MODULE_ENABLED) || defined (HAL_HCD_MODULE_ENABLED)
  48:Drivers/STM32F4xx_HAL_Driver/Src/stm32f4xx_ll_usb.c **** #if defined (USB_OTG_FS) || defined (USB_OTG_HS)
  49:Drivers/STM32F4xx_HAL_Driver/Src/stm32f4xx_ll_usb.c **** /* Private typedef -----------------------------------------------------------*/
  50:Drivers/STM32F4xx_HAL_Driver/Src/stm32f4xx_ll_usb.c **** /* Private define ------------------------------------------------------------*/
  51:Drivers/STM32F4xx_HAL_Driver/Src/stm32f4xx_ll_usb.c **** /* Private macro -------------------------------------------------------------*/
  52:Drivers/STM32F4xx_HAL_Driver/Src/stm32f4xx_ll_usb.c **** /* Private variables ---------------------------------------------------------*/
  53:Drivers/STM32F4xx_HAL_Driver/Src/stm32f4xx_ll_usb.c **** /* Private function prototypes -----------------------------------------------*/
  54:Drivers/STM32F4xx_HAL_Driver/Src/stm32f4xx_ll_usb.c **** /* Private functions ---------------------------------------------------------*/
  55:Drivers/STM32F4xx_HAL_Driver/Src/stm32f4xx_ll_usb.c **** #if defined (USB_OTG_FS) || defined (USB_OTG_HS)
  56:Drivers/STM32F4xx_HAL_Driver/Src/stm32f4xx_ll_usb.c **** static HAL_StatusTypeDef USB_CoreReset(USB_OTG_GlobalTypeDef *USBx);
  57:Drivers/STM32F4xx_HAL_Driver/Src/stm32f4xx_ll_usb.c **** 
  58:Drivers/STM32F4xx_HAL_Driver/Src/stm32f4xx_ll_usb.c **** /* Exported functions --------------------------------------------------------*/
  59:Drivers/STM32F4xx_HAL_Driver/Src/stm32f4xx_ll_usb.c **** /** @defgroup USB_LL_Exported_Functions USB Low Layer Exported Functions
  60:Drivers/STM32F4xx_HAL_Driver/Src/stm32f4xx_ll_usb.c ****   * @{
  61:Drivers/STM32F4xx_HAL_Driver/Src/stm32f4xx_ll_usb.c ****   */
  62:Drivers/STM32F4xx_HAL_Driver/Src/stm32f4xx_ll_usb.c **** 
  63:Drivers/STM32F4xx_HAL_Driver/Src/stm32f4xx_ll_usb.c **** /** @defgroup USB_LL_Exported_Functions_Group1 Initialization/de-initialization functions
  64:Drivers/STM32F4xx_HAL_Driver/Src/stm32f4xx_ll_usb.c ****  *  @brief    Initialization and Configuration functions
  65:Drivers/STM32F4xx_HAL_Driver/Src/stm32f4xx_ll_usb.c ****  *
  66:Drivers/STM32F4xx_HAL_Driver/Src/stm32f4xx_ll_usb.c **** @verbatim
  67:Drivers/STM32F4xx_HAL_Driver/Src/stm32f4xx_ll_usb.c ****  ===============================================================================
  68:Drivers/STM32F4xx_HAL_Driver/Src/stm32f4xx_ll_usb.c ****                       ##### Initialization/de-initialization functions #####
  69:Drivers/STM32F4xx_HAL_Driver/Src/stm32f4xx_ll_usb.c ****  ===============================================================================
  70:Drivers/STM32F4xx_HAL_Driver/Src/stm32f4xx_ll_usb.c **** 
  71:Drivers/STM32F4xx_HAL_Driver/Src/stm32f4xx_ll_usb.c **** @endverbatim
  72:Drivers/STM32F4xx_HAL_Driver/Src/stm32f4xx_ll_usb.c ****   * @{
  73:Drivers/STM32F4xx_HAL_Driver/Src/stm32f4xx_ll_usb.c ****   */
  74:Drivers/STM32F4xx_HAL_Driver/Src/stm32f4xx_ll_usb.c **** 
  75:Drivers/STM32F4xx_HAL_Driver/Src/stm32f4xx_ll_usb.c **** /**
  76:Drivers/STM32F4xx_HAL_Driver/Src/stm32f4xx_ll_usb.c ****   * @brief  Initializes the USB Core
  77:Drivers/STM32F4xx_HAL_Driver/Src/stm32f4xx_ll_usb.c ****   * @param  USBx USB Instance
  78:Drivers/STM32F4xx_HAL_Driver/Src/stm32f4xx_ll_usb.c ****   * @param  cfg pointer to a USB_OTG_CfgTypeDef structure that contains
  79:Drivers/STM32F4xx_HAL_Driver/Src/stm32f4xx_ll_usb.c ****   *         the configuration information for the specified USBx peripheral.
  80:Drivers/STM32F4xx_HAL_Driver/Src/stm32f4xx_ll_usb.c ****   * @retval HAL status
  81:Drivers/STM32F4xx_HAL_Driver/Src/stm32f4xx_ll_usb.c ****   */
  82:Drivers/STM32F4xx_HAL_Driver/Src/stm32f4xx_ll_usb.c **** HAL_StatusTypeDef USB_CoreInit(USB_OTG_GlobalTypeDef *USBx, USB_OTG_CfgTypeDef cfg)
  83:Drivers/STM32F4xx_HAL_Driver/Src/stm32f4xx_ll_usb.c **** {
  84:Drivers/STM32F4xx_HAL_Driver/Src/stm32f4xx_ll_usb.c ****   HAL_StatusTypeDef ret;
  85:Drivers/STM32F4xx_HAL_Driver/Src/stm32f4xx_ll_usb.c **** 
  86:Drivers/STM32F4xx_HAL_Driver/Src/stm32f4xx_ll_usb.c ****   if (cfg.phy_itface == USB_OTG_ULPI_PHY)
  87:Drivers/STM32F4xx_HAL_Driver/Src/stm32f4xx_ll_usb.c ****   {
ARM GAS  /tmp/ccrTWjYe.s 			page 3


  88:Drivers/STM32F4xx_HAL_Driver/Src/stm32f4xx_ll_usb.c ****     USBx->GCCFG &= ~(USB_OTG_GCCFG_PWRDWN);
  89:Drivers/STM32F4xx_HAL_Driver/Src/stm32f4xx_ll_usb.c **** 
  90:Drivers/STM32F4xx_HAL_Driver/Src/stm32f4xx_ll_usb.c ****     /* Init The ULPI Interface */
  91:Drivers/STM32F4xx_HAL_Driver/Src/stm32f4xx_ll_usb.c ****     USBx->GUSBCFG &= ~(USB_OTG_GUSBCFG_TSDPS | USB_OTG_GUSBCFG_ULPIFSLS | USB_OTG_GUSBCFG_PHYSEL);
  92:Drivers/STM32F4xx_HAL_Driver/Src/stm32f4xx_ll_usb.c **** 
  93:Drivers/STM32F4xx_HAL_Driver/Src/stm32f4xx_ll_usb.c ****     /* Select vbus source */
  94:Drivers/STM32F4xx_HAL_Driver/Src/stm32f4xx_ll_usb.c ****     USBx->GUSBCFG &= ~(USB_OTG_GUSBCFG_ULPIEVBUSD | USB_OTG_GUSBCFG_ULPIEVBUSI);
  95:Drivers/STM32F4xx_HAL_Driver/Src/stm32f4xx_ll_usb.c ****     if (cfg.use_external_vbus == 1U)
  96:Drivers/STM32F4xx_HAL_Driver/Src/stm32f4xx_ll_usb.c ****     {
  97:Drivers/STM32F4xx_HAL_Driver/Src/stm32f4xx_ll_usb.c ****       USBx->GUSBCFG |= USB_OTG_GUSBCFG_ULPIEVBUSD;
  98:Drivers/STM32F4xx_HAL_Driver/Src/stm32f4xx_ll_usb.c ****     }
  99:Drivers/STM32F4xx_HAL_Driver/Src/stm32f4xx_ll_usb.c ****     /* Reset after a PHY select  */
 100:Drivers/STM32F4xx_HAL_Driver/Src/stm32f4xx_ll_usb.c ****     ret = USB_CoreReset(USBx);
 101:Drivers/STM32F4xx_HAL_Driver/Src/stm32f4xx_ll_usb.c ****   }
 102:Drivers/STM32F4xx_HAL_Driver/Src/stm32f4xx_ll_usb.c ****   else /* FS interface (embedded Phy) */
 103:Drivers/STM32F4xx_HAL_Driver/Src/stm32f4xx_ll_usb.c ****   {
 104:Drivers/STM32F4xx_HAL_Driver/Src/stm32f4xx_ll_usb.c ****     /* Select FS Embedded PHY */
 105:Drivers/STM32F4xx_HAL_Driver/Src/stm32f4xx_ll_usb.c ****     USBx->GUSBCFG |= USB_OTG_GUSBCFG_PHYSEL;
 106:Drivers/STM32F4xx_HAL_Driver/Src/stm32f4xx_ll_usb.c **** 
 107:Drivers/STM32F4xx_HAL_Driver/Src/stm32f4xx_ll_usb.c ****     /* Reset after a PHY select and set Host mode */
 108:Drivers/STM32F4xx_HAL_Driver/Src/stm32f4xx_ll_usb.c ****     ret = USB_CoreReset(USBx);
 109:Drivers/STM32F4xx_HAL_Driver/Src/stm32f4xx_ll_usb.c **** 
 110:Drivers/STM32F4xx_HAL_Driver/Src/stm32f4xx_ll_usb.c ****     if (cfg.battery_charging_enable == 0U)
 111:Drivers/STM32F4xx_HAL_Driver/Src/stm32f4xx_ll_usb.c ****     {
 112:Drivers/STM32F4xx_HAL_Driver/Src/stm32f4xx_ll_usb.c ****       /* Activate the USB Transceiver */
 113:Drivers/STM32F4xx_HAL_Driver/Src/stm32f4xx_ll_usb.c ****       USBx->GCCFG |= USB_OTG_GCCFG_PWRDWN;
 114:Drivers/STM32F4xx_HAL_Driver/Src/stm32f4xx_ll_usb.c ****     }
 115:Drivers/STM32F4xx_HAL_Driver/Src/stm32f4xx_ll_usb.c ****     else
 116:Drivers/STM32F4xx_HAL_Driver/Src/stm32f4xx_ll_usb.c ****     {
 117:Drivers/STM32F4xx_HAL_Driver/Src/stm32f4xx_ll_usb.c ****       /* Deactivate the USB Transceiver */
 118:Drivers/STM32F4xx_HAL_Driver/Src/stm32f4xx_ll_usb.c ****       USBx->GCCFG &= ~(USB_OTG_GCCFG_PWRDWN);
 119:Drivers/STM32F4xx_HAL_Driver/Src/stm32f4xx_ll_usb.c ****     }
 120:Drivers/STM32F4xx_HAL_Driver/Src/stm32f4xx_ll_usb.c ****   }
 121:Drivers/STM32F4xx_HAL_Driver/Src/stm32f4xx_ll_usb.c **** 
 122:Drivers/STM32F4xx_HAL_Driver/Src/stm32f4xx_ll_usb.c ****   if (cfg.dma_enable == 1U)
 123:Drivers/STM32F4xx_HAL_Driver/Src/stm32f4xx_ll_usb.c ****   {
 124:Drivers/STM32F4xx_HAL_Driver/Src/stm32f4xx_ll_usb.c ****     USBx->GAHBCFG |= USB_OTG_GAHBCFG_HBSTLEN_2;
 125:Drivers/STM32F4xx_HAL_Driver/Src/stm32f4xx_ll_usb.c ****     USBx->GAHBCFG |= USB_OTG_GAHBCFG_DMAEN;
 126:Drivers/STM32F4xx_HAL_Driver/Src/stm32f4xx_ll_usb.c ****   }
 127:Drivers/STM32F4xx_HAL_Driver/Src/stm32f4xx_ll_usb.c **** 
 128:Drivers/STM32F4xx_HAL_Driver/Src/stm32f4xx_ll_usb.c ****   return ret;
 129:Drivers/STM32F4xx_HAL_Driver/Src/stm32f4xx_ll_usb.c **** }
 130:Drivers/STM32F4xx_HAL_Driver/Src/stm32f4xx_ll_usb.c **** 
 131:Drivers/STM32F4xx_HAL_Driver/Src/stm32f4xx_ll_usb.c **** 
 132:Drivers/STM32F4xx_HAL_Driver/Src/stm32f4xx_ll_usb.c **** /**
 133:Drivers/STM32F4xx_HAL_Driver/Src/stm32f4xx_ll_usb.c ****   * @brief  Set the USB turnaround time
 134:Drivers/STM32F4xx_HAL_Driver/Src/stm32f4xx_ll_usb.c ****   * @param  USBx USB Instance
 135:Drivers/STM32F4xx_HAL_Driver/Src/stm32f4xx_ll_usb.c ****   * @param  hclk: AHB clock frequency
 136:Drivers/STM32F4xx_HAL_Driver/Src/stm32f4xx_ll_usb.c ****   * @retval USB turnaround time In PHY Clocks number
 137:Drivers/STM32F4xx_HAL_Driver/Src/stm32f4xx_ll_usb.c ****   */
 138:Drivers/STM32F4xx_HAL_Driver/Src/stm32f4xx_ll_usb.c **** HAL_StatusTypeDef USB_SetTurnaroundTime(USB_OTG_GlobalTypeDef *USBx,
 139:Drivers/STM32F4xx_HAL_Driver/Src/stm32f4xx_ll_usb.c ****                                         uint32_t hclk, uint8_t speed)
 140:Drivers/STM32F4xx_HAL_Driver/Src/stm32f4xx_ll_usb.c **** {
 141:Drivers/STM32F4xx_HAL_Driver/Src/stm32f4xx_ll_usb.c ****   uint32_t UsbTrd;
 142:Drivers/STM32F4xx_HAL_Driver/Src/stm32f4xx_ll_usb.c **** 
 143:Drivers/STM32F4xx_HAL_Driver/Src/stm32f4xx_ll_usb.c ****   /* The USBTRD is configured according to the tables below, depending on AHB frequency
 144:Drivers/STM32F4xx_HAL_Driver/Src/stm32f4xx_ll_usb.c ****   used by application. In the low AHB frequency range it is used to stretch enough the USB response
ARM GAS  /tmp/ccrTWjYe.s 			page 4


 145:Drivers/STM32F4xx_HAL_Driver/Src/stm32f4xx_ll_usb.c ****   time to IN tokens, the USB turnaround time, so to compensate for the longer AHB read access
 146:Drivers/STM32F4xx_HAL_Driver/Src/stm32f4xx_ll_usb.c ****   latency to the Data FIFO */
 147:Drivers/STM32F4xx_HAL_Driver/Src/stm32f4xx_ll_usb.c ****   if (speed == USBD_FS_SPEED)
 148:Drivers/STM32F4xx_HAL_Driver/Src/stm32f4xx_ll_usb.c ****   {
 149:Drivers/STM32F4xx_HAL_Driver/Src/stm32f4xx_ll_usb.c ****     if ((hclk >= 14200000U) && (hclk < 15000000U))
 150:Drivers/STM32F4xx_HAL_Driver/Src/stm32f4xx_ll_usb.c ****     {
 151:Drivers/STM32F4xx_HAL_Driver/Src/stm32f4xx_ll_usb.c ****       /* hclk Clock Range between 14.2-15 MHz */
 152:Drivers/STM32F4xx_HAL_Driver/Src/stm32f4xx_ll_usb.c ****       UsbTrd = 0xFU;
 153:Drivers/STM32F4xx_HAL_Driver/Src/stm32f4xx_ll_usb.c ****     }
 154:Drivers/STM32F4xx_HAL_Driver/Src/stm32f4xx_ll_usb.c ****     else if ((hclk >= 15000000U) && (hclk < 16000000U))
 155:Drivers/STM32F4xx_HAL_Driver/Src/stm32f4xx_ll_usb.c ****     {
 156:Drivers/STM32F4xx_HAL_Driver/Src/stm32f4xx_ll_usb.c ****       /* hclk Clock Range between 15-16 MHz */
 157:Drivers/STM32F4xx_HAL_Driver/Src/stm32f4xx_ll_usb.c ****       UsbTrd = 0xEU;
 158:Drivers/STM32F4xx_HAL_Driver/Src/stm32f4xx_ll_usb.c ****     }
 159:Drivers/STM32F4xx_HAL_Driver/Src/stm32f4xx_ll_usb.c ****     else if ((hclk >= 16000000U) && (hclk < 17200000U))
 160:Drivers/STM32F4xx_HAL_Driver/Src/stm32f4xx_ll_usb.c ****     {
 161:Drivers/STM32F4xx_HAL_Driver/Src/stm32f4xx_ll_usb.c ****       /* hclk Clock Range between 16-17.2 MHz */
 162:Drivers/STM32F4xx_HAL_Driver/Src/stm32f4xx_ll_usb.c ****       UsbTrd = 0xDU;
 163:Drivers/STM32F4xx_HAL_Driver/Src/stm32f4xx_ll_usb.c ****     }
 164:Drivers/STM32F4xx_HAL_Driver/Src/stm32f4xx_ll_usb.c ****     else if ((hclk >= 17200000U) && (hclk < 18500000U))
 165:Drivers/STM32F4xx_HAL_Driver/Src/stm32f4xx_ll_usb.c ****     {
 166:Drivers/STM32F4xx_HAL_Driver/Src/stm32f4xx_ll_usb.c ****       /* hclk Clock Range between 17.2-18.5 MHz */
 167:Drivers/STM32F4xx_HAL_Driver/Src/stm32f4xx_ll_usb.c ****       UsbTrd = 0xCU;
 168:Drivers/STM32F4xx_HAL_Driver/Src/stm32f4xx_ll_usb.c ****     }
 169:Drivers/STM32F4xx_HAL_Driver/Src/stm32f4xx_ll_usb.c ****     else if ((hclk >= 18500000U) && (hclk < 20000000U))
 170:Drivers/STM32F4xx_HAL_Driver/Src/stm32f4xx_ll_usb.c ****     {
 171:Drivers/STM32F4xx_HAL_Driver/Src/stm32f4xx_ll_usb.c ****       /* hclk Clock Range between 18.5-20 MHz */
 172:Drivers/STM32F4xx_HAL_Driver/Src/stm32f4xx_ll_usb.c ****       UsbTrd = 0xBU;
 173:Drivers/STM32F4xx_HAL_Driver/Src/stm32f4xx_ll_usb.c ****     }
 174:Drivers/STM32F4xx_HAL_Driver/Src/stm32f4xx_ll_usb.c ****     else if ((hclk >= 20000000U) && (hclk < 21800000U))
 175:Drivers/STM32F4xx_HAL_Driver/Src/stm32f4xx_ll_usb.c ****     {
 176:Drivers/STM32F4xx_HAL_Driver/Src/stm32f4xx_ll_usb.c ****       /* hclk Clock Range between 20-21.8 MHz */
 177:Drivers/STM32F4xx_HAL_Driver/Src/stm32f4xx_ll_usb.c ****       UsbTrd = 0xAU;
 178:Drivers/STM32F4xx_HAL_Driver/Src/stm32f4xx_ll_usb.c ****     }
 179:Drivers/STM32F4xx_HAL_Driver/Src/stm32f4xx_ll_usb.c ****     else if ((hclk >= 21800000U) && (hclk < 24000000U))
 180:Drivers/STM32F4xx_HAL_Driver/Src/stm32f4xx_ll_usb.c ****     {
 181:Drivers/STM32F4xx_HAL_Driver/Src/stm32f4xx_ll_usb.c ****       /* hclk Clock Range between 21.8-24 MHz */
 182:Drivers/STM32F4xx_HAL_Driver/Src/stm32f4xx_ll_usb.c ****       UsbTrd = 0x9U;
 183:Drivers/STM32F4xx_HAL_Driver/Src/stm32f4xx_ll_usb.c ****     }
 184:Drivers/STM32F4xx_HAL_Driver/Src/stm32f4xx_ll_usb.c ****     else if ((hclk >= 24000000U) && (hclk < 27700000U))
 185:Drivers/STM32F4xx_HAL_Driver/Src/stm32f4xx_ll_usb.c ****     {
 186:Drivers/STM32F4xx_HAL_Driver/Src/stm32f4xx_ll_usb.c ****       /* hclk Clock Range between 24-27.7 MHz */
 187:Drivers/STM32F4xx_HAL_Driver/Src/stm32f4xx_ll_usb.c ****       UsbTrd = 0x8U;
 188:Drivers/STM32F4xx_HAL_Driver/Src/stm32f4xx_ll_usb.c ****     }
 189:Drivers/STM32F4xx_HAL_Driver/Src/stm32f4xx_ll_usb.c ****     else if ((hclk >= 27700000U) && (hclk < 32000000U))
 190:Drivers/STM32F4xx_HAL_Driver/Src/stm32f4xx_ll_usb.c ****     {
 191:Drivers/STM32F4xx_HAL_Driver/Src/stm32f4xx_ll_usb.c ****       /* hclk Clock Range between 27.7-32 MHz */
 192:Drivers/STM32F4xx_HAL_Driver/Src/stm32f4xx_ll_usb.c ****       UsbTrd = 0x7U;
 193:Drivers/STM32F4xx_HAL_Driver/Src/stm32f4xx_ll_usb.c ****     }
 194:Drivers/STM32F4xx_HAL_Driver/Src/stm32f4xx_ll_usb.c ****     else /* if(hclk >= 32000000) */
 195:Drivers/STM32F4xx_HAL_Driver/Src/stm32f4xx_ll_usb.c ****     {
 196:Drivers/STM32F4xx_HAL_Driver/Src/stm32f4xx_ll_usb.c ****       /* hclk Clock Range between 32-200 MHz */
 197:Drivers/STM32F4xx_HAL_Driver/Src/stm32f4xx_ll_usb.c ****       UsbTrd = 0x6U;
 198:Drivers/STM32F4xx_HAL_Driver/Src/stm32f4xx_ll_usb.c ****     }
 199:Drivers/STM32F4xx_HAL_Driver/Src/stm32f4xx_ll_usb.c ****   }
 200:Drivers/STM32F4xx_HAL_Driver/Src/stm32f4xx_ll_usb.c ****   else if (speed == USBD_HS_SPEED)
 201:Drivers/STM32F4xx_HAL_Driver/Src/stm32f4xx_ll_usb.c ****   {
ARM GAS  /tmp/ccrTWjYe.s 			page 5


 202:Drivers/STM32F4xx_HAL_Driver/Src/stm32f4xx_ll_usb.c ****     UsbTrd = USBD_HS_TRDT_VALUE;
 203:Drivers/STM32F4xx_HAL_Driver/Src/stm32f4xx_ll_usb.c ****   }
 204:Drivers/STM32F4xx_HAL_Driver/Src/stm32f4xx_ll_usb.c ****   else
 205:Drivers/STM32F4xx_HAL_Driver/Src/stm32f4xx_ll_usb.c ****   {
 206:Drivers/STM32F4xx_HAL_Driver/Src/stm32f4xx_ll_usb.c ****     UsbTrd = USBD_DEFAULT_TRDT_VALUE;
 207:Drivers/STM32F4xx_HAL_Driver/Src/stm32f4xx_ll_usb.c ****   }
 208:Drivers/STM32F4xx_HAL_Driver/Src/stm32f4xx_ll_usb.c **** 
 209:Drivers/STM32F4xx_HAL_Driver/Src/stm32f4xx_ll_usb.c ****   USBx->GUSBCFG &= ~USB_OTG_GUSBCFG_TRDT;
 210:Drivers/STM32F4xx_HAL_Driver/Src/stm32f4xx_ll_usb.c ****   USBx->GUSBCFG |= (uint32_t)((UsbTrd << 10) & USB_OTG_GUSBCFG_TRDT);
 211:Drivers/STM32F4xx_HAL_Driver/Src/stm32f4xx_ll_usb.c **** 
 212:Drivers/STM32F4xx_HAL_Driver/Src/stm32f4xx_ll_usb.c ****   return HAL_OK;
 213:Drivers/STM32F4xx_HAL_Driver/Src/stm32f4xx_ll_usb.c **** }
 214:Drivers/STM32F4xx_HAL_Driver/Src/stm32f4xx_ll_usb.c **** 
 215:Drivers/STM32F4xx_HAL_Driver/Src/stm32f4xx_ll_usb.c **** /**
 216:Drivers/STM32F4xx_HAL_Driver/Src/stm32f4xx_ll_usb.c ****   * @brief  USB_EnableGlobalInt
 217:Drivers/STM32F4xx_HAL_Driver/Src/stm32f4xx_ll_usb.c ****   *         Enables the controller's Global Int in the AHB Config reg
 218:Drivers/STM32F4xx_HAL_Driver/Src/stm32f4xx_ll_usb.c ****   * @param  USBx  Selected device
 219:Drivers/STM32F4xx_HAL_Driver/Src/stm32f4xx_ll_usb.c ****   * @retval HAL status
 220:Drivers/STM32F4xx_HAL_Driver/Src/stm32f4xx_ll_usb.c ****   */
 221:Drivers/STM32F4xx_HAL_Driver/Src/stm32f4xx_ll_usb.c **** HAL_StatusTypeDef USB_EnableGlobalInt(USB_OTG_GlobalTypeDef *USBx)
 222:Drivers/STM32F4xx_HAL_Driver/Src/stm32f4xx_ll_usb.c **** {
 223:Drivers/STM32F4xx_HAL_Driver/Src/stm32f4xx_ll_usb.c ****   USBx->GAHBCFG |= USB_OTG_GAHBCFG_GINT;
 224:Drivers/STM32F4xx_HAL_Driver/Src/stm32f4xx_ll_usb.c ****   return HAL_OK;
 225:Drivers/STM32F4xx_HAL_Driver/Src/stm32f4xx_ll_usb.c **** }
 226:Drivers/STM32F4xx_HAL_Driver/Src/stm32f4xx_ll_usb.c **** 
 227:Drivers/STM32F4xx_HAL_Driver/Src/stm32f4xx_ll_usb.c **** /**
 228:Drivers/STM32F4xx_HAL_Driver/Src/stm32f4xx_ll_usb.c ****   * @brief  USB_DisableGlobalInt
 229:Drivers/STM32F4xx_HAL_Driver/Src/stm32f4xx_ll_usb.c ****   *         Disable the controller's Global Int in the AHB Config reg
 230:Drivers/STM32F4xx_HAL_Driver/Src/stm32f4xx_ll_usb.c ****   * @param  USBx  Selected device
 231:Drivers/STM32F4xx_HAL_Driver/Src/stm32f4xx_ll_usb.c ****   * @retval HAL status
 232:Drivers/STM32F4xx_HAL_Driver/Src/stm32f4xx_ll_usb.c **** */
 233:Drivers/STM32F4xx_HAL_Driver/Src/stm32f4xx_ll_usb.c **** HAL_StatusTypeDef USB_DisableGlobalInt(USB_OTG_GlobalTypeDef *USBx)
 234:Drivers/STM32F4xx_HAL_Driver/Src/stm32f4xx_ll_usb.c **** {
 235:Drivers/STM32F4xx_HAL_Driver/Src/stm32f4xx_ll_usb.c ****   USBx->GAHBCFG &= ~USB_OTG_GAHBCFG_GINT;
 236:Drivers/STM32F4xx_HAL_Driver/Src/stm32f4xx_ll_usb.c ****   return HAL_OK;
 237:Drivers/STM32F4xx_HAL_Driver/Src/stm32f4xx_ll_usb.c **** }
 238:Drivers/STM32F4xx_HAL_Driver/Src/stm32f4xx_ll_usb.c **** 
 239:Drivers/STM32F4xx_HAL_Driver/Src/stm32f4xx_ll_usb.c **** /**
 240:Drivers/STM32F4xx_HAL_Driver/Src/stm32f4xx_ll_usb.c ****   * @brief  USB_SetCurrentMode : Set functional mode
 241:Drivers/STM32F4xx_HAL_Driver/Src/stm32f4xx_ll_usb.c ****   * @param  USBx  Selected device
 242:Drivers/STM32F4xx_HAL_Driver/Src/stm32f4xx_ll_usb.c ****   * @param  mode   current core mode
 243:Drivers/STM32F4xx_HAL_Driver/Src/stm32f4xx_ll_usb.c ****   *          This parameter can be one of these values:
 244:Drivers/STM32F4xx_HAL_Driver/Src/stm32f4xx_ll_usb.c ****   *            @arg USB_DEVICE_MODE: Peripheral mode
 245:Drivers/STM32F4xx_HAL_Driver/Src/stm32f4xx_ll_usb.c ****   *            @arg USB_HOST_MODE: Host mode
 246:Drivers/STM32F4xx_HAL_Driver/Src/stm32f4xx_ll_usb.c ****   *            @arg USB_DRD_MODE: Dual Role Device mode
 247:Drivers/STM32F4xx_HAL_Driver/Src/stm32f4xx_ll_usb.c ****   * @retval HAL status
 248:Drivers/STM32F4xx_HAL_Driver/Src/stm32f4xx_ll_usb.c ****   */
 249:Drivers/STM32F4xx_HAL_Driver/Src/stm32f4xx_ll_usb.c **** HAL_StatusTypeDef USB_SetCurrentMode(USB_OTG_GlobalTypeDef *USBx, USB_OTG_ModeTypeDef mode)
 250:Drivers/STM32F4xx_HAL_Driver/Src/stm32f4xx_ll_usb.c **** {
 251:Drivers/STM32F4xx_HAL_Driver/Src/stm32f4xx_ll_usb.c ****   USBx->GUSBCFG &= ~(USB_OTG_GUSBCFG_FHMOD | USB_OTG_GUSBCFG_FDMOD);
 252:Drivers/STM32F4xx_HAL_Driver/Src/stm32f4xx_ll_usb.c **** 
 253:Drivers/STM32F4xx_HAL_Driver/Src/stm32f4xx_ll_usb.c ****   if (mode == USB_HOST_MODE)
 254:Drivers/STM32F4xx_HAL_Driver/Src/stm32f4xx_ll_usb.c ****   {
 255:Drivers/STM32F4xx_HAL_Driver/Src/stm32f4xx_ll_usb.c ****     USBx->GUSBCFG |= USB_OTG_GUSBCFG_FHMOD;
 256:Drivers/STM32F4xx_HAL_Driver/Src/stm32f4xx_ll_usb.c ****   }
 257:Drivers/STM32F4xx_HAL_Driver/Src/stm32f4xx_ll_usb.c ****   else if (mode == USB_DEVICE_MODE)
 258:Drivers/STM32F4xx_HAL_Driver/Src/stm32f4xx_ll_usb.c ****   {
ARM GAS  /tmp/ccrTWjYe.s 			page 6


 259:Drivers/STM32F4xx_HAL_Driver/Src/stm32f4xx_ll_usb.c ****     USBx->GUSBCFG |= USB_OTG_GUSBCFG_FDMOD;
 260:Drivers/STM32F4xx_HAL_Driver/Src/stm32f4xx_ll_usb.c ****   }
 261:Drivers/STM32F4xx_HAL_Driver/Src/stm32f4xx_ll_usb.c ****   else
 262:Drivers/STM32F4xx_HAL_Driver/Src/stm32f4xx_ll_usb.c ****   {
 263:Drivers/STM32F4xx_HAL_Driver/Src/stm32f4xx_ll_usb.c ****     return HAL_ERROR;
 264:Drivers/STM32F4xx_HAL_Driver/Src/stm32f4xx_ll_usb.c ****   }
 265:Drivers/STM32F4xx_HAL_Driver/Src/stm32f4xx_ll_usb.c ****   HAL_Delay(50U);
 266:Drivers/STM32F4xx_HAL_Driver/Src/stm32f4xx_ll_usb.c **** 
 267:Drivers/STM32F4xx_HAL_Driver/Src/stm32f4xx_ll_usb.c ****   return HAL_OK;
 268:Drivers/STM32F4xx_HAL_Driver/Src/stm32f4xx_ll_usb.c **** }
 269:Drivers/STM32F4xx_HAL_Driver/Src/stm32f4xx_ll_usb.c **** 
 270:Drivers/STM32F4xx_HAL_Driver/Src/stm32f4xx_ll_usb.c **** /**
 271:Drivers/STM32F4xx_HAL_Driver/Src/stm32f4xx_ll_usb.c ****   * @brief  USB_DevInit : Initializes the USB_OTG controller registers
 272:Drivers/STM32F4xx_HAL_Driver/Src/stm32f4xx_ll_usb.c ****   *         for device mode
 273:Drivers/STM32F4xx_HAL_Driver/Src/stm32f4xx_ll_usb.c ****   * @param  USBx  Selected device
 274:Drivers/STM32F4xx_HAL_Driver/Src/stm32f4xx_ll_usb.c ****   * @param  cfg   pointer to a USB_OTG_CfgTypeDef structure that contains
 275:Drivers/STM32F4xx_HAL_Driver/Src/stm32f4xx_ll_usb.c ****   *         the configuration information for the specified USBx peripheral.
 276:Drivers/STM32F4xx_HAL_Driver/Src/stm32f4xx_ll_usb.c ****   * @retval HAL status
 277:Drivers/STM32F4xx_HAL_Driver/Src/stm32f4xx_ll_usb.c ****   */
 278:Drivers/STM32F4xx_HAL_Driver/Src/stm32f4xx_ll_usb.c **** HAL_StatusTypeDef USB_DevInit(USB_OTG_GlobalTypeDef *USBx, USB_OTG_CfgTypeDef cfg)
 279:Drivers/STM32F4xx_HAL_Driver/Src/stm32f4xx_ll_usb.c **** {
 280:Drivers/STM32F4xx_HAL_Driver/Src/stm32f4xx_ll_usb.c ****   HAL_StatusTypeDef ret = HAL_OK;
 281:Drivers/STM32F4xx_HAL_Driver/Src/stm32f4xx_ll_usb.c ****   uint32_t USBx_BASE = (uint32_t)USBx;
 282:Drivers/STM32F4xx_HAL_Driver/Src/stm32f4xx_ll_usb.c ****   uint32_t i;
 283:Drivers/STM32F4xx_HAL_Driver/Src/stm32f4xx_ll_usb.c **** 
 284:Drivers/STM32F4xx_HAL_Driver/Src/stm32f4xx_ll_usb.c ****   for (i = 0U; i < 15U; i++)
 285:Drivers/STM32F4xx_HAL_Driver/Src/stm32f4xx_ll_usb.c ****   {
 286:Drivers/STM32F4xx_HAL_Driver/Src/stm32f4xx_ll_usb.c ****     USBx->DIEPTXF[i] = 0U;
 287:Drivers/STM32F4xx_HAL_Driver/Src/stm32f4xx_ll_usb.c ****   }
 288:Drivers/STM32F4xx_HAL_Driver/Src/stm32f4xx_ll_usb.c **** 
 289:Drivers/STM32F4xx_HAL_Driver/Src/stm32f4xx_ll_usb.c **** #if defined(STM32F446xx) || defined(STM32F469xx) || defined(STM32F479xx) || defined(STM32F412Zx) ||
 290:Drivers/STM32F4xx_HAL_Driver/Src/stm32f4xx_ll_usb.c ****   /* VBUS Sensing setup */
 291:Drivers/STM32F4xx_HAL_Driver/Src/stm32f4xx_ll_usb.c ****   if (cfg.vbus_sensing_enable == 0U)
 292:Drivers/STM32F4xx_HAL_Driver/Src/stm32f4xx_ll_usb.c ****   {
 293:Drivers/STM32F4xx_HAL_Driver/Src/stm32f4xx_ll_usb.c ****     /* Deactivate VBUS Sensing B */
 294:Drivers/STM32F4xx_HAL_Driver/Src/stm32f4xx_ll_usb.c ****     USBx->GCCFG &= ~USB_OTG_GCCFG_VBDEN;
 295:Drivers/STM32F4xx_HAL_Driver/Src/stm32f4xx_ll_usb.c **** 
 296:Drivers/STM32F4xx_HAL_Driver/Src/stm32f4xx_ll_usb.c ****     /* B-peripheral session valid override enable */
 297:Drivers/STM32F4xx_HAL_Driver/Src/stm32f4xx_ll_usb.c ****     USBx->GOTGCTL |= USB_OTG_GOTGCTL_BVALOEN;
 298:Drivers/STM32F4xx_HAL_Driver/Src/stm32f4xx_ll_usb.c ****     USBx->GOTGCTL |= USB_OTG_GOTGCTL_BVALOVAL;
 299:Drivers/STM32F4xx_HAL_Driver/Src/stm32f4xx_ll_usb.c ****   }
 300:Drivers/STM32F4xx_HAL_Driver/Src/stm32f4xx_ll_usb.c ****   else
 301:Drivers/STM32F4xx_HAL_Driver/Src/stm32f4xx_ll_usb.c ****   {
 302:Drivers/STM32F4xx_HAL_Driver/Src/stm32f4xx_ll_usb.c ****     /* Enable HW VBUS sensing */
 303:Drivers/STM32F4xx_HAL_Driver/Src/stm32f4xx_ll_usb.c ****     USBx->GCCFG |= USB_OTG_GCCFG_VBDEN;
 304:Drivers/STM32F4xx_HAL_Driver/Src/stm32f4xx_ll_usb.c ****   }
 305:Drivers/STM32F4xx_HAL_Driver/Src/stm32f4xx_ll_usb.c **** #else
 306:Drivers/STM32F4xx_HAL_Driver/Src/stm32f4xx_ll_usb.c ****   /* VBUS Sensing setup */
 307:Drivers/STM32F4xx_HAL_Driver/Src/stm32f4xx_ll_usb.c ****   if (cfg.vbus_sensing_enable == 0U)
 308:Drivers/STM32F4xx_HAL_Driver/Src/stm32f4xx_ll_usb.c ****   {
 309:Drivers/STM32F4xx_HAL_Driver/Src/stm32f4xx_ll_usb.c ****     /*
 310:Drivers/STM32F4xx_HAL_Driver/Src/stm32f4xx_ll_usb.c ****      * Disable HW VBUS sensing. VBUS is internally considered to be always
 311:Drivers/STM32F4xx_HAL_Driver/Src/stm32f4xx_ll_usb.c ****      * at VBUS-Valid level (5V).
 312:Drivers/STM32F4xx_HAL_Driver/Src/stm32f4xx_ll_usb.c ****      */
 313:Drivers/STM32F4xx_HAL_Driver/Src/stm32f4xx_ll_usb.c ****     USBx->GCCFG |= USB_OTG_GCCFG_NOVBUSSENS;
 314:Drivers/STM32F4xx_HAL_Driver/Src/stm32f4xx_ll_usb.c ****     USBx->GCCFG &= ~USB_OTG_GCCFG_VBUSBSEN;
 315:Drivers/STM32F4xx_HAL_Driver/Src/stm32f4xx_ll_usb.c ****     USBx->GCCFG &= ~USB_OTG_GCCFG_VBUSASEN;
ARM GAS  /tmp/ccrTWjYe.s 			page 7


 316:Drivers/STM32F4xx_HAL_Driver/Src/stm32f4xx_ll_usb.c ****   }
 317:Drivers/STM32F4xx_HAL_Driver/Src/stm32f4xx_ll_usb.c ****   else
 318:Drivers/STM32F4xx_HAL_Driver/Src/stm32f4xx_ll_usb.c ****   {
 319:Drivers/STM32F4xx_HAL_Driver/Src/stm32f4xx_ll_usb.c ****     /* Enable HW VBUS sensing */
 320:Drivers/STM32F4xx_HAL_Driver/Src/stm32f4xx_ll_usb.c ****     USBx->GOTGCTL &= ~USB_OTG_GCCFG_NOVBUSSENS;
 321:Drivers/STM32F4xx_HAL_Driver/Src/stm32f4xx_ll_usb.c ****     USBx->GCCFG |= USB_OTG_GCCFG_VBUSBSEN;
 322:Drivers/STM32F4xx_HAL_Driver/Src/stm32f4xx_ll_usb.c ****   }
 323:Drivers/STM32F4xx_HAL_Driver/Src/stm32f4xx_ll_usb.c **** #endif /* defined(STM32F446xx) || defined(STM32F469xx) || defined(STM32F479xx) || defined(STM32F412
 324:Drivers/STM32F4xx_HAL_Driver/Src/stm32f4xx_ll_usb.c **** 
 325:Drivers/STM32F4xx_HAL_Driver/Src/stm32f4xx_ll_usb.c ****   /* Restart the Phy Clock */
 326:Drivers/STM32F4xx_HAL_Driver/Src/stm32f4xx_ll_usb.c ****   USBx_PCGCCTL = 0U;
 327:Drivers/STM32F4xx_HAL_Driver/Src/stm32f4xx_ll_usb.c **** 
 328:Drivers/STM32F4xx_HAL_Driver/Src/stm32f4xx_ll_usb.c ****   /* Device mode configuration */
 329:Drivers/STM32F4xx_HAL_Driver/Src/stm32f4xx_ll_usb.c ****   USBx_DEVICE->DCFG |= DCFG_FRAME_INTERVAL_80;
 330:Drivers/STM32F4xx_HAL_Driver/Src/stm32f4xx_ll_usb.c **** 
 331:Drivers/STM32F4xx_HAL_Driver/Src/stm32f4xx_ll_usb.c ****   if (cfg.phy_itface == USB_OTG_ULPI_PHY)
 332:Drivers/STM32F4xx_HAL_Driver/Src/stm32f4xx_ll_usb.c ****   {
 333:Drivers/STM32F4xx_HAL_Driver/Src/stm32f4xx_ll_usb.c ****     if (cfg.speed == USBD_HS_SPEED)
 334:Drivers/STM32F4xx_HAL_Driver/Src/stm32f4xx_ll_usb.c ****     {
 335:Drivers/STM32F4xx_HAL_Driver/Src/stm32f4xx_ll_usb.c ****       /* Set Core speed to High speed mode */
 336:Drivers/STM32F4xx_HAL_Driver/Src/stm32f4xx_ll_usb.c ****       (void)USB_SetDevSpeed(USBx, USB_OTG_SPEED_HIGH);
 337:Drivers/STM32F4xx_HAL_Driver/Src/stm32f4xx_ll_usb.c ****     }
 338:Drivers/STM32F4xx_HAL_Driver/Src/stm32f4xx_ll_usb.c ****     else
 339:Drivers/STM32F4xx_HAL_Driver/Src/stm32f4xx_ll_usb.c ****     {
 340:Drivers/STM32F4xx_HAL_Driver/Src/stm32f4xx_ll_usb.c ****       /* Set Core speed to Full speed mode */
 341:Drivers/STM32F4xx_HAL_Driver/Src/stm32f4xx_ll_usb.c ****       (void)USB_SetDevSpeed(USBx, USB_OTG_SPEED_HIGH_IN_FULL);
 342:Drivers/STM32F4xx_HAL_Driver/Src/stm32f4xx_ll_usb.c ****     }
 343:Drivers/STM32F4xx_HAL_Driver/Src/stm32f4xx_ll_usb.c ****   }
 344:Drivers/STM32F4xx_HAL_Driver/Src/stm32f4xx_ll_usb.c ****   else
 345:Drivers/STM32F4xx_HAL_Driver/Src/stm32f4xx_ll_usb.c ****   {
 346:Drivers/STM32F4xx_HAL_Driver/Src/stm32f4xx_ll_usb.c ****     /* Set Core speed to Full speed mode */
 347:Drivers/STM32F4xx_HAL_Driver/Src/stm32f4xx_ll_usb.c ****     (void)USB_SetDevSpeed(USBx, USB_OTG_SPEED_FULL);
 348:Drivers/STM32F4xx_HAL_Driver/Src/stm32f4xx_ll_usb.c ****   }
 349:Drivers/STM32F4xx_HAL_Driver/Src/stm32f4xx_ll_usb.c **** 
 350:Drivers/STM32F4xx_HAL_Driver/Src/stm32f4xx_ll_usb.c ****   /* Flush the FIFOs */
 351:Drivers/STM32F4xx_HAL_Driver/Src/stm32f4xx_ll_usb.c ****   if (USB_FlushTxFifo(USBx, 0x10U) != HAL_OK) /* all Tx FIFOs */
 352:Drivers/STM32F4xx_HAL_Driver/Src/stm32f4xx_ll_usb.c ****   {
 353:Drivers/STM32F4xx_HAL_Driver/Src/stm32f4xx_ll_usb.c ****     ret = HAL_ERROR;
 354:Drivers/STM32F4xx_HAL_Driver/Src/stm32f4xx_ll_usb.c ****   }
 355:Drivers/STM32F4xx_HAL_Driver/Src/stm32f4xx_ll_usb.c **** 
 356:Drivers/STM32F4xx_HAL_Driver/Src/stm32f4xx_ll_usb.c ****   if (USB_FlushRxFifo(USBx) != HAL_OK)
 357:Drivers/STM32F4xx_HAL_Driver/Src/stm32f4xx_ll_usb.c ****   {
 358:Drivers/STM32F4xx_HAL_Driver/Src/stm32f4xx_ll_usb.c ****     ret = HAL_ERROR;
 359:Drivers/STM32F4xx_HAL_Driver/Src/stm32f4xx_ll_usb.c ****   }
 360:Drivers/STM32F4xx_HAL_Driver/Src/stm32f4xx_ll_usb.c **** 
 361:Drivers/STM32F4xx_HAL_Driver/Src/stm32f4xx_ll_usb.c ****   /* Clear all pending Device Interrupts */
 362:Drivers/STM32F4xx_HAL_Driver/Src/stm32f4xx_ll_usb.c ****   USBx_DEVICE->DIEPMSK = 0U;
 363:Drivers/STM32F4xx_HAL_Driver/Src/stm32f4xx_ll_usb.c ****   USBx_DEVICE->DOEPMSK = 0U;
 364:Drivers/STM32F4xx_HAL_Driver/Src/stm32f4xx_ll_usb.c ****   USBx_DEVICE->DAINTMSK = 0U;
 365:Drivers/STM32F4xx_HAL_Driver/Src/stm32f4xx_ll_usb.c **** 
 366:Drivers/STM32F4xx_HAL_Driver/Src/stm32f4xx_ll_usb.c ****   for (i = 0U; i < cfg.dev_endpoints; i++)
 367:Drivers/STM32F4xx_HAL_Driver/Src/stm32f4xx_ll_usb.c ****   {
 368:Drivers/STM32F4xx_HAL_Driver/Src/stm32f4xx_ll_usb.c ****     if ((USBx_INEP(i)->DIEPCTL & USB_OTG_DIEPCTL_EPENA) == USB_OTG_DIEPCTL_EPENA)
 369:Drivers/STM32F4xx_HAL_Driver/Src/stm32f4xx_ll_usb.c ****     {
 370:Drivers/STM32F4xx_HAL_Driver/Src/stm32f4xx_ll_usb.c ****       if (i == 0U)
 371:Drivers/STM32F4xx_HAL_Driver/Src/stm32f4xx_ll_usb.c ****       {
 372:Drivers/STM32F4xx_HAL_Driver/Src/stm32f4xx_ll_usb.c ****         USBx_INEP(i)->DIEPCTL = USB_OTG_DIEPCTL_SNAK;
ARM GAS  /tmp/ccrTWjYe.s 			page 8


 373:Drivers/STM32F4xx_HAL_Driver/Src/stm32f4xx_ll_usb.c ****       }
 374:Drivers/STM32F4xx_HAL_Driver/Src/stm32f4xx_ll_usb.c ****       else
 375:Drivers/STM32F4xx_HAL_Driver/Src/stm32f4xx_ll_usb.c ****       {
 376:Drivers/STM32F4xx_HAL_Driver/Src/stm32f4xx_ll_usb.c ****         USBx_INEP(i)->DIEPCTL = USB_OTG_DIEPCTL_EPDIS | USB_OTG_DIEPCTL_SNAK;
 377:Drivers/STM32F4xx_HAL_Driver/Src/stm32f4xx_ll_usb.c ****       }
 378:Drivers/STM32F4xx_HAL_Driver/Src/stm32f4xx_ll_usb.c ****     }
 379:Drivers/STM32F4xx_HAL_Driver/Src/stm32f4xx_ll_usb.c ****     else
 380:Drivers/STM32F4xx_HAL_Driver/Src/stm32f4xx_ll_usb.c ****     {
 381:Drivers/STM32F4xx_HAL_Driver/Src/stm32f4xx_ll_usb.c ****       USBx_INEP(i)->DIEPCTL = 0U;
 382:Drivers/STM32F4xx_HAL_Driver/Src/stm32f4xx_ll_usb.c ****     }
 383:Drivers/STM32F4xx_HAL_Driver/Src/stm32f4xx_ll_usb.c **** 
 384:Drivers/STM32F4xx_HAL_Driver/Src/stm32f4xx_ll_usb.c ****     USBx_INEP(i)->DIEPTSIZ = 0U;
 385:Drivers/STM32F4xx_HAL_Driver/Src/stm32f4xx_ll_usb.c ****     USBx_INEP(i)->DIEPINT  = 0xFB7FU;
 386:Drivers/STM32F4xx_HAL_Driver/Src/stm32f4xx_ll_usb.c ****   }
 387:Drivers/STM32F4xx_HAL_Driver/Src/stm32f4xx_ll_usb.c **** 
 388:Drivers/STM32F4xx_HAL_Driver/Src/stm32f4xx_ll_usb.c ****   for (i = 0U; i < cfg.dev_endpoints; i++)
 389:Drivers/STM32F4xx_HAL_Driver/Src/stm32f4xx_ll_usb.c ****   {
 390:Drivers/STM32F4xx_HAL_Driver/Src/stm32f4xx_ll_usb.c ****     if ((USBx_OUTEP(i)->DOEPCTL & USB_OTG_DOEPCTL_EPENA) == USB_OTG_DOEPCTL_EPENA)
 391:Drivers/STM32F4xx_HAL_Driver/Src/stm32f4xx_ll_usb.c ****     {
 392:Drivers/STM32F4xx_HAL_Driver/Src/stm32f4xx_ll_usb.c ****       if (i == 0U)
 393:Drivers/STM32F4xx_HAL_Driver/Src/stm32f4xx_ll_usb.c ****       {
 394:Drivers/STM32F4xx_HAL_Driver/Src/stm32f4xx_ll_usb.c ****         USBx_OUTEP(i)->DOEPCTL = USB_OTG_DOEPCTL_SNAK;
 395:Drivers/STM32F4xx_HAL_Driver/Src/stm32f4xx_ll_usb.c ****       }
 396:Drivers/STM32F4xx_HAL_Driver/Src/stm32f4xx_ll_usb.c ****       else
 397:Drivers/STM32F4xx_HAL_Driver/Src/stm32f4xx_ll_usb.c ****       {
 398:Drivers/STM32F4xx_HAL_Driver/Src/stm32f4xx_ll_usb.c ****         USBx_OUTEP(i)->DOEPCTL = USB_OTG_DOEPCTL_EPDIS | USB_OTG_DOEPCTL_SNAK;
 399:Drivers/STM32F4xx_HAL_Driver/Src/stm32f4xx_ll_usb.c ****       }
 400:Drivers/STM32F4xx_HAL_Driver/Src/stm32f4xx_ll_usb.c ****     }
 401:Drivers/STM32F4xx_HAL_Driver/Src/stm32f4xx_ll_usb.c ****     else
 402:Drivers/STM32F4xx_HAL_Driver/Src/stm32f4xx_ll_usb.c ****     {
 403:Drivers/STM32F4xx_HAL_Driver/Src/stm32f4xx_ll_usb.c ****       USBx_OUTEP(i)->DOEPCTL = 0U;
 404:Drivers/STM32F4xx_HAL_Driver/Src/stm32f4xx_ll_usb.c ****     }
 405:Drivers/STM32F4xx_HAL_Driver/Src/stm32f4xx_ll_usb.c **** 
 406:Drivers/STM32F4xx_HAL_Driver/Src/stm32f4xx_ll_usb.c ****     USBx_OUTEP(i)->DOEPTSIZ = 0U;
 407:Drivers/STM32F4xx_HAL_Driver/Src/stm32f4xx_ll_usb.c ****     USBx_OUTEP(i)->DOEPINT  = 0xFB7FU;
 408:Drivers/STM32F4xx_HAL_Driver/Src/stm32f4xx_ll_usb.c ****   }
 409:Drivers/STM32F4xx_HAL_Driver/Src/stm32f4xx_ll_usb.c **** 
 410:Drivers/STM32F4xx_HAL_Driver/Src/stm32f4xx_ll_usb.c ****   USBx_DEVICE->DIEPMSK &= ~(USB_OTG_DIEPMSK_TXFURM);
 411:Drivers/STM32F4xx_HAL_Driver/Src/stm32f4xx_ll_usb.c **** 
 412:Drivers/STM32F4xx_HAL_Driver/Src/stm32f4xx_ll_usb.c ****   if (cfg.dma_enable == 1U)
 413:Drivers/STM32F4xx_HAL_Driver/Src/stm32f4xx_ll_usb.c ****   {
 414:Drivers/STM32F4xx_HAL_Driver/Src/stm32f4xx_ll_usb.c ****     /*Set threshold parameters */
 415:Drivers/STM32F4xx_HAL_Driver/Src/stm32f4xx_ll_usb.c ****     USBx_DEVICE->DTHRCTL = USB_OTG_DTHRCTL_TXTHRLEN_6 |
 416:Drivers/STM32F4xx_HAL_Driver/Src/stm32f4xx_ll_usb.c ****                            USB_OTG_DTHRCTL_RXTHRLEN_6;
 417:Drivers/STM32F4xx_HAL_Driver/Src/stm32f4xx_ll_usb.c **** 
 418:Drivers/STM32F4xx_HAL_Driver/Src/stm32f4xx_ll_usb.c ****     USBx_DEVICE->DTHRCTL |= USB_OTG_DTHRCTL_RXTHREN |
 419:Drivers/STM32F4xx_HAL_Driver/Src/stm32f4xx_ll_usb.c ****                             USB_OTG_DTHRCTL_ISOTHREN |
 420:Drivers/STM32F4xx_HAL_Driver/Src/stm32f4xx_ll_usb.c ****                             USB_OTG_DTHRCTL_NONISOTHREN;
 421:Drivers/STM32F4xx_HAL_Driver/Src/stm32f4xx_ll_usb.c ****   }
 422:Drivers/STM32F4xx_HAL_Driver/Src/stm32f4xx_ll_usb.c **** 
 423:Drivers/STM32F4xx_HAL_Driver/Src/stm32f4xx_ll_usb.c ****   /* Disable all interrupts. */
 424:Drivers/STM32F4xx_HAL_Driver/Src/stm32f4xx_ll_usb.c ****   USBx->GINTMSK = 0U;
 425:Drivers/STM32F4xx_HAL_Driver/Src/stm32f4xx_ll_usb.c **** 
 426:Drivers/STM32F4xx_HAL_Driver/Src/stm32f4xx_ll_usb.c ****   /* Clear any pending interrupts */
 427:Drivers/STM32F4xx_HAL_Driver/Src/stm32f4xx_ll_usb.c ****   USBx->GINTSTS = 0xBFFFFFFFU;
 428:Drivers/STM32F4xx_HAL_Driver/Src/stm32f4xx_ll_usb.c **** 
 429:Drivers/STM32F4xx_HAL_Driver/Src/stm32f4xx_ll_usb.c ****   /* Enable the common interrupts */
ARM GAS  /tmp/ccrTWjYe.s 			page 9


 430:Drivers/STM32F4xx_HAL_Driver/Src/stm32f4xx_ll_usb.c ****   if (cfg.dma_enable == 0U)
 431:Drivers/STM32F4xx_HAL_Driver/Src/stm32f4xx_ll_usb.c ****   {
 432:Drivers/STM32F4xx_HAL_Driver/Src/stm32f4xx_ll_usb.c ****     USBx->GINTMSK |= USB_OTG_GINTMSK_RXFLVLM;
 433:Drivers/STM32F4xx_HAL_Driver/Src/stm32f4xx_ll_usb.c ****   }
 434:Drivers/STM32F4xx_HAL_Driver/Src/stm32f4xx_ll_usb.c **** 
 435:Drivers/STM32F4xx_HAL_Driver/Src/stm32f4xx_ll_usb.c ****   /* Enable interrupts matching to the Device mode ONLY */
 436:Drivers/STM32F4xx_HAL_Driver/Src/stm32f4xx_ll_usb.c ****   USBx->GINTMSK |= USB_OTG_GINTMSK_USBSUSPM | USB_OTG_GINTMSK_USBRST |
 437:Drivers/STM32F4xx_HAL_Driver/Src/stm32f4xx_ll_usb.c ****                    USB_OTG_GINTMSK_ENUMDNEM | USB_OTG_GINTMSK_IEPINT |
 438:Drivers/STM32F4xx_HAL_Driver/Src/stm32f4xx_ll_usb.c ****                    USB_OTG_GINTMSK_OEPINT   | USB_OTG_GINTMSK_IISOIXFRM |
 439:Drivers/STM32F4xx_HAL_Driver/Src/stm32f4xx_ll_usb.c ****                    USB_OTG_GINTMSK_PXFRM_IISOOXFRM | USB_OTG_GINTMSK_WUIM;
 440:Drivers/STM32F4xx_HAL_Driver/Src/stm32f4xx_ll_usb.c **** 
 441:Drivers/STM32F4xx_HAL_Driver/Src/stm32f4xx_ll_usb.c ****   if (cfg.Sof_enable != 0U)
 442:Drivers/STM32F4xx_HAL_Driver/Src/stm32f4xx_ll_usb.c ****   {
 443:Drivers/STM32F4xx_HAL_Driver/Src/stm32f4xx_ll_usb.c ****     USBx->GINTMSK |= USB_OTG_GINTMSK_SOFM;
 444:Drivers/STM32F4xx_HAL_Driver/Src/stm32f4xx_ll_usb.c ****   }
 445:Drivers/STM32F4xx_HAL_Driver/Src/stm32f4xx_ll_usb.c **** 
 446:Drivers/STM32F4xx_HAL_Driver/Src/stm32f4xx_ll_usb.c ****   if (cfg.vbus_sensing_enable == 1U)
 447:Drivers/STM32F4xx_HAL_Driver/Src/stm32f4xx_ll_usb.c ****   {
 448:Drivers/STM32F4xx_HAL_Driver/Src/stm32f4xx_ll_usb.c ****     USBx->GINTMSK |= (USB_OTG_GINTMSK_SRQIM | USB_OTG_GINTMSK_OTGINT);
 449:Drivers/STM32F4xx_HAL_Driver/Src/stm32f4xx_ll_usb.c ****   }
 450:Drivers/STM32F4xx_HAL_Driver/Src/stm32f4xx_ll_usb.c **** 
 451:Drivers/STM32F4xx_HAL_Driver/Src/stm32f4xx_ll_usb.c ****   return ret;
 452:Drivers/STM32F4xx_HAL_Driver/Src/stm32f4xx_ll_usb.c **** }
 453:Drivers/STM32F4xx_HAL_Driver/Src/stm32f4xx_ll_usb.c **** 
 454:Drivers/STM32F4xx_HAL_Driver/Src/stm32f4xx_ll_usb.c **** /**
 455:Drivers/STM32F4xx_HAL_Driver/Src/stm32f4xx_ll_usb.c ****   * @brief  USB_OTG_FlushTxFifo : Flush a Tx FIFO
 456:Drivers/STM32F4xx_HAL_Driver/Src/stm32f4xx_ll_usb.c ****   * @param  USBx  Selected device
 457:Drivers/STM32F4xx_HAL_Driver/Src/stm32f4xx_ll_usb.c ****   * @param  num  FIFO number
 458:Drivers/STM32F4xx_HAL_Driver/Src/stm32f4xx_ll_usb.c ****   *         This parameter can be a value from 1 to 15
 459:Drivers/STM32F4xx_HAL_Driver/Src/stm32f4xx_ll_usb.c ****             15 means Flush all Tx FIFOs
 460:Drivers/STM32F4xx_HAL_Driver/Src/stm32f4xx_ll_usb.c ****   * @retval HAL status
 461:Drivers/STM32F4xx_HAL_Driver/Src/stm32f4xx_ll_usb.c ****   */
 462:Drivers/STM32F4xx_HAL_Driver/Src/stm32f4xx_ll_usb.c **** HAL_StatusTypeDef USB_FlushTxFifo(USB_OTG_GlobalTypeDef *USBx, uint32_t num)
 463:Drivers/STM32F4xx_HAL_Driver/Src/stm32f4xx_ll_usb.c **** {
 464:Drivers/STM32F4xx_HAL_Driver/Src/stm32f4xx_ll_usb.c ****   uint32_t count = 0U;
 465:Drivers/STM32F4xx_HAL_Driver/Src/stm32f4xx_ll_usb.c **** 
 466:Drivers/STM32F4xx_HAL_Driver/Src/stm32f4xx_ll_usb.c ****   USBx->GRSTCTL = (USB_OTG_GRSTCTL_TXFFLSH | (num << 6));
 467:Drivers/STM32F4xx_HAL_Driver/Src/stm32f4xx_ll_usb.c **** 
 468:Drivers/STM32F4xx_HAL_Driver/Src/stm32f4xx_ll_usb.c ****   do
 469:Drivers/STM32F4xx_HAL_Driver/Src/stm32f4xx_ll_usb.c ****   {
 470:Drivers/STM32F4xx_HAL_Driver/Src/stm32f4xx_ll_usb.c ****     if (++count > 200000U)
 471:Drivers/STM32F4xx_HAL_Driver/Src/stm32f4xx_ll_usb.c ****     {
 472:Drivers/STM32F4xx_HAL_Driver/Src/stm32f4xx_ll_usb.c ****       return HAL_TIMEOUT;
 473:Drivers/STM32F4xx_HAL_Driver/Src/stm32f4xx_ll_usb.c ****     }
 474:Drivers/STM32F4xx_HAL_Driver/Src/stm32f4xx_ll_usb.c ****   }
 475:Drivers/STM32F4xx_HAL_Driver/Src/stm32f4xx_ll_usb.c ****   while ((USBx->GRSTCTL & USB_OTG_GRSTCTL_TXFFLSH) == USB_OTG_GRSTCTL_TXFFLSH);
 476:Drivers/STM32F4xx_HAL_Driver/Src/stm32f4xx_ll_usb.c **** 
 477:Drivers/STM32F4xx_HAL_Driver/Src/stm32f4xx_ll_usb.c ****   return HAL_OK;
 478:Drivers/STM32F4xx_HAL_Driver/Src/stm32f4xx_ll_usb.c **** }
 479:Drivers/STM32F4xx_HAL_Driver/Src/stm32f4xx_ll_usb.c **** 
 480:Drivers/STM32F4xx_HAL_Driver/Src/stm32f4xx_ll_usb.c **** /**
 481:Drivers/STM32F4xx_HAL_Driver/Src/stm32f4xx_ll_usb.c ****   * @brief  USB_FlushRxFifo : Flush Rx FIFO
 482:Drivers/STM32F4xx_HAL_Driver/Src/stm32f4xx_ll_usb.c ****   * @param  USBx  Selected device
 483:Drivers/STM32F4xx_HAL_Driver/Src/stm32f4xx_ll_usb.c ****   * @retval HAL status
 484:Drivers/STM32F4xx_HAL_Driver/Src/stm32f4xx_ll_usb.c ****   */
 485:Drivers/STM32F4xx_HAL_Driver/Src/stm32f4xx_ll_usb.c **** HAL_StatusTypeDef USB_FlushRxFifo(USB_OTG_GlobalTypeDef *USBx)
 486:Drivers/STM32F4xx_HAL_Driver/Src/stm32f4xx_ll_usb.c **** {
ARM GAS  /tmp/ccrTWjYe.s 			page 10


 487:Drivers/STM32F4xx_HAL_Driver/Src/stm32f4xx_ll_usb.c ****   uint32_t count = 0;
 488:Drivers/STM32F4xx_HAL_Driver/Src/stm32f4xx_ll_usb.c **** 
 489:Drivers/STM32F4xx_HAL_Driver/Src/stm32f4xx_ll_usb.c ****   USBx->GRSTCTL = USB_OTG_GRSTCTL_RXFFLSH;
 490:Drivers/STM32F4xx_HAL_Driver/Src/stm32f4xx_ll_usb.c **** 
 491:Drivers/STM32F4xx_HAL_Driver/Src/stm32f4xx_ll_usb.c ****   do
 492:Drivers/STM32F4xx_HAL_Driver/Src/stm32f4xx_ll_usb.c ****   {
 493:Drivers/STM32F4xx_HAL_Driver/Src/stm32f4xx_ll_usb.c ****     if (++count > 200000U)
 494:Drivers/STM32F4xx_HAL_Driver/Src/stm32f4xx_ll_usb.c ****     {
 495:Drivers/STM32F4xx_HAL_Driver/Src/stm32f4xx_ll_usb.c ****       return HAL_TIMEOUT;
 496:Drivers/STM32F4xx_HAL_Driver/Src/stm32f4xx_ll_usb.c ****     }
 497:Drivers/STM32F4xx_HAL_Driver/Src/stm32f4xx_ll_usb.c ****   }
 498:Drivers/STM32F4xx_HAL_Driver/Src/stm32f4xx_ll_usb.c ****   while ((USBx->GRSTCTL & USB_OTG_GRSTCTL_RXFFLSH) == USB_OTG_GRSTCTL_RXFFLSH);
 499:Drivers/STM32F4xx_HAL_Driver/Src/stm32f4xx_ll_usb.c **** 
 500:Drivers/STM32F4xx_HAL_Driver/Src/stm32f4xx_ll_usb.c ****   return HAL_OK;
 501:Drivers/STM32F4xx_HAL_Driver/Src/stm32f4xx_ll_usb.c **** }
 502:Drivers/STM32F4xx_HAL_Driver/Src/stm32f4xx_ll_usb.c **** 
 503:Drivers/STM32F4xx_HAL_Driver/Src/stm32f4xx_ll_usb.c **** /**
 504:Drivers/STM32F4xx_HAL_Driver/Src/stm32f4xx_ll_usb.c ****   * @brief  USB_SetDevSpeed  Initializes the DevSpd field of DCFG register
 505:Drivers/STM32F4xx_HAL_Driver/Src/stm32f4xx_ll_usb.c ****   *         depending the PHY type and the enumeration speed of the device.
 506:Drivers/STM32F4xx_HAL_Driver/Src/stm32f4xx_ll_usb.c ****   * @param  USBx  Selected device
 507:Drivers/STM32F4xx_HAL_Driver/Src/stm32f4xx_ll_usb.c ****   * @param  speed  device speed
 508:Drivers/STM32F4xx_HAL_Driver/Src/stm32f4xx_ll_usb.c ****   *          This parameter can be one of these values:
 509:Drivers/STM32F4xx_HAL_Driver/Src/stm32f4xx_ll_usb.c ****   *            @arg USB_OTG_SPEED_HIGH: High speed mode
 510:Drivers/STM32F4xx_HAL_Driver/Src/stm32f4xx_ll_usb.c ****   *            @arg USB_OTG_SPEED_HIGH_IN_FULL: High speed core in Full Speed mode
 511:Drivers/STM32F4xx_HAL_Driver/Src/stm32f4xx_ll_usb.c ****   *            @arg USB_OTG_SPEED_FULL: Full speed mode
 512:Drivers/STM32F4xx_HAL_Driver/Src/stm32f4xx_ll_usb.c ****   * @retval  Hal status
 513:Drivers/STM32F4xx_HAL_Driver/Src/stm32f4xx_ll_usb.c ****   */
 514:Drivers/STM32F4xx_HAL_Driver/Src/stm32f4xx_ll_usb.c **** HAL_StatusTypeDef USB_SetDevSpeed(USB_OTG_GlobalTypeDef *USBx, uint8_t speed)
 515:Drivers/STM32F4xx_HAL_Driver/Src/stm32f4xx_ll_usb.c **** {
 516:Drivers/STM32F4xx_HAL_Driver/Src/stm32f4xx_ll_usb.c ****   uint32_t USBx_BASE = (uint32_t)USBx;
 517:Drivers/STM32F4xx_HAL_Driver/Src/stm32f4xx_ll_usb.c **** 
 518:Drivers/STM32F4xx_HAL_Driver/Src/stm32f4xx_ll_usb.c ****   USBx_DEVICE->DCFG |= speed;
 519:Drivers/STM32F4xx_HAL_Driver/Src/stm32f4xx_ll_usb.c ****   return HAL_OK;
 520:Drivers/STM32F4xx_HAL_Driver/Src/stm32f4xx_ll_usb.c **** }
 521:Drivers/STM32F4xx_HAL_Driver/Src/stm32f4xx_ll_usb.c **** 
 522:Drivers/STM32F4xx_HAL_Driver/Src/stm32f4xx_ll_usb.c **** /**
 523:Drivers/STM32F4xx_HAL_Driver/Src/stm32f4xx_ll_usb.c ****   * @brief  USB_GetDevSpeed  Return the Dev Speed
 524:Drivers/STM32F4xx_HAL_Driver/Src/stm32f4xx_ll_usb.c ****   * @param  USBx  Selected device
 525:Drivers/STM32F4xx_HAL_Driver/Src/stm32f4xx_ll_usb.c ****   * @retval speed  device speed
 526:Drivers/STM32F4xx_HAL_Driver/Src/stm32f4xx_ll_usb.c ****   *          This parameter can be one of these values:
 527:Drivers/STM32F4xx_HAL_Driver/Src/stm32f4xx_ll_usb.c ****   *            @arg PCD_SPEED_HIGH: High speed mode
 528:Drivers/STM32F4xx_HAL_Driver/Src/stm32f4xx_ll_usb.c ****   *            @arg PCD_SPEED_FULL: Full speed mode
 529:Drivers/STM32F4xx_HAL_Driver/Src/stm32f4xx_ll_usb.c ****   */
 530:Drivers/STM32F4xx_HAL_Driver/Src/stm32f4xx_ll_usb.c **** uint8_t USB_GetDevSpeed(USB_OTG_GlobalTypeDef *USBx)
 531:Drivers/STM32F4xx_HAL_Driver/Src/stm32f4xx_ll_usb.c **** {
 532:Drivers/STM32F4xx_HAL_Driver/Src/stm32f4xx_ll_usb.c ****   uint32_t USBx_BASE = (uint32_t)USBx;
 533:Drivers/STM32F4xx_HAL_Driver/Src/stm32f4xx_ll_usb.c ****   uint8_t speed;
 534:Drivers/STM32F4xx_HAL_Driver/Src/stm32f4xx_ll_usb.c ****   uint32_t DevEnumSpeed = USBx_DEVICE->DSTS & USB_OTG_DSTS_ENUMSPD;
 535:Drivers/STM32F4xx_HAL_Driver/Src/stm32f4xx_ll_usb.c **** 
 536:Drivers/STM32F4xx_HAL_Driver/Src/stm32f4xx_ll_usb.c ****   if (DevEnumSpeed == DSTS_ENUMSPD_HS_PHY_30MHZ_OR_60MHZ)
 537:Drivers/STM32F4xx_HAL_Driver/Src/stm32f4xx_ll_usb.c ****   {
 538:Drivers/STM32F4xx_HAL_Driver/Src/stm32f4xx_ll_usb.c ****     speed = USBD_HS_SPEED;
 539:Drivers/STM32F4xx_HAL_Driver/Src/stm32f4xx_ll_usb.c ****   }
 540:Drivers/STM32F4xx_HAL_Driver/Src/stm32f4xx_ll_usb.c ****   else if ((DevEnumSpeed == DSTS_ENUMSPD_FS_PHY_30MHZ_OR_60MHZ) ||
 541:Drivers/STM32F4xx_HAL_Driver/Src/stm32f4xx_ll_usb.c ****            (DevEnumSpeed == DSTS_ENUMSPD_FS_PHY_48MHZ))
 542:Drivers/STM32F4xx_HAL_Driver/Src/stm32f4xx_ll_usb.c ****   {
 543:Drivers/STM32F4xx_HAL_Driver/Src/stm32f4xx_ll_usb.c ****     speed = USBD_FS_SPEED;
ARM GAS  /tmp/ccrTWjYe.s 			page 11


 544:Drivers/STM32F4xx_HAL_Driver/Src/stm32f4xx_ll_usb.c ****   }
 545:Drivers/STM32F4xx_HAL_Driver/Src/stm32f4xx_ll_usb.c ****   else
 546:Drivers/STM32F4xx_HAL_Driver/Src/stm32f4xx_ll_usb.c ****   {
 547:Drivers/STM32F4xx_HAL_Driver/Src/stm32f4xx_ll_usb.c ****     speed = 0xFU;
 548:Drivers/STM32F4xx_HAL_Driver/Src/stm32f4xx_ll_usb.c ****   }
 549:Drivers/STM32F4xx_HAL_Driver/Src/stm32f4xx_ll_usb.c **** 
 550:Drivers/STM32F4xx_HAL_Driver/Src/stm32f4xx_ll_usb.c ****   return speed;
 551:Drivers/STM32F4xx_HAL_Driver/Src/stm32f4xx_ll_usb.c **** }
 552:Drivers/STM32F4xx_HAL_Driver/Src/stm32f4xx_ll_usb.c **** 
 553:Drivers/STM32F4xx_HAL_Driver/Src/stm32f4xx_ll_usb.c **** /**
 554:Drivers/STM32F4xx_HAL_Driver/Src/stm32f4xx_ll_usb.c ****   * @brief  Activate and configure an endpoint
 555:Drivers/STM32F4xx_HAL_Driver/Src/stm32f4xx_ll_usb.c ****   * @param  USBx  Selected device
 556:Drivers/STM32F4xx_HAL_Driver/Src/stm32f4xx_ll_usb.c ****   * @param  ep pointer to endpoint structure
 557:Drivers/STM32F4xx_HAL_Driver/Src/stm32f4xx_ll_usb.c ****   * @retval HAL status
 558:Drivers/STM32F4xx_HAL_Driver/Src/stm32f4xx_ll_usb.c ****   */
 559:Drivers/STM32F4xx_HAL_Driver/Src/stm32f4xx_ll_usb.c **** HAL_StatusTypeDef USB_ActivateEndpoint(USB_OTG_GlobalTypeDef *USBx, USB_OTG_EPTypeDef *ep)
 560:Drivers/STM32F4xx_HAL_Driver/Src/stm32f4xx_ll_usb.c **** {
 561:Drivers/STM32F4xx_HAL_Driver/Src/stm32f4xx_ll_usb.c ****   uint32_t USBx_BASE = (uint32_t)USBx;
 562:Drivers/STM32F4xx_HAL_Driver/Src/stm32f4xx_ll_usb.c ****   uint32_t epnum = (uint32_t)ep->num;
 563:Drivers/STM32F4xx_HAL_Driver/Src/stm32f4xx_ll_usb.c **** 
 564:Drivers/STM32F4xx_HAL_Driver/Src/stm32f4xx_ll_usb.c ****   if (ep->is_in == 1U)
 565:Drivers/STM32F4xx_HAL_Driver/Src/stm32f4xx_ll_usb.c ****   {
 566:Drivers/STM32F4xx_HAL_Driver/Src/stm32f4xx_ll_usb.c ****     USBx_DEVICE->DAINTMSK |= USB_OTG_DAINTMSK_IEPM & (uint32_t)(1UL << (ep->num & EP_ADDR_MSK));
 567:Drivers/STM32F4xx_HAL_Driver/Src/stm32f4xx_ll_usb.c **** 
 568:Drivers/STM32F4xx_HAL_Driver/Src/stm32f4xx_ll_usb.c ****     if ((USBx_INEP(epnum)->DIEPCTL & USB_OTG_DIEPCTL_USBAEP) == 0U)
 569:Drivers/STM32F4xx_HAL_Driver/Src/stm32f4xx_ll_usb.c ****     {
 570:Drivers/STM32F4xx_HAL_Driver/Src/stm32f4xx_ll_usb.c ****       USBx_INEP(epnum)->DIEPCTL |= (ep->maxpacket & USB_OTG_DIEPCTL_MPSIZ) |
 571:Drivers/STM32F4xx_HAL_Driver/Src/stm32f4xx_ll_usb.c ****                                    ((uint32_t)ep->type << 18) | (epnum << 22) |
 572:Drivers/STM32F4xx_HAL_Driver/Src/stm32f4xx_ll_usb.c ****                                    USB_OTG_DIEPCTL_SD0PID_SEVNFRM |
 573:Drivers/STM32F4xx_HAL_Driver/Src/stm32f4xx_ll_usb.c ****                                    USB_OTG_DIEPCTL_USBAEP;
 574:Drivers/STM32F4xx_HAL_Driver/Src/stm32f4xx_ll_usb.c ****     }
 575:Drivers/STM32F4xx_HAL_Driver/Src/stm32f4xx_ll_usb.c ****   }
 576:Drivers/STM32F4xx_HAL_Driver/Src/stm32f4xx_ll_usb.c ****   else
 577:Drivers/STM32F4xx_HAL_Driver/Src/stm32f4xx_ll_usb.c ****   {
 578:Drivers/STM32F4xx_HAL_Driver/Src/stm32f4xx_ll_usb.c ****     USBx_DEVICE->DAINTMSK |= USB_OTG_DAINTMSK_OEPM & ((uint32_t)(1UL << (ep->num & EP_ADDR_MSK)) <<
 579:Drivers/STM32F4xx_HAL_Driver/Src/stm32f4xx_ll_usb.c **** 
 580:Drivers/STM32F4xx_HAL_Driver/Src/stm32f4xx_ll_usb.c ****     if (((USBx_OUTEP(epnum)->DOEPCTL) & USB_OTG_DOEPCTL_USBAEP) == 0U)
 581:Drivers/STM32F4xx_HAL_Driver/Src/stm32f4xx_ll_usb.c ****     {
 582:Drivers/STM32F4xx_HAL_Driver/Src/stm32f4xx_ll_usb.c ****       USBx_OUTEP(epnum)->DOEPCTL |= (ep->maxpacket & USB_OTG_DOEPCTL_MPSIZ) |
 583:Drivers/STM32F4xx_HAL_Driver/Src/stm32f4xx_ll_usb.c ****                                     ((uint32_t)ep->type << 18) |
 584:Drivers/STM32F4xx_HAL_Driver/Src/stm32f4xx_ll_usb.c ****                                     USB_OTG_DIEPCTL_SD0PID_SEVNFRM |
 585:Drivers/STM32F4xx_HAL_Driver/Src/stm32f4xx_ll_usb.c ****                                     USB_OTG_DOEPCTL_USBAEP;
 586:Drivers/STM32F4xx_HAL_Driver/Src/stm32f4xx_ll_usb.c ****     }
 587:Drivers/STM32F4xx_HAL_Driver/Src/stm32f4xx_ll_usb.c ****   }
 588:Drivers/STM32F4xx_HAL_Driver/Src/stm32f4xx_ll_usb.c ****   return HAL_OK;
 589:Drivers/STM32F4xx_HAL_Driver/Src/stm32f4xx_ll_usb.c **** }
 590:Drivers/STM32F4xx_HAL_Driver/Src/stm32f4xx_ll_usb.c **** 
 591:Drivers/STM32F4xx_HAL_Driver/Src/stm32f4xx_ll_usb.c **** /**
 592:Drivers/STM32F4xx_HAL_Driver/Src/stm32f4xx_ll_usb.c ****   * @brief  Activate and configure a dedicated endpoint
 593:Drivers/STM32F4xx_HAL_Driver/Src/stm32f4xx_ll_usb.c ****   * @param  USBx  Selected device
 594:Drivers/STM32F4xx_HAL_Driver/Src/stm32f4xx_ll_usb.c ****   * @param  ep pointer to endpoint structure
 595:Drivers/STM32F4xx_HAL_Driver/Src/stm32f4xx_ll_usb.c ****   * @retval HAL status
 596:Drivers/STM32F4xx_HAL_Driver/Src/stm32f4xx_ll_usb.c ****   */
 597:Drivers/STM32F4xx_HAL_Driver/Src/stm32f4xx_ll_usb.c **** HAL_StatusTypeDef USB_ActivateDedicatedEndpoint(USB_OTG_GlobalTypeDef *USBx, USB_OTG_EPTypeDef *ep)
 598:Drivers/STM32F4xx_HAL_Driver/Src/stm32f4xx_ll_usb.c **** {
 599:Drivers/STM32F4xx_HAL_Driver/Src/stm32f4xx_ll_usb.c ****   uint32_t USBx_BASE = (uint32_t)USBx;
 600:Drivers/STM32F4xx_HAL_Driver/Src/stm32f4xx_ll_usb.c ****   uint32_t epnum = (uint32_t)ep->num;
ARM GAS  /tmp/ccrTWjYe.s 			page 12


 601:Drivers/STM32F4xx_HAL_Driver/Src/stm32f4xx_ll_usb.c **** 
 602:Drivers/STM32F4xx_HAL_Driver/Src/stm32f4xx_ll_usb.c ****   /* Read DEPCTLn register */
 603:Drivers/STM32F4xx_HAL_Driver/Src/stm32f4xx_ll_usb.c ****   if (ep->is_in == 1U)
 604:Drivers/STM32F4xx_HAL_Driver/Src/stm32f4xx_ll_usb.c ****   {
 605:Drivers/STM32F4xx_HAL_Driver/Src/stm32f4xx_ll_usb.c ****     if (((USBx_INEP(epnum)->DIEPCTL) & USB_OTG_DIEPCTL_USBAEP) == 0U)
 606:Drivers/STM32F4xx_HAL_Driver/Src/stm32f4xx_ll_usb.c ****     {
 607:Drivers/STM32F4xx_HAL_Driver/Src/stm32f4xx_ll_usb.c ****       USBx_INEP(epnum)->DIEPCTL |= (ep->maxpacket & USB_OTG_DIEPCTL_MPSIZ) |
 608:Drivers/STM32F4xx_HAL_Driver/Src/stm32f4xx_ll_usb.c ****                                    ((uint32_t)ep->type << 18) | (epnum << 22) |
 609:Drivers/STM32F4xx_HAL_Driver/Src/stm32f4xx_ll_usb.c ****                                    USB_OTG_DIEPCTL_SD0PID_SEVNFRM |
 610:Drivers/STM32F4xx_HAL_Driver/Src/stm32f4xx_ll_usb.c ****                                    USB_OTG_DIEPCTL_USBAEP;
 611:Drivers/STM32F4xx_HAL_Driver/Src/stm32f4xx_ll_usb.c ****     }
 612:Drivers/STM32F4xx_HAL_Driver/Src/stm32f4xx_ll_usb.c **** 
 613:Drivers/STM32F4xx_HAL_Driver/Src/stm32f4xx_ll_usb.c ****     USBx_DEVICE->DEACHMSK |= USB_OTG_DAINTMSK_IEPM & (uint32_t)(1UL << (ep->num & EP_ADDR_MSK));
 614:Drivers/STM32F4xx_HAL_Driver/Src/stm32f4xx_ll_usb.c ****   }
 615:Drivers/STM32F4xx_HAL_Driver/Src/stm32f4xx_ll_usb.c ****   else
 616:Drivers/STM32F4xx_HAL_Driver/Src/stm32f4xx_ll_usb.c ****   {
 617:Drivers/STM32F4xx_HAL_Driver/Src/stm32f4xx_ll_usb.c ****     if (((USBx_OUTEP(epnum)->DOEPCTL) & USB_OTG_DOEPCTL_USBAEP) == 0U)
 618:Drivers/STM32F4xx_HAL_Driver/Src/stm32f4xx_ll_usb.c ****     {
 619:Drivers/STM32F4xx_HAL_Driver/Src/stm32f4xx_ll_usb.c ****       USBx_OUTEP(epnum)->DOEPCTL |= (ep->maxpacket & USB_OTG_DOEPCTL_MPSIZ) |
 620:Drivers/STM32F4xx_HAL_Driver/Src/stm32f4xx_ll_usb.c ****                                     ((uint32_t)ep->type << 18) | (epnum << 22) |
 621:Drivers/STM32F4xx_HAL_Driver/Src/stm32f4xx_ll_usb.c ****                                     USB_OTG_DOEPCTL_USBAEP;
 622:Drivers/STM32F4xx_HAL_Driver/Src/stm32f4xx_ll_usb.c ****     }
 623:Drivers/STM32F4xx_HAL_Driver/Src/stm32f4xx_ll_usb.c **** 
 624:Drivers/STM32F4xx_HAL_Driver/Src/stm32f4xx_ll_usb.c ****     USBx_DEVICE->DEACHMSK |= USB_OTG_DAINTMSK_OEPM & ((uint32_t)(1UL << (ep->num & EP_ADDR_MSK)) <<
 625:Drivers/STM32F4xx_HAL_Driver/Src/stm32f4xx_ll_usb.c ****   }
 626:Drivers/STM32F4xx_HAL_Driver/Src/stm32f4xx_ll_usb.c **** 
 627:Drivers/STM32F4xx_HAL_Driver/Src/stm32f4xx_ll_usb.c ****   return HAL_OK;
 628:Drivers/STM32F4xx_HAL_Driver/Src/stm32f4xx_ll_usb.c **** }
 629:Drivers/STM32F4xx_HAL_Driver/Src/stm32f4xx_ll_usb.c **** 
 630:Drivers/STM32F4xx_HAL_Driver/Src/stm32f4xx_ll_usb.c **** /**
 631:Drivers/STM32F4xx_HAL_Driver/Src/stm32f4xx_ll_usb.c ****   * @brief  De-activate and de-initialize an endpoint
 632:Drivers/STM32F4xx_HAL_Driver/Src/stm32f4xx_ll_usb.c ****   * @param  USBx  Selected device
 633:Drivers/STM32F4xx_HAL_Driver/Src/stm32f4xx_ll_usb.c ****   * @param  ep pointer to endpoint structure
 634:Drivers/STM32F4xx_HAL_Driver/Src/stm32f4xx_ll_usb.c ****   * @retval HAL status
 635:Drivers/STM32F4xx_HAL_Driver/Src/stm32f4xx_ll_usb.c ****   */
 636:Drivers/STM32F4xx_HAL_Driver/Src/stm32f4xx_ll_usb.c **** HAL_StatusTypeDef USB_DeactivateEndpoint(USB_OTG_GlobalTypeDef *USBx, USB_OTG_EPTypeDef *ep)
 637:Drivers/STM32F4xx_HAL_Driver/Src/stm32f4xx_ll_usb.c **** {
 638:Drivers/STM32F4xx_HAL_Driver/Src/stm32f4xx_ll_usb.c ****   uint32_t USBx_BASE = (uint32_t)USBx;
 639:Drivers/STM32F4xx_HAL_Driver/Src/stm32f4xx_ll_usb.c ****   uint32_t epnum = (uint32_t)ep->num;
 640:Drivers/STM32F4xx_HAL_Driver/Src/stm32f4xx_ll_usb.c **** 
 641:Drivers/STM32F4xx_HAL_Driver/Src/stm32f4xx_ll_usb.c ****   /* Read DEPCTLn register */
 642:Drivers/STM32F4xx_HAL_Driver/Src/stm32f4xx_ll_usb.c ****   if (ep->is_in == 1U)
 643:Drivers/STM32F4xx_HAL_Driver/Src/stm32f4xx_ll_usb.c ****   {
 644:Drivers/STM32F4xx_HAL_Driver/Src/stm32f4xx_ll_usb.c ****     USBx_DEVICE->DEACHMSK &= ~(USB_OTG_DAINTMSK_IEPM & (uint32_t)(1UL << (ep->num & EP_ADDR_MSK)));
 645:Drivers/STM32F4xx_HAL_Driver/Src/stm32f4xx_ll_usb.c ****     USBx_DEVICE->DAINTMSK &= ~(USB_OTG_DAINTMSK_IEPM & (uint32_t)(1UL << (ep->num & EP_ADDR_MSK)));
 646:Drivers/STM32F4xx_HAL_Driver/Src/stm32f4xx_ll_usb.c ****     USBx_INEP(epnum)->DIEPCTL &= ~(USB_OTG_DIEPCTL_USBAEP |
 647:Drivers/STM32F4xx_HAL_Driver/Src/stm32f4xx_ll_usb.c ****                                    USB_OTG_DIEPCTL_MPSIZ |
 648:Drivers/STM32F4xx_HAL_Driver/Src/stm32f4xx_ll_usb.c ****                                    USB_OTG_DIEPCTL_TXFNUM |
 649:Drivers/STM32F4xx_HAL_Driver/Src/stm32f4xx_ll_usb.c ****                                    USB_OTG_DIEPCTL_SD0PID_SEVNFRM |
 650:Drivers/STM32F4xx_HAL_Driver/Src/stm32f4xx_ll_usb.c ****                                    USB_OTG_DIEPCTL_EPTYP);
 651:Drivers/STM32F4xx_HAL_Driver/Src/stm32f4xx_ll_usb.c ****   }
 652:Drivers/STM32F4xx_HAL_Driver/Src/stm32f4xx_ll_usb.c ****   else
 653:Drivers/STM32F4xx_HAL_Driver/Src/stm32f4xx_ll_usb.c ****   {
 654:Drivers/STM32F4xx_HAL_Driver/Src/stm32f4xx_ll_usb.c ****     USBx_DEVICE->DEACHMSK &= ~(USB_OTG_DAINTMSK_OEPM & ((uint32_t)(1UL << (ep->num & EP_ADDR_MSK)) 
 655:Drivers/STM32F4xx_HAL_Driver/Src/stm32f4xx_ll_usb.c ****     USBx_DEVICE->DAINTMSK &= ~(USB_OTG_DAINTMSK_OEPM & ((uint32_t)(1UL << (ep->num & EP_ADDR_MSK)) 
 656:Drivers/STM32F4xx_HAL_Driver/Src/stm32f4xx_ll_usb.c ****     USBx_OUTEP(epnum)->DOEPCTL &= ~(USB_OTG_DOEPCTL_USBAEP |
 657:Drivers/STM32F4xx_HAL_Driver/Src/stm32f4xx_ll_usb.c ****                                     USB_OTG_DOEPCTL_MPSIZ |
ARM GAS  /tmp/ccrTWjYe.s 			page 13


 658:Drivers/STM32F4xx_HAL_Driver/Src/stm32f4xx_ll_usb.c ****                                     USB_OTG_DOEPCTL_SD0PID_SEVNFRM |
 659:Drivers/STM32F4xx_HAL_Driver/Src/stm32f4xx_ll_usb.c ****                                     USB_OTG_DOEPCTL_EPTYP);
 660:Drivers/STM32F4xx_HAL_Driver/Src/stm32f4xx_ll_usb.c ****   }
 661:Drivers/STM32F4xx_HAL_Driver/Src/stm32f4xx_ll_usb.c **** 
 662:Drivers/STM32F4xx_HAL_Driver/Src/stm32f4xx_ll_usb.c ****   return HAL_OK;
 663:Drivers/STM32F4xx_HAL_Driver/Src/stm32f4xx_ll_usb.c **** }
 664:Drivers/STM32F4xx_HAL_Driver/Src/stm32f4xx_ll_usb.c **** 
 665:Drivers/STM32F4xx_HAL_Driver/Src/stm32f4xx_ll_usb.c **** /**
 666:Drivers/STM32F4xx_HAL_Driver/Src/stm32f4xx_ll_usb.c ****   * @brief  De-activate and de-initialize a dedicated endpoint
 667:Drivers/STM32F4xx_HAL_Driver/Src/stm32f4xx_ll_usb.c ****   * @param  USBx  Selected device
 668:Drivers/STM32F4xx_HAL_Driver/Src/stm32f4xx_ll_usb.c ****   * @param  ep pointer to endpoint structure
 669:Drivers/STM32F4xx_HAL_Driver/Src/stm32f4xx_ll_usb.c ****   * @retval HAL status
 670:Drivers/STM32F4xx_HAL_Driver/Src/stm32f4xx_ll_usb.c ****   */
 671:Drivers/STM32F4xx_HAL_Driver/Src/stm32f4xx_ll_usb.c **** HAL_StatusTypeDef USB_DeactivateDedicatedEndpoint(USB_OTG_GlobalTypeDef *USBx, USB_OTG_EPTypeDef *e
 672:Drivers/STM32F4xx_HAL_Driver/Src/stm32f4xx_ll_usb.c **** {
 673:Drivers/STM32F4xx_HAL_Driver/Src/stm32f4xx_ll_usb.c ****   uint32_t USBx_BASE = (uint32_t)USBx;
 674:Drivers/STM32F4xx_HAL_Driver/Src/stm32f4xx_ll_usb.c ****   uint32_t epnum = (uint32_t)ep->num;
 675:Drivers/STM32F4xx_HAL_Driver/Src/stm32f4xx_ll_usb.c **** 
 676:Drivers/STM32F4xx_HAL_Driver/Src/stm32f4xx_ll_usb.c ****   /* Read DEPCTLn register */
 677:Drivers/STM32F4xx_HAL_Driver/Src/stm32f4xx_ll_usb.c ****   if (ep->is_in == 1U)
 678:Drivers/STM32F4xx_HAL_Driver/Src/stm32f4xx_ll_usb.c ****   {
 679:Drivers/STM32F4xx_HAL_Driver/Src/stm32f4xx_ll_usb.c ****     USBx_INEP(epnum)->DIEPCTL &= ~ USB_OTG_DIEPCTL_USBAEP;
 680:Drivers/STM32F4xx_HAL_Driver/Src/stm32f4xx_ll_usb.c ****     USBx_DEVICE->DAINTMSK &= ~(USB_OTG_DAINTMSK_IEPM & (uint32_t)(1UL << (ep->num & EP_ADDR_MSK)));
 681:Drivers/STM32F4xx_HAL_Driver/Src/stm32f4xx_ll_usb.c ****   }
 682:Drivers/STM32F4xx_HAL_Driver/Src/stm32f4xx_ll_usb.c ****   else
 683:Drivers/STM32F4xx_HAL_Driver/Src/stm32f4xx_ll_usb.c ****   {
 684:Drivers/STM32F4xx_HAL_Driver/Src/stm32f4xx_ll_usb.c ****     USBx_OUTEP(epnum)->DOEPCTL &= ~USB_OTG_DOEPCTL_USBAEP;
 685:Drivers/STM32F4xx_HAL_Driver/Src/stm32f4xx_ll_usb.c ****     USBx_DEVICE->DAINTMSK &= ~(USB_OTG_DAINTMSK_OEPM & ((uint32_t)(1UL << (ep->num & EP_ADDR_MSK)) 
 686:Drivers/STM32F4xx_HAL_Driver/Src/stm32f4xx_ll_usb.c ****   }
 687:Drivers/STM32F4xx_HAL_Driver/Src/stm32f4xx_ll_usb.c **** 
 688:Drivers/STM32F4xx_HAL_Driver/Src/stm32f4xx_ll_usb.c ****   return HAL_OK;
 689:Drivers/STM32F4xx_HAL_Driver/Src/stm32f4xx_ll_usb.c **** }
 690:Drivers/STM32F4xx_HAL_Driver/Src/stm32f4xx_ll_usb.c **** 
 691:Drivers/STM32F4xx_HAL_Driver/Src/stm32f4xx_ll_usb.c **** /**
 692:Drivers/STM32F4xx_HAL_Driver/Src/stm32f4xx_ll_usb.c ****   * @brief  USB_EPStartXfer : setup and starts a transfer over an EP
 693:Drivers/STM32F4xx_HAL_Driver/Src/stm32f4xx_ll_usb.c ****   * @param  USBx  Selected device
 694:Drivers/STM32F4xx_HAL_Driver/Src/stm32f4xx_ll_usb.c ****   * @param  ep pointer to endpoint structure
 695:Drivers/STM32F4xx_HAL_Driver/Src/stm32f4xx_ll_usb.c ****   * @param  dma USB dma enabled or disabled
 696:Drivers/STM32F4xx_HAL_Driver/Src/stm32f4xx_ll_usb.c ****   *          This parameter can be one of these values:
 697:Drivers/STM32F4xx_HAL_Driver/Src/stm32f4xx_ll_usb.c ****   *           0 : DMA feature not used
 698:Drivers/STM32F4xx_HAL_Driver/Src/stm32f4xx_ll_usb.c ****   *           1 : DMA feature used
 699:Drivers/STM32F4xx_HAL_Driver/Src/stm32f4xx_ll_usb.c ****   * @retval HAL status
 700:Drivers/STM32F4xx_HAL_Driver/Src/stm32f4xx_ll_usb.c ****   */
 701:Drivers/STM32F4xx_HAL_Driver/Src/stm32f4xx_ll_usb.c **** HAL_StatusTypeDef USB_EPStartXfer(USB_OTG_GlobalTypeDef *USBx, USB_OTG_EPTypeDef *ep, uint8_t dma)
 702:Drivers/STM32F4xx_HAL_Driver/Src/stm32f4xx_ll_usb.c **** {
 703:Drivers/STM32F4xx_HAL_Driver/Src/stm32f4xx_ll_usb.c ****   uint32_t USBx_BASE = (uint32_t)USBx;
 704:Drivers/STM32F4xx_HAL_Driver/Src/stm32f4xx_ll_usb.c ****   uint32_t epnum = (uint32_t)ep->num;
 705:Drivers/STM32F4xx_HAL_Driver/Src/stm32f4xx_ll_usb.c ****   uint16_t pktcnt;
 706:Drivers/STM32F4xx_HAL_Driver/Src/stm32f4xx_ll_usb.c **** 
 707:Drivers/STM32F4xx_HAL_Driver/Src/stm32f4xx_ll_usb.c ****   /* IN endpoint */
 708:Drivers/STM32F4xx_HAL_Driver/Src/stm32f4xx_ll_usb.c ****   if (ep->is_in == 1U)
 709:Drivers/STM32F4xx_HAL_Driver/Src/stm32f4xx_ll_usb.c ****   {
 710:Drivers/STM32F4xx_HAL_Driver/Src/stm32f4xx_ll_usb.c ****     /* Zero Length Packet? */
 711:Drivers/STM32F4xx_HAL_Driver/Src/stm32f4xx_ll_usb.c ****     if (ep->xfer_len == 0U)
 712:Drivers/STM32F4xx_HAL_Driver/Src/stm32f4xx_ll_usb.c ****     {
 713:Drivers/STM32F4xx_HAL_Driver/Src/stm32f4xx_ll_usb.c ****       USBx_INEP(epnum)->DIEPTSIZ &= ~(USB_OTG_DIEPTSIZ_PKTCNT);
 714:Drivers/STM32F4xx_HAL_Driver/Src/stm32f4xx_ll_usb.c ****       USBx_INEP(epnum)->DIEPTSIZ |= (USB_OTG_DIEPTSIZ_PKTCNT & (1U << 19));
ARM GAS  /tmp/ccrTWjYe.s 			page 14


 715:Drivers/STM32F4xx_HAL_Driver/Src/stm32f4xx_ll_usb.c ****       USBx_INEP(epnum)->DIEPTSIZ &= ~(USB_OTG_DIEPTSIZ_XFRSIZ);
 716:Drivers/STM32F4xx_HAL_Driver/Src/stm32f4xx_ll_usb.c ****     }
 717:Drivers/STM32F4xx_HAL_Driver/Src/stm32f4xx_ll_usb.c ****     else
 718:Drivers/STM32F4xx_HAL_Driver/Src/stm32f4xx_ll_usb.c ****     {
 719:Drivers/STM32F4xx_HAL_Driver/Src/stm32f4xx_ll_usb.c ****       /* Program the transfer size and packet count
 720:Drivers/STM32F4xx_HAL_Driver/Src/stm32f4xx_ll_usb.c ****       * as follows: xfersize = N * maxpacket +
 721:Drivers/STM32F4xx_HAL_Driver/Src/stm32f4xx_ll_usb.c ****       * short_packet pktcnt = N + (short_packet
 722:Drivers/STM32F4xx_HAL_Driver/Src/stm32f4xx_ll_usb.c ****       * exist ? 1 : 0)
 723:Drivers/STM32F4xx_HAL_Driver/Src/stm32f4xx_ll_usb.c ****       */
 724:Drivers/STM32F4xx_HAL_Driver/Src/stm32f4xx_ll_usb.c ****       USBx_INEP(epnum)->DIEPTSIZ &= ~(USB_OTG_DIEPTSIZ_XFRSIZ);
 725:Drivers/STM32F4xx_HAL_Driver/Src/stm32f4xx_ll_usb.c ****       USBx_INEP(epnum)->DIEPTSIZ &= ~(USB_OTG_DIEPTSIZ_PKTCNT);
 726:Drivers/STM32F4xx_HAL_Driver/Src/stm32f4xx_ll_usb.c ****       USBx_INEP(epnum)->DIEPTSIZ |= (USB_OTG_DIEPTSIZ_PKTCNT & (((ep->xfer_len + ep->maxpacket - 1U
 727:Drivers/STM32F4xx_HAL_Driver/Src/stm32f4xx_ll_usb.c ****       USBx_INEP(epnum)->DIEPTSIZ |= (USB_OTG_DIEPTSIZ_XFRSIZ & ep->xfer_len);
 728:Drivers/STM32F4xx_HAL_Driver/Src/stm32f4xx_ll_usb.c **** 
 729:Drivers/STM32F4xx_HAL_Driver/Src/stm32f4xx_ll_usb.c ****       if (ep->type == EP_TYPE_ISOC)
 730:Drivers/STM32F4xx_HAL_Driver/Src/stm32f4xx_ll_usb.c ****       {
 731:Drivers/STM32F4xx_HAL_Driver/Src/stm32f4xx_ll_usb.c ****         USBx_INEP(epnum)->DIEPTSIZ &= ~(USB_OTG_DIEPTSIZ_MULCNT);
 732:Drivers/STM32F4xx_HAL_Driver/Src/stm32f4xx_ll_usb.c ****         USBx_INEP(epnum)->DIEPTSIZ |= (USB_OTG_DIEPTSIZ_MULCNT & (1U << 29));
 733:Drivers/STM32F4xx_HAL_Driver/Src/stm32f4xx_ll_usb.c ****       }
 734:Drivers/STM32F4xx_HAL_Driver/Src/stm32f4xx_ll_usb.c ****     }
 735:Drivers/STM32F4xx_HAL_Driver/Src/stm32f4xx_ll_usb.c **** 
 736:Drivers/STM32F4xx_HAL_Driver/Src/stm32f4xx_ll_usb.c ****     if (dma == 1U)
 737:Drivers/STM32F4xx_HAL_Driver/Src/stm32f4xx_ll_usb.c ****     {
 738:Drivers/STM32F4xx_HAL_Driver/Src/stm32f4xx_ll_usb.c ****       if ((uint32_t)ep->dma_addr != 0U)
 739:Drivers/STM32F4xx_HAL_Driver/Src/stm32f4xx_ll_usb.c ****       {
 740:Drivers/STM32F4xx_HAL_Driver/Src/stm32f4xx_ll_usb.c ****         USBx_INEP(epnum)->DIEPDMA = (uint32_t)(ep->dma_addr);
 741:Drivers/STM32F4xx_HAL_Driver/Src/stm32f4xx_ll_usb.c ****       }
 742:Drivers/STM32F4xx_HAL_Driver/Src/stm32f4xx_ll_usb.c **** 
 743:Drivers/STM32F4xx_HAL_Driver/Src/stm32f4xx_ll_usb.c ****       if (ep->type == EP_TYPE_ISOC)
 744:Drivers/STM32F4xx_HAL_Driver/Src/stm32f4xx_ll_usb.c ****       {
 745:Drivers/STM32F4xx_HAL_Driver/Src/stm32f4xx_ll_usb.c ****         if ((USBx_DEVICE->DSTS & (1U << 8)) == 0U)
 746:Drivers/STM32F4xx_HAL_Driver/Src/stm32f4xx_ll_usb.c ****         {
 747:Drivers/STM32F4xx_HAL_Driver/Src/stm32f4xx_ll_usb.c ****           USBx_INEP(epnum)->DIEPCTL |= USB_OTG_DIEPCTL_SODDFRM;
 748:Drivers/STM32F4xx_HAL_Driver/Src/stm32f4xx_ll_usb.c ****         }
 749:Drivers/STM32F4xx_HAL_Driver/Src/stm32f4xx_ll_usb.c ****         else
 750:Drivers/STM32F4xx_HAL_Driver/Src/stm32f4xx_ll_usb.c ****         {
 751:Drivers/STM32F4xx_HAL_Driver/Src/stm32f4xx_ll_usb.c ****           USBx_INEP(epnum)->DIEPCTL |= USB_OTG_DIEPCTL_SD0PID_SEVNFRM;
 752:Drivers/STM32F4xx_HAL_Driver/Src/stm32f4xx_ll_usb.c ****         }
 753:Drivers/STM32F4xx_HAL_Driver/Src/stm32f4xx_ll_usb.c ****       }
 754:Drivers/STM32F4xx_HAL_Driver/Src/stm32f4xx_ll_usb.c **** 
 755:Drivers/STM32F4xx_HAL_Driver/Src/stm32f4xx_ll_usb.c ****       /* EP enable, IN data in FIFO */
 756:Drivers/STM32F4xx_HAL_Driver/Src/stm32f4xx_ll_usb.c ****       USBx_INEP(epnum)->DIEPCTL |= (USB_OTG_DIEPCTL_CNAK | USB_OTG_DIEPCTL_EPENA);
 757:Drivers/STM32F4xx_HAL_Driver/Src/stm32f4xx_ll_usb.c ****     }
 758:Drivers/STM32F4xx_HAL_Driver/Src/stm32f4xx_ll_usb.c ****     else
 759:Drivers/STM32F4xx_HAL_Driver/Src/stm32f4xx_ll_usb.c ****     {
 760:Drivers/STM32F4xx_HAL_Driver/Src/stm32f4xx_ll_usb.c ****       /* EP enable, IN data in FIFO */
 761:Drivers/STM32F4xx_HAL_Driver/Src/stm32f4xx_ll_usb.c ****       USBx_INEP(epnum)->DIEPCTL |= (USB_OTG_DIEPCTL_CNAK | USB_OTG_DIEPCTL_EPENA);
 762:Drivers/STM32F4xx_HAL_Driver/Src/stm32f4xx_ll_usb.c **** 
 763:Drivers/STM32F4xx_HAL_Driver/Src/stm32f4xx_ll_usb.c ****       if (ep->type != EP_TYPE_ISOC)
 764:Drivers/STM32F4xx_HAL_Driver/Src/stm32f4xx_ll_usb.c ****       {
 765:Drivers/STM32F4xx_HAL_Driver/Src/stm32f4xx_ll_usb.c ****         /* Enable the Tx FIFO Empty Interrupt for this EP */
 766:Drivers/STM32F4xx_HAL_Driver/Src/stm32f4xx_ll_usb.c ****         if (ep->xfer_len > 0U)
 767:Drivers/STM32F4xx_HAL_Driver/Src/stm32f4xx_ll_usb.c ****         {
 768:Drivers/STM32F4xx_HAL_Driver/Src/stm32f4xx_ll_usb.c ****           USBx_DEVICE->DIEPEMPMSK |= 1UL << (ep->num & EP_ADDR_MSK);
 769:Drivers/STM32F4xx_HAL_Driver/Src/stm32f4xx_ll_usb.c ****         }
 770:Drivers/STM32F4xx_HAL_Driver/Src/stm32f4xx_ll_usb.c ****       }
 771:Drivers/STM32F4xx_HAL_Driver/Src/stm32f4xx_ll_usb.c ****       else
ARM GAS  /tmp/ccrTWjYe.s 			page 15


 772:Drivers/STM32F4xx_HAL_Driver/Src/stm32f4xx_ll_usb.c ****       {
 773:Drivers/STM32F4xx_HAL_Driver/Src/stm32f4xx_ll_usb.c ****         if ((USBx_DEVICE->DSTS & (1U << 8)) == 0U)
 774:Drivers/STM32F4xx_HAL_Driver/Src/stm32f4xx_ll_usb.c ****         {
 775:Drivers/STM32F4xx_HAL_Driver/Src/stm32f4xx_ll_usb.c ****           USBx_INEP(epnum)->DIEPCTL |= USB_OTG_DIEPCTL_SODDFRM;
 776:Drivers/STM32F4xx_HAL_Driver/Src/stm32f4xx_ll_usb.c ****         }
 777:Drivers/STM32F4xx_HAL_Driver/Src/stm32f4xx_ll_usb.c ****         else
 778:Drivers/STM32F4xx_HAL_Driver/Src/stm32f4xx_ll_usb.c ****         {
 779:Drivers/STM32F4xx_HAL_Driver/Src/stm32f4xx_ll_usb.c ****           USBx_INEP(epnum)->DIEPCTL |= USB_OTG_DIEPCTL_SD0PID_SEVNFRM;
 780:Drivers/STM32F4xx_HAL_Driver/Src/stm32f4xx_ll_usb.c ****         }
 781:Drivers/STM32F4xx_HAL_Driver/Src/stm32f4xx_ll_usb.c **** 
 782:Drivers/STM32F4xx_HAL_Driver/Src/stm32f4xx_ll_usb.c ****         (void)USB_WritePacket(USBx, ep->xfer_buff, ep->num, (uint16_t)ep->xfer_len, dma);
 783:Drivers/STM32F4xx_HAL_Driver/Src/stm32f4xx_ll_usb.c ****       }
 784:Drivers/STM32F4xx_HAL_Driver/Src/stm32f4xx_ll_usb.c ****     }
 785:Drivers/STM32F4xx_HAL_Driver/Src/stm32f4xx_ll_usb.c ****   }
 786:Drivers/STM32F4xx_HAL_Driver/Src/stm32f4xx_ll_usb.c ****   else /* OUT endpoint */
 787:Drivers/STM32F4xx_HAL_Driver/Src/stm32f4xx_ll_usb.c ****   {
 788:Drivers/STM32F4xx_HAL_Driver/Src/stm32f4xx_ll_usb.c ****     /* Program the transfer size and packet count as follows:
 789:Drivers/STM32F4xx_HAL_Driver/Src/stm32f4xx_ll_usb.c ****     * pktcnt = N
 790:Drivers/STM32F4xx_HAL_Driver/Src/stm32f4xx_ll_usb.c ****     * xfersize = N * maxpacket
 791:Drivers/STM32F4xx_HAL_Driver/Src/stm32f4xx_ll_usb.c ****     */
 792:Drivers/STM32F4xx_HAL_Driver/Src/stm32f4xx_ll_usb.c ****     USBx_OUTEP(epnum)->DOEPTSIZ &= ~(USB_OTG_DOEPTSIZ_XFRSIZ);
 793:Drivers/STM32F4xx_HAL_Driver/Src/stm32f4xx_ll_usb.c ****     USBx_OUTEP(epnum)->DOEPTSIZ &= ~(USB_OTG_DOEPTSIZ_PKTCNT);
 794:Drivers/STM32F4xx_HAL_Driver/Src/stm32f4xx_ll_usb.c **** 
 795:Drivers/STM32F4xx_HAL_Driver/Src/stm32f4xx_ll_usb.c ****     if (ep->xfer_len == 0U)
 796:Drivers/STM32F4xx_HAL_Driver/Src/stm32f4xx_ll_usb.c ****     {
 797:Drivers/STM32F4xx_HAL_Driver/Src/stm32f4xx_ll_usb.c ****       USBx_OUTEP(epnum)->DOEPTSIZ |= (USB_OTG_DOEPTSIZ_XFRSIZ & ep->maxpacket);
 798:Drivers/STM32F4xx_HAL_Driver/Src/stm32f4xx_ll_usb.c ****       USBx_OUTEP(epnum)->DOEPTSIZ |= (USB_OTG_DOEPTSIZ_PKTCNT & (1U << 19));
 799:Drivers/STM32F4xx_HAL_Driver/Src/stm32f4xx_ll_usb.c ****     }
 800:Drivers/STM32F4xx_HAL_Driver/Src/stm32f4xx_ll_usb.c ****     else
 801:Drivers/STM32F4xx_HAL_Driver/Src/stm32f4xx_ll_usb.c ****     {
 802:Drivers/STM32F4xx_HAL_Driver/Src/stm32f4xx_ll_usb.c ****       pktcnt = (uint16_t)((ep->xfer_len + ep->maxpacket - 1U) / ep->maxpacket);
 803:Drivers/STM32F4xx_HAL_Driver/Src/stm32f4xx_ll_usb.c ****       USBx_OUTEP(epnum)->DOEPTSIZ |= USB_OTG_DOEPTSIZ_PKTCNT & ((uint32_t)pktcnt << 19);
 804:Drivers/STM32F4xx_HAL_Driver/Src/stm32f4xx_ll_usb.c ****       USBx_OUTEP(epnum)->DOEPTSIZ |= USB_OTG_DOEPTSIZ_XFRSIZ & (ep->maxpacket * pktcnt);
 805:Drivers/STM32F4xx_HAL_Driver/Src/stm32f4xx_ll_usb.c ****     }
 806:Drivers/STM32F4xx_HAL_Driver/Src/stm32f4xx_ll_usb.c **** 
 807:Drivers/STM32F4xx_HAL_Driver/Src/stm32f4xx_ll_usb.c ****     if (dma == 1U)
 808:Drivers/STM32F4xx_HAL_Driver/Src/stm32f4xx_ll_usb.c ****     {
 809:Drivers/STM32F4xx_HAL_Driver/Src/stm32f4xx_ll_usb.c ****       if ((uint32_t)ep->xfer_buff != 0U)
 810:Drivers/STM32F4xx_HAL_Driver/Src/stm32f4xx_ll_usb.c ****       {
 811:Drivers/STM32F4xx_HAL_Driver/Src/stm32f4xx_ll_usb.c ****         USBx_OUTEP(epnum)->DOEPDMA = (uint32_t)(ep->xfer_buff);
 812:Drivers/STM32F4xx_HAL_Driver/Src/stm32f4xx_ll_usb.c ****       }
 813:Drivers/STM32F4xx_HAL_Driver/Src/stm32f4xx_ll_usb.c ****     }
 814:Drivers/STM32F4xx_HAL_Driver/Src/stm32f4xx_ll_usb.c **** 
 815:Drivers/STM32F4xx_HAL_Driver/Src/stm32f4xx_ll_usb.c ****     if (ep->type == EP_TYPE_ISOC)
 816:Drivers/STM32F4xx_HAL_Driver/Src/stm32f4xx_ll_usb.c ****     {
 817:Drivers/STM32F4xx_HAL_Driver/Src/stm32f4xx_ll_usb.c ****       if ((USBx_DEVICE->DSTS & (1U << 8)) == 0U)
 818:Drivers/STM32F4xx_HAL_Driver/Src/stm32f4xx_ll_usb.c ****       {
 819:Drivers/STM32F4xx_HAL_Driver/Src/stm32f4xx_ll_usb.c ****         USBx_OUTEP(epnum)->DOEPCTL |= USB_OTG_DOEPCTL_SODDFRM;
 820:Drivers/STM32F4xx_HAL_Driver/Src/stm32f4xx_ll_usb.c ****       }
 821:Drivers/STM32F4xx_HAL_Driver/Src/stm32f4xx_ll_usb.c ****       else
 822:Drivers/STM32F4xx_HAL_Driver/Src/stm32f4xx_ll_usb.c ****       {
 823:Drivers/STM32F4xx_HAL_Driver/Src/stm32f4xx_ll_usb.c ****         USBx_OUTEP(epnum)->DOEPCTL |= USB_OTG_DOEPCTL_SD0PID_SEVNFRM;
 824:Drivers/STM32F4xx_HAL_Driver/Src/stm32f4xx_ll_usb.c ****       }
 825:Drivers/STM32F4xx_HAL_Driver/Src/stm32f4xx_ll_usb.c ****     }
 826:Drivers/STM32F4xx_HAL_Driver/Src/stm32f4xx_ll_usb.c ****     /* EP enable */
 827:Drivers/STM32F4xx_HAL_Driver/Src/stm32f4xx_ll_usb.c ****     USBx_OUTEP(epnum)->DOEPCTL |= (USB_OTG_DOEPCTL_CNAK | USB_OTG_DOEPCTL_EPENA);
 828:Drivers/STM32F4xx_HAL_Driver/Src/stm32f4xx_ll_usb.c ****   }
ARM GAS  /tmp/ccrTWjYe.s 			page 16


 829:Drivers/STM32F4xx_HAL_Driver/Src/stm32f4xx_ll_usb.c **** 
 830:Drivers/STM32F4xx_HAL_Driver/Src/stm32f4xx_ll_usb.c ****   return HAL_OK;
 831:Drivers/STM32F4xx_HAL_Driver/Src/stm32f4xx_ll_usb.c **** }
 832:Drivers/STM32F4xx_HAL_Driver/Src/stm32f4xx_ll_usb.c **** 
 833:Drivers/STM32F4xx_HAL_Driver/Src/stm32f4xx_ll_usb.c **** /**
 834:Drivers/STM32F4xx_HAL_Driver/Src/stm32f4xx_ll_usb.c ****   * @brief  USB_EP0StartXfer : setup and starts a transfer over the EP  0
 835:Drivers/STM32F4xx_HAL_Driver/Src/stm32f4xx_ll_usb.c ****   * @param  USBx  Selected device
 836:Drivers/STM32F4xx_HAL_Driver/Src/stm32f4xx_ll_usb.c ****   * @param  ep pointer to endpoint structure
 837:Drivers/STM32F4xx_HAL_Driver/Src/stm32f4xx_ll_usb.c ****   * @param  dma USB dma enabled or disabled
 838:Drivers/STM32F4xx_HAL_Driver/Src/stm32f4xx_ll_usb.c ****   *          This parameter can be one of these values:
 839:Drivers/STM32F4xx_HAL_Driver/Src/stm32f4xx_ll_usb.c ****   *           0 : DMA feature not used
 840:Drivers/STM32F4xx_HAL_Driver/Src/stm32f4xx_ll_usb.c ****   *           1 : DMA feature used
 841:Drivers/STM32F4xx_HAL_Driver/Src/stm32f4xx_ll_usb.c ****   * @retval HAL status
 842:Drivers/STM32F4xx_HAL_Driver/Src/stm32f4xx_ll_usb.c ****   */
 843:Drivers/STM32F4xx_HAL_Driver/Src/stm32f4xx_ll_usb.c **** HAL_StatusTypeDef USB_EP0StartXfer(USB_OTG_GlobalTypeDef *USBx, USB_OTG_EPTypeDef *ep, uint8_t dma)
 844:Drivers/STM32F4xx_HAL_Driver/Src/stm32f4xx_ll_usb.c **** {
 845:Drivers/STM32F4xx_HAL_Driver/Src/stm32f4xx_ll_usb.c ****   uint32_t USBx_BASE = (uint32_t)USBx;
 846:Drivers/STM32F4xx_HAL_Driver/Src/stm32f4xx_ll_usb.c ****   uint32_t epnum = (uint32_t)ep->num;
 847:Drivers/STM32F4xx_HAL_Driver/Src/stm32f4xx_ll_usb.c **** 
 848:Drivers/STM32F4xx_HAL_Driver/Src/stm32f4xx_ll_usb.c ****   /* IN endpoint */
 849:Drivers/STM32F4xx_HAL_Driver/Src/stm32f4xx_ll_usb.c ****   if (ep->is_in == 1U)
 850:Drivers/STM32F4xx_HAL_Driver/Src/stm32f4xx_ll_usb.c ****   {
 851:Drivers/STM32F4xx_HAL_Driver/Src/stm32f4xx_ll_usb.c ****     /* Zero Length Packet? */
 852:Drivers/STM32F4xx_HAL_Driver/Src/stm32f4xx_ll_usb.c ****     if (ep->xfer_len == 0U)
 853:Drivers/STM32F4xx_HAL_Driver/Src/stm32f4xx_ll_usb.c ****     {
 854:Drivers/STM32F4xx_HAL_Driver/Src/stm32f4xx_ll_usb.c ****       USBx_INEP(epnum)->DIEPTSIZ &= ~(USB_OTG_DIEPTSIZ_PKTCNT);
 855:Drivers/STM32F4xx_HAL_Driver/Src/stm32f4xx_ll_usb.c ****       USBx_INEP(epnum)->DIEPTSIZ |= (USB_OTG_DIEPTSIZ_PKTCNT & (1U << 19));
 856:Drivers/STM32F4xx_HAL_Driver/Src/stm32f4xx_ll_usb.c ****       USBx_INEP(epnum)->DIEPTSIZ &= ~(USB_OTG_DIEPTSIZ_XFRSIZ);
 857:Drivers/STM32F4xx_HAL_Driver/Src/stm32f4xx_ll_usb.c ****     }
 858:Drivers/STM32F4xx_HAL_Driver/Src/stm32f4xx_ll_usb.c ****     else
 859:Drivers/STM32F4xx_HAL_Driver/Src/stm32f4xx_ll_usb.c ****     {
 860:Drivers/STM32F4xx_HAL_Driver/Src/stm32f4xx_ll_usb.c ****       /* Program the transfer size and packet count
 861:Drivers/STM32F4xx_HAL_Driver/Src/stm32f4xx_ll_usb.c ****       * as follows: xfersize = N * maxpacket +
 862:Drivers/STM32F4xx_HAL_Driver/Src/stm32f4xx_ll_usb.c ****       * short_packet pktcnt = N + (short_packet
 863:Drivers/STM32F4xx_HAL_Driver/Src/stm32f4xx_ll_usb.c ****       * exist ? 1 : 0)
 864:Drivers/STM32F4xx_HAL_Driver/Src/stm32f4xx_ll_usb.c ****       */
 865:Drivers/STM32F4xx_HAL_Driver/Src/stm32f4xx_ll_usb.c ****       USBx_INEP(epnum)->DIEPTSIZ &= ~(USB_OTG_DIEPTSIZ_XFRSIZ);
 866:Drivers/STM32F4xx_HAL_Driver/Src/stm32f4xx_ll_usb.c ****       USBx_INEP(epnum)->DIEPTSIZ &= ~(USB_OTG_DIEPTSIZ_PKTCNT);
 867:Drivers/STM32F4xx_HAL_Driver/Src/stm32f4xx_ll_usb.c **** 
 868:Drivers/STM32F4xx_HAL_Driver/Src/stm32f4xx_ll_usb.c ****       if (ep->xfer_len > ep->maxpacket)
 869:Drivers/STM32F4xx_HAL_Driver/Src/stm32f4xx_ll_usb.c ****       {
 870:Drivers/STM32F4xx_HAL_Driver/Src/stm32f4xx_ll_usb.c ****         ep->xfer_len = ep->maxpacket;
 871:Drivers/STM32F4xx_HAL_Driver/Src/stm32f4xx_ll_usb.c ****       }
 872:Drivers/STM32F4xx_HAL_Driver/Src/stm32f4xx_ll_usb.c ****       USBx_INEP(epnum)->DIEPTSIZ |= (USB_OTG_DIEPTSIZ_PKTCNT & (1U << 19));
 873:Drivers/STM32F4xx_HAL_Driver/Src/stm32f4xx_ll_usb.c ****       USBx_INEP(epnum)->DIEPTSIZ |= (USB_OTG_DIEPTSIZ_XFRSIZ & ep->xfer_len);
 874:Drivers/STM32F4xx_HAL_Driver/Src/stm32f4xx_ll_usb.c ****     }
 875:Drivers/STM32F4xx_HAL_Driver/Src/stm32f4xx_ll_usb.c **** 
 876:Drivers/STM32F4xx_HAL_Driver/Src/stm32f4xx_ll_usb.c ****     if (dma == 1U)
 877:Drivers/STM32F4xx_HAL_Driver/Src/stm32f4xx_ll_usb.c ****     {
 878:Drivers/STM32F4xx_HAL_Driver/Src/stm32f4xx_ll_usb.c ****       if ((uint32_t)ep->dma_addr != 0U)
 879:Drivers/STM32F4xx_HAL_Driver/Src/stm32f4xx_ll_usb.c ****       {
 880:Drivers/STM32F4xx_HAL_Driver/Src/stm32f4xx_ll_usb.c ****         USBx_INEP(epnum)->DIEPDMA = (uint32_t)(ep->dma_addr);
 881:Drivers/STM32F4xx_HAL_Driver/Src/stm32f4xx_ll_usb.c ****       }
 882:Drivers/STM32F4xx_HAL_Driver/Src/stm32f4xx_ll_usb.c **** 
 883:Drivers/STM32F4xx_HAL_Driver/Src/stm32f4xx_ll_usb.c ****       /* EP enable, IN data in FIFO */
 884:Drivers/STM32F4xx_HAL_Driver/Src/stm32f4xx_ll_usb.c ****       USBx_INEP(epnum)->DIEPCTL |= (USB_OTG_DIEPCTL_CNAK | USB_OTG_DIEPCTL_EPENA);
 885:Drivers/STM32F4xx_HAL_Driver/Src/stm32f4xx_ll_usb.c ****     }
ARM GAS  /tmp/ccrTWjYe.s 			page 17


 886:Drivers/STM32F4xx_HAL_Driver/Src/stm32f4xx_ll_usb.c ****     else
 887:Drivers/STM32F4xx_HAL_Driver/Src/stm32f4xx_ll_usb.c ****     {
 888:Drivers/STM32F4xx_HAL_Driver/Src/stm32f4xx_ll_usb.c ****       /* EP enable, IN data in FIFO */
 889:Drivers/STM32F4xx_HAL_Driver/Src/stm32f4xx_ll_usb.c ****       USBx_INEP(epnum)->DIEPCTL |= (USB_OTG_DIEPCTL_CNAK | USB_OTG_DIEPCTL_EPENA);
 890:Drivers/STM32F4xx_HAL_Driver/Src/stm32f4xx_ll_usb.c **** 
 891:Drivers/STM32F4xx_HAL_Driver/Src/stm32f4xx_ll_usb.c ****       /* Enable the Tx FIFO Empty Interrupt for this EP */
 892:Drivers/STM32F4xx_HAL_Driver/Src/stm32f4xx_ll_usb.c ****       if (ep->xfer_len > 0U)
 893:Drivers/STM32F4xx_HAL_Driver/Src/stm32f4xx_ll_usb.c ****       {
 894:Drivers/STM32F4xx_HAL_Driver/Src/stm32f4xx_ll_usb.c ****         USBx_DEVICE->DIEPEMPMSK |= 1UL << (ep->num & EP_ADDR_MSK);
 895:Drivers/STM32F4xx_HAL_Driver/Src/stm32f4xx_ll_usb.c ****       }
 896:Drivers/STM32F4xx_HAL_Driver/Src/stm32f4xx_ll_usb.c ****     }
 897:Drivers/STM32F4xx_HAL_Driver/Src/stm32f4xx_ll_usb.c ****   }
 898:Drivers/STM32F4xx_HAL_Driver/Src/stm32f4xx_ll_usb.c ****   else /* OUT endpoint */
 899:Drivers/STM32F4xx_HAL_Driver/Src/stm32f4xx_ll_usb.c ****   {
 900:Drivers/STM32F4xx_HAL_Driver/Src/stm32f4xx_ll_usb.c ****     /* Program the transfer size and packet count as follows:
 901:Drivers/STM32F4xx_HAL_Driver/Src/stm32f4xx_ll_usb.c ****     * pktcnt = N
 902:Drivers/STM32F4xx_HAL_Driver/Src/stm32f4xx_ll_usb.c ****     * xfersize = N * maxpacket
 903:Drivers/STM32F4xx_HAL_Driver/Src/stm32f4xx_ll_usb.c ****     */
 904:Drivers/STM32F4xx_HAL_Driver/Src/stm32f4xx_ll_usb.c ****     USBx_OUTEP(epnum)->DOEPTSIZ &= ~(USB_OTG_DOEPTSIZ_XFRSIZ);
 905:Drivers/STM32F4xx_HAL_Driver/Src/stm32f4xx_ll_usb.c ****     USBx_OUTEP(epnum)->DOEPTSIZ &= ~(USB_OTG_DOEPTSIZ_PKTCNT);
 906:Drivers/STM32F4xx_HAL_Driver/Src/stm32f4xx_ll_usb.c **** 
 907:Drivers/STM32F4xx_HAL_Driver/Src/stm32f4xx_ll_usb.c ****     if (ep->xfer_len > 0U)
 908:Drivers/STM32F4xx_HAL_Driver/Src/stm32f4xx_ll_usb.c ****     {
 909:Drivers/STM32F4xx_HAL_Driver/Src/stm32f4xx_ll_usb.c ****       ep->xfer_len = ep->maxpacket;
 910:Drivers/STM32F4xx_HAL_Driver/Src/stm32f4xx_ll_usb.c ****     }
 911:Drivers/STM32F4xx_HAL_Driver/Src/stm32f4xx_ll_usb.c **** 
 912:Drivers/STM32F4xx_HAL_Driver/Src/stm32f4xx_ll_usb.c ****     USBx_OUTEP(epnum)->DOEPTSIZ |= (USB_OTG_DOEPTSIZ_PKTCNT & (1U << 19));
 913:Drivers/STM32F4xx_HAL_Driver/Src/stm32f4xx_ll_usb.c ****     USBx_OUTEP(epnum)->DOEPTSIZ |= (USB_OTG_DOEPTSIZ_XFRSIZ & (ep->maxpacket));
 914:Drivers/STM32F4xx_HAL_Driver/Src/stm32f4xx_ll_usb.c **** 
 915:Drivers/STM32F4xx_HAL_Driver/Src/stm32f4xx_ll_usb.c ****     if (dma == 1U)
 916:Drivers/STM32F4xx_HAL_Driver/Src/stm32f4xx_ll_usb.c ****     {
 917:Drivers/STM32F4xx_HAL_Driver/Src/stm32f4xx_ll_usb.c ****       if ((uint32_t)ep->xfer_buff != 0U)
 918:Drivers/STM32F4xx_HAL_Driver/Src/stm32f4xx_ll_usb.c ****       {
 919:Drivers/STM32F4xx_HAL_Driver/Src/stm32f4xx_ll_usb.c ****         USBx_OUTEP(epnum)->DOEPDMA = (uint32_t)(ep->xfer_buff);
 920:Drivers/STM32F4xx_HAL_Driver/Src/stm32f4xx_ll_usb.c ****       }
 921:Drivers/STM32F4xx_HAL_Driver/Src/stm32f4xx_ll_usb.c ****     }
 922:Drivers/STM32F4xx_HAL_Driver/Src/stm32f4xx_ll_usb.c **** 
 923:Drivers/STM32F4xx_HAL_Driver/Src/stm32f4xx_ll_usb.c ****     /* EP enable */
 924:Drivers/STM32F4xx_HAL_Driver/Src/stm32f4xx_ll_usb.c ****     USBx_OUTEP(epnum)->DOEPCTL |= (USB_OTG_DOEPCTL_CNAK | USB_OTG_DOEPCTL_EPENA);
 925:Drivers/STM32F4xx_HAL_Driver/Src/stm32f4xx_ll_usb.c ****   }
 926:Drivers/STM32F4xx_HAL_Driver/Src/stm32f4xx_ll_usb.c **** 
 927:Drivers/STM32F4xx_HAL_Driver/Src/stm32f4xx_ll_usb.c ****   return HAL_OK;
 928:Drivers/STM32F4xx_HAL_Driver/Src/stm32f4xx_ll_usb.c **** }
 929:Drivers/STM32F4xx_HAL_Driver/Src/stm32f4xx_ll_usb.c **** 
 930:Drivers/STM32F4xx_HAL_Driver/Src/stm32f4xx_ll_usb.c **** /**
 931:Drivers/STM32F4xx_HAL_Driver/Src/stm32f4xx_ll_usb.c ****   * @brief  USB_WritePacket : Writes a packet into the Tx FIFO associated
 932:Drivers/STM32F4xx_HAL_Driver/Src/stm32f4xx_ll_usb.c ****   *         with the EP/channel
 933:Drivers/STM32F4xx_HAL_Driver/Src/stm32f4xx_ll_usb.c ****   * @param  USBx  Selected device
 934:Drivers/STM32F4xx_HAL_Driver/Src/stm32f4xx_ll_usb.c ****   * @param  src   pointer to source buffer
 935:Drivers/STM32F4xx_HAL_Driver/Src/stm32f4xx_ll_usb.c ****   * @param  ch_ep_num  endpoint or host channel number
 936:Drivers/STM32F4xx_HAL_Driver/Src/stm32f4xx_ll_usb.c ****   * @param  len  Number of bytes to write
 937:Drivers/STM32F4xx_HAL_Driver/Src/stm32f4xx_ll_usb.c ****   * @param  dma USB dma enabled or disabled
 938:Drivers/STM32F4xx_HAL_Driver/Src/stm32f4xx_ll_usb.c ****   *          This parameter can be one of these values:
 939:Drivers/STM32F4xx_HAL_Driver/Src/stm32f4xx_ll_usb.c ****   *           0 : DMA feature not used
 940:Drivers/STM32F4xx_HAL_Driver/Src/stm32f4xx_ll_usb.c ****   *           1 : DMA feature used
 941:Drivers/STM32F4xx_HAL_Driver/Src/stm32f4xx_ll_usb.c ****   * @retval HAL status
 942:Drivers/STM32F4xx_HAL_Driver/Src/stm32f4xx_ll_usb.c ****   */
ARM GAS  /tmp/ccrTWjYe.s 			page 18


 943:Drivers/STM32F4xx_HAL_Driver/Src/stm32f4xx_ll_usb.c **** HAL_StatusTypeDef USB_WritePacket(USB_OTG_GlobalTypeDef *USBx, uint8_t *src, uint8_t ch_ep_num, uin
 944:Drivers/STM32F4xx_HAL_Driver/Src/stm32f4xx_ll_usb.c **** {
 945:Drivers/STM32F4xx_HAL_Driver/Src/stm32f4xx_ll_usb.c ****   uint32_t USBx_BASE = (uint32_t)USBx;
 946:Drivers/STM32F4xx_HAL_Driver/Src/stm32f4xx_ll_usb.c ****   uint32_t *pSrc = (uint32_t *)src;
 947:Drivers/STM32F4xx_HAL_Driver/Src/stm32f4xx_ll_usb.c ****   uint32_t count32b, i;
 948:Drivers/STM32F4xx_HAL_Driver/Src/stm32f4xx_ll_usb.c **** 
 949:Drivers/STM32F4xx_HAL_Driver/Src/stm32f4xx_ll_usb.c ****   if (dma == 0U)
 950:Drivers/STM32F4xx_HAL_Driver/Src/stm32f4xx_ll_usb.c ****   {
 951:Drivers/STM32F4xx_HAL_Driver/Src/stm32f4xx_ll_usb.c ****     count32b = ((uint32_t)len + 3U) / 4U;
 952:Drivers/STM32F4xx_HAL_Driver/Src/stm32f4xx_ll_usb.c ****     for (i = 0U; i < count32b; i++)
 953:Drivers/STM32F4xx_HAL_Driver/Src/stm32f4xx_ll_usb.c ****     {
 954:Drivers/STM32F4xx_HAL_Driver/Src/stm32f4xx_ll_usb.c ****       USBx_DFIFO((uint32_t)ch_ep_num) = __UNALIGNED_UINT32_READ(pSrc);
 955:Drivers/STM32F4xx_HAL_Driver/Src/stm32f4xx_ll_usb.c ****       pSrc++;
 956:Drivers/STM32F4xx_HAL_Driver/Src/stm32f4xx_ll_usb.c ****     }
 957:Drivers/STM32F4xx_HAL_Driver/Src/stm32f4xx_ll_usb.c ****   }
 958:Drivers/STM32F4xx_HAL_Driver/Src/stm32f4xx_ll_usb.c **** 
 959:Drivers/STM32F4xx_HAL_Driver/Src/stm32f4xx_ll_usb.c ****   return HAL_OK;
 960:Drivers/STM32F4xx_HAL_Driver/Src/stm32f4xx_ll_usb.c **** }
 961:Drivers/STM32F4xx_HAL_Driver/Src/stm32f4xx_ll_usb.c **** 
 962:Drivers/STM32F4xx_HAL_Driver/Src/stm32f4xx_ll_usb.c **** /**
 963:Drivers/STM32F4xx_HAL_Driver/Src/stm32f4xx_ll_usb.c ****   * @brief  USB_ReadPacket : read a packet from the RX FIFO
 964:Drivers/STM32F4xx_HAL_Driver/Src/stm32f4xx_ll_usb.c ****   * @param  USBx  Selected device
 965:Drivers/STM32F4xx_HAL_Driver/Src/stm32f4xx_ll_usb.c ****   * @param  dest  source pointer
 966:Drivers/STM32F4xx_HAL_Driver/Src/stm32f4xx_ll_usb.c ****   * @param  len  Number of bytes to read
 967:Drivers/STM32F4xx_HAL_Driver/Src/stm32f4xx_ll_usb.c ****   * @retval pointer to destination buffer
 968:Drivers/STM32F4xx_HAL_Driver/Src/stm32f4xx_ll_usb.c ****   */
 969:Drivers/STM32F4xx_HAL_Driver/Src/stm32f4xx_ll_usb.c **** void *USB_ReadPacket(USB_OTG_GlobalTypeDef *USBx, uint8_t *dest, uint16_t len)
 970:Drivers/STM32F4xx_HAL_Driver/Src/stm32f4xx_ll_usb.c **** {
 971:Drivers/STM32F4xx_HAL_Driver/Src/stm32f4xx_ll_usb.c ****   uint32_t USBx_BASE = (uint32_t)USBx;
 972:Drivers/STM32F4xx_HAL_Driver/Src/stm32f4xx_ll_usb.c ****   uint32_t *pDest = (uint32_t *)dest;
 973:Drivers/STM32F4xx_HAL_Driver/Src/stm32f4xx_ll_usb.c ****   uint32_t i;
 974:Drivers/STM32F4xx_HAL_Driver/Src/stm32f4xx_ll_usb.c ****   uint32_t count32b = ((uint32_t)len + 3U) / 4U;
 975:Drivers/STM32F4xx_HAL_Driver/Src/stm32f4xx_ll_usb.c **** 
 976:Drivers/STM32F4xx_HAL_Driver/Src/stm32f4xx_ll_usb.c ****   for (i = 0U; i < count32b; i++)
 977:Drivers/STM32F4xx_HAL_Driver/Src/stm32f4xx_ll_usb.c ****   {
 978:Drivers/STM32F4xx_HAL_Driver/Src/stm32f4xx_ll_usb.c ****     __UNALIGNED_UINT32_WRITE(pDest, USBx_DFIFO(0U));
 979:Drivers/STM32F4xx_HAL_Driver/Src/stm32f4xx_ll_usb.c ****     pDest++;
 980:Drivers/STM32F4xx_HAL_Driver/Src/stm32f4xx_ll_usb.c ****   }
 981:Drivers/STM32F4xx_HAL_Driver/Src/stm32f4xx_ll_usb.c **** 
 982:Drivers/STM32F4xx_HAL_Driver/Src/stm32f4xx_ll_usb.c ****   return ((void *)pDest);
 983:Drivers/STM32F4xx_HAL_Driver/Src/stm32f4xx_ll_usb.c **** }
 984:Drivers/STM32F4xx_HAL_Driver/Src/stm32f4xx_ll_usb.c **** 
 985:Drivers/STM32F4xx_HAL_Driver/Src/stm32f4xx_ll_usb.c **** /**
 986:Drivers/STM32F4xx_HAL_Driver/Src/stm32f4xx_ll_usb.c ****   * @brief  USB_EPSetStall : set a stall condition over an EP
 987:Drivers/STM32F4xx_HAL_Driver/Src/stm32f4xx_ll_usb.c ****   * @param  USBx  Selected device
 988:Drivers/STM32F4xx_HAL_Driver/Src/stm32f4xx_ll_usb.c ****   * @param  ep pointer to endpoint structure
 989:Drivers/STM32F4xx_HAL_Driver/Src/stm32f4xx_ll_usb.c ****   * @retval HAL status
 990:Drivers/STM32F4xx_HAL_Driver/Src/stm32f4xx_ll_usb.c ****   */
 991:Drivers/STM32F4xx_HAL_Driver/Src/stm32f4xx_ll_usb.c **** HAL_StatusTypeDef USB_EPSetStall(USB_OTG_GlobalTypeDef *USBx, USB_OTG_EPTypeDef *ep)
 992:Drivers/STM32F4xx_HAL_Driver/Src/stm32f4xx_ll_usb.c **** {
 993:Drivers/STM32F4xx_HAL_Driver/Src/stm32f4xx_ll_usb.c ****   uint32_t USBx_BASE = (uint32_t)USBx;
 994:Drivers/STM32F4xx_HAL_Driver/Src/stm32f4xx_ll_usb.c ****   uint32_t epnum = (uint32_t)ep->num;
 995:Drivers/STM32F4xx_HAL_Driver/Src/stm32f4xx_ll_usb.c **** 
 996:Drivers/STM32F4xx_HAL_Driver/Src/stm32f4xx_ll_usb.c ****   if (ep->is_in == 1U)
 997:Drivers/STM32F4xx_HAL_Driver/Src/stm32f4xx_ll_usb.c ****   {
 998:Drivers/STM32F4xx_HAL_Driver/Src/stm32f4xx_ll_usb.c ****     if (((USBx_INEP(epnum)->DIEPCTL & USB_OTG_DIEPCTL_EPENA) == 0U) && (epnum != 0U))
 999:Drivers/STM32F4xx_HAL_Driver/Src/stm32f4xx_ll_usb.c ****     {
ARM GAS  /tmp/ccrTWjYe.s 			page 19


1000:Drivers/STM32F4xx_HAL_Driver/Src/stm32f4xx_ll_usb.c ****       USBx_INEP(epnum)->DIEPCTL &= ~(USB_OTG_DIEPCTL_EPDIS);
1001:Drivers/STM32F4xx_HAL_Driver/Src/stm32f4xx_ll_usb.c ****     }
1002:Drivers/STM32F4xx_HAL_Driver/Src/stm32f4xx_ll_usb.c ****     USBx_INEP(epnum)->DIEPCTL |= USB_OTG_DIEPCTL_STALL;
1003:Drivers/STM32F4xx_HAL_Driver/Src/stm32f4xx_ll_usb.c ****   }
1004:Drivers/STM32F4xx_HAL_Driver/Src/stm32f4xx_ll_usb.c ****   else
1005:Drivers/STM32F4xx_HAL_Driver/Src/stm32f4xx_ll_usb.c ****   {
1006:Drivers/STM32F4xx_HAL_Driver/Src/stm32f4xx_ll_usb.c ****     if (((USBx_OUTEP(epnum)->DOEPCTL & USB_OTG_DOEPCTL_EPENA) == 0U) && (epnum != 0U))
1007:Drivers/STM32F4xx_HAL_Driver/Src/stm32f4xx_ll_usb.c ****     {
1008:Drivers/STM32F4xx_HAL_Driver/Src/stm32f4xx_ll_usb.c ****       USBx_OUTEP(epnum)->DOEPCTL &= ~(USB_OTG_DOEPCTL_EPDIS);
1009:Drivers/STM32F4xx_HAL_Driver/Src/stm32f4xx_ll_usb.c ****     }
1010:Drivers/STM32F4xx_HAL_Driver/Src/stm32f4xx_ll_usb.c ****     USBx_OUTEP(epnum)->DOEPCTL |= USB_OTG_DOEPCTL_STALL;
1011:Drivers/STM32F4xx_HAL_Driver/Src/stm32f4xx_ll_usb.c ****   }
1012:Drivers/STM32F4xx_HAL_Driver/Src/stm32f4xx_ll_usb.c **** 
1013:Drivers/STM32F4xx_HAL_Driver/Src/stm32f4xx_ll_usb.c ****   return HAL_OK;
1014:Drivers/STM32F4xx_HAL_Driver/Src/stm32f4xx_ll_usb.c **** }
1015:Drivers/STM32F4xx_HAL_Driver/Src/stm32f4xx_ll_usb.c **** 
1016:Drivers/STM32F4xx_HAL_Driver/Src/stm32f4xx_ll_usb.c **** /**
1017:Drivers/STM32F4xx_HAL_Driver/Src/stm32f4xx_ll_usb.c ****   * @brief  USB_EPClearStall : Clear a stall condition over an EP
1018:Drivers/STM32F4xx_HAL_Driver/Src/stm32f4xx_ll_usb.c ****   * @param  USBx  Selected device
1019:Drivers/STM32F4xx_HAL_Driver/Src/stm32f4xx_ll_usb.c ****   * @param  ep pointer to endpoint structure
1020:Drivers/STM32F4xx_HAL_Driver/Src/stm32f4xx_ll_usb.c ****   * @retval HAL status
1021:Drivers/STM32F4xx_HAL_Driver/Src/stm32f4xx_ll_usb.c ****   */
1022:Drivers/STM32F4xx_HAL_Driver/Src/stm32f4xx_ll_usb.c **** HAL_StatusTypeDef USB_EPClearStall(USB_OTG_GlobalTypeDef *USBx, USB_OTG_EPTypeDef *ep)
1023:Drivers/STM32F4xx_HAL_Driver/Src/stm32f4xx_ll_usb.c **** {
1024:Drivers/STM32F4xx_HAL_Driver/Src/stm32f4xx_ll_usb.c ****   uint32_t USBx_BASE = (uint32_t)USBx;
1025:Drivers/STM32F4xx_HAL_Driver/Src/stm32f4xx_ll_usb.c ****   uint32_t epnum = (uint32_t)ep->num;
1026:Drivers/STM32F4xx_HAL_Driver/Src/stm32f4xx_ll_usb.c **** 
1027:Drivers/STM32F4xx_HAL_Driver/Src/stm32f4xx_ll_usb.c ****   if (ep->is_in == 1U)
1028:Drivers/STM32F4xx_HAL_Driver/Src/stm32f4xx_ll_usb.c ****   {
1029:Drivers/STM32F4xx_HAL_Driver/Src/stm32f4xx_ll_usb.c ****     USBx_INEP(epnum)->DIEPCTL &= ~USB_OTG_DIEPCTL_STALL;
1030:Drivers/STM32F4xx_HAL_Driver/Src/stm32f4xx_ll_usb.c ****     if ((ep->type == EP_TYPE_INTR) || (ep->type == EP_TYPE_BULK))
1031:Drivers/STM32F4xx_HAL_Driver/Src/stm32f4xx_ll_usb.c ****     {
1032:Drivers/STM32F4xx_HAL_Driver/Src/stm32f4xx_ll_usb.c ****       USBx_INEP(epnum)->DIEPCTL |= USB_OTG_DIEPCTL_SD0PID_SEVNFRM; /* DATA0 */
1033:Drivers/STM32F4xx_HAL_Driver/Src/stm32f4xx_ll_usb.c ****     }
1034:Drivers/STM32F4xx_HAL_Driver/Src/stm32f4xx_ll_usb.c ****   }
1035:Drivers/STM32F4xx_HAL_Driver/Src/stm32f4xx_ll_usb.c ****   else
1036:Drivers/STM32F4xx_HAL_Driver/Src/stm32f4xx_ll_usb.c ****   {
1037:Drivers/STM32F4xx_HAL_Driver/Src/stm32f4xx_ll_usb.c ****     USBx_OUTEP(epnum)->DOEPCTL &= ~USB_OTG_DOEPCTL_STALL;
1038:Drivers/STM32F4xx_HAL_Driver/Src/stm32f4xx_ll_usb.c ****     if ((ep->type == EP_TYPE_INTR) || (ep->type == EP_TYPE_BULK))
1039:Drivers/STM32F4xx_HAL_Driver/Src/stm32f4xx_ll_usb.c ****     {
1040:Drivers/STM32F4xx_HAL_Driver/Src/stm32f4xx_ll_usb.c ****       USBx_OUTEP(epnum)->DOEPCTL |= USB_OTG_DOEPCTL_SD0PID_SEVNFRM; /* DATA0 */
1041:Drivers/STM32F4xx_HAL_Driver/Src/stm32f4xx_ll_usb.c ****     }
1042:Drivers/STM32F4xx_HAL_Driver/Src/stm32f4xx_ll_usb.c ****   }
1043:Drivers/STM32F4xx_HAL_Driver/Src/stm32f4xx_ll_usb.c ****   return HAL_OK;
1044:Drivers/STM32F4xx_HAL_Driver/Src/stm32f4xx_ll_usb.c **** }
1045:Drivers/STM32F4xx_HAL_Driver/Src/stm32f4xx_ll_usb.c **** 
1046:Drivers/STM32F4xx_HAL_Driver/Src/stm32f4xx_ll_usb.c **** /**
1047:Drivers/STM32F4xx_HAL_Driver/Src/stm32f4xx_ll_usb.c ****   * @brief  USB_StopDevice : Stop the usb device mode
1048:Drivers/STM32F4xx_HAL_Driver/Src/stm32f4xx_ll_usb.c ****   * @param  USBx  Selected device
1049:Drivers/STM32F4xx_HAL_Driver/Src/stm32f4xx_ll_usb.c ****   * @retval HAL status
1050:Drivers/STM32F4xx_HAL_Driver/Src/stm32f4xx_ll_usb.c ****   */
1051:Drivers/STM32F4xx_HAL_Driver/Src/stm32f4xx_ll_usb.c **** HAL_StatusTypeDef USB_StopDevice(USB_OTG_GlobalTypeDef *USBx)
1052:Drivers/STM32F4xx_HAL_Driver/Src/stm32f4xx_ll_usb.c **** {
1053:Drivers/STM32F4xx_HAL_Driver/Src/stm32f4xx_ll_usb.c ****   HAL_StatusTypeDef ret;
1054:Drivers/STM32F4xx_HAL_Driver/Src/stm32f4xx_ll_usb.c ****   uint32_t USBx_BASE = (uint32_t)USBx;
1055:Drivers/STM32F4xx_HAL_Driver/Src/stm32f4xx_ll_usb.c ****   uint32_t i;
1056:Drivers/STM32F4xx_HAL_Driver/Src/stm32f4xx_ll_usb.c **** 
ARM GAS  /tmp/ccrTWjYe.s 			page 20


1057:Drivers/STM32F4xx_HAL_Driver/Src/stm32f4xx_ll_usb.c ****   /* Clear Pending interrupt */
1058:Drivers/STM32F4xx_HAL_Driver/Src/stm32f4xx_ll_usb.c ****   for (i = 0U; i < 15U; i++)
1059:Drivers/STM32F4xx_HAL_Driver/Src/stm32f4xx_ll_usb.c ****   {
1060:Drivers/STM32F4xx_HAL_Driver/Src/stm32f4xx_ll_usb.c ****     USBx_INEP(i)->DIEPINT = 0xFB7FU;
1061:Drivers/STM32F4xx_HAL_Driver/Src/stm32f4xx_ll_usb.c ****     USBx_OUTEP(i)->DOEPINT = 0xFB7FU;
1062:Drivers/STM32F4xx_HAL_Driver/Src/stm32f4xx_ll_usb.c ****   }
1063:Drivers/STM32F4xx_HAL_Driver/Src/stm32f4xx_ll_usb.c **** 
1064:Drivers/STM32F4xx_HAL_Driver/Src/stm32f4xx_ll_usb.c ****   /* Clear interrupt masks */
1065:Drivers/STM32F4xx_HAL_Driver/Src/stm32f4xx_ll_usb.c ****   USBx_DEVICE->DIEPMSK  = 0U;
1066:Drivers/STM32F4xx_HAL_Driver/Src/stm32f4xx_ll_usb.c ****   USBx_DEVICE->DOEPMSK  = 0U;
1067:Drivers/STM32F4xx_HAL_Driver/Src/stm32f4xx_ll_usb.c ****   USBx_DEVICE->DAINTMSK = 0U;
1068:Drivers/STM32F4xx_HAL_Driver/Src/stm32f4xx_ll_usb.c **** 
1069:Drivers/STM32F4xx_HAL_Driver/Src/stm32f4xx_ll_usb.c ****   /* Flush the FIFO */
1070:Drivers/STM32F4xx_HAL_Driver/Src/stm32f4xx_ll_usb.c ****   ret = USB_FlushRxFifo(USBx);
1071:Drivers/STM32F4xx_HAL_Driver/Src/stm32f4xx_ll_usb.c ****   if (ret != HAL_OK)
1072:Drivers/STM32F4xx_HAL_Driver/Src/stm32f4xx_ll_usb.c ****   {
1073:Drivers/STM32F4xx_HAL_Driver/Src/stm32f4xx_ll_usb.c ****     return ret;
1074:Drivers/STM32F4xx_HAL_Driver/Src/stm32f4xx_ll_usb.c ****   }
1075:Drivers/STM32F4xx_HAL_Driver/Src/stm32f4xx_ll_usb.c **** 
1076:Drivers/STM32F4xx_HAL_Driver/Src/stm32f4xx_ll_usb.c ****   ret = USB_FlushTxFifo(USBx,  0x10U);
1077:Drivers/STM32F4xx_HAL_Driver/Src/stm32f4xx_ll_usb.c ****   if (ret != HAL_OK)
1078:Drivers/STM32F4xx_HAL_Driver/Src/stm32f4xx_ll_usb.c ****   {
1079:Drivers/STM32F4xx_HAL_Driver/Src/stm32f4xx_ll_usb.c ****     return ret;
1080:Drivers/STM32F4xx_HAL_Driver/Src/stm32f4xx_ll_usb.c ****   }
1081:Drivers/STM32F4xx_HAL_Driver/Src/stm32f4xx_ll_usb.c **** 
1082:Drivers/STM32F4xx_HAL_Driver/Src/stm32f4xx_ll_usb.c ****   return ret;
1083:Drivers/STM32F4xx_HAL_Driver/Src/stm32f4xx_ll_usb.c **** }
1084:Drivers/STM32F4xx_HAL_Driver/Src/stm32f4xx_ll_usb.c **** 
1085:Drivers/STM32F4xx_HAL_Driver/Src/stm32f4xx_ll_usb.c **** /**
1086:Drivers/STM32F4xx_HAL_Driver/Src/stm32f4xx_ll_usb.c ****   * @brief  USB_SetDevAddress : Stop the usb device mode
1087:Drivers/STM32F4xx_HAL_Driver/Src/stm32f4xx_ll_usb.c ****   * @param  USBx  Selected device
1088:Drivers/STM32F4xx_HAL_Driver/Src/stm32f4xx_ll_usb.c ****   * @param  address  new device address to be assigned
1089:Drivers/STM32F4xx_HAL_Driver/Src/stm32f4xx_ll_usb.c ****   *          This parameter can be a value from 0 to 255
1090:Drivers/STM32F4xx_HAL_Driver/Src/stm32f4xx_ll_usb.c ****   * @retval HAL status
1091:Drivers/STM32F4xx_HAL_Driver/Src/stm32f4xx_ll_usb.c ****   */
1092:Drivers/STM32F4xx_HAL_Driver/Src/stm32f4xx_ll_usb.c **** HAL_StatusTypeDef  USB_SetDevAddress(USB_OTG_GlobalTypeDef *USBx, uint8_t address)
1093:Drivers/STM32F4xx_HAL_Driver/Src/stm32f4xx_ll_usb.c **** {
1094:Drivers/STM32F4xx_HAL_Driver/Src/stm32f4xx_ll_usb.c ****   uint32_t USBx_BASE = (uint32_t)USBx;
1095:Drivers/STM32F4xx_HAL_Driver/Src/stm32f4xx_ll_usb.c **** 
1096:Drivers/STM32F4xx_HAL_Driver/Src/stm32f4xx_ll_usb.c ****   USBx_DEVICE->DCFG &= ~(USB_OTG_DCFG_DAD);
1097:Drivers/STM32F4xx_HAL_Driver/Src/stm32f4xx_ll_usb.c ****   USBx_DEVICE->DCFG |= ((uint32_t)address << 4) & USB_OTG_DCFG_DAD;
1098:Drivers/STM32F4xx_HAL_Driver/Src/stm32f4xx_ll_usb.c **** 
1099:Drivers/STM32F4xx_HAL_Driver/Src/stm32f4xx_ll_usb.c ****   return HAL_OK;
1100:Drivers/STM32F4xx_HAL_Driver/Src/stm32f4xx_ll_usb.c **** }
1101:Drivers/STM32F4xx_HAL_Driver/Src/stm32f4xx_ll_usb.c **** 
1102:Drivers/STM32F4xx_HAL_Driver/Src/stm32f4xx_ll_usb.c **** /**
1103:Drivers/STM32F4xx_HAL_Driver/Src/stm32f4xx_ll_usb.c ****   * @brief  USB_DevConnect : Connect the USB device by enabling the pull-up/pull-down
1104:Drivers/STM32F4xx_HAL_Driver/Src/stm32f4xx_ll_usb.c ****   * @param  USBx  Selected device
1105:Drivers/STM32F4xx_HAL_Driver/Src/stm32f4xx_ll_usb.c ****   * @retval HAL status
1106:Drivers/STM32F4xx_HAL_Driver/Src/stm32f4xx_ll_usb.c ****   */
1107:Drivers/STM32F4xx_HAL_Driver/Src/stm32f4xx_ll_usb.c **** HAL_StatusTypeDef  USB_DevConnect(USB_OTG_GlobalTypeDef *USBx)
1108:Drivers/STM32F4xx_HAL_Driver/Src/stm32f4xx_ll_usb.c **** {
1109:Drivers/STM32F4xx_HAL_Driver/Src/stm32f4xx_ll_usb.c ****   uint32_t USBx_BASE = (uint32_t)USBx;
1110:Drivers/STM32F4xx_HAL_Driver/Src/stm32f4xx_ll_usb.c **** 
1111:Drivers/STM32F4xx_HAL_Driver/Src/stm32f4xx_ll_usb.c ****   USBx_DEVICE->DCTL &= ~USB_OTG_DCTL_SDIS;
1112:Drivers/STM32F4xx_HAL_Driver/Src/stm32f4xx_ll_usb.c ****   HAL_Delay(3U);
1113:Drivers/STM32F4xx_HAL_Driver/Src/stm32f4xx_ll_usb.c **** 
ARM GAS  /tmp/ccrTWjYe.s 			page 21


1114:Drivers/STM32F4xx_HAL_Driver/Src/stm32f4xx_ll_usb.c ****   return HAL_OK;
1115:Drivers/STM32F4xx_HAL_Driver/Src/stm32f4xx_ll_usb.c **** }
1116:Drivers/STM32F4xx_HAL_Driver/Src/stm32f4xx_ll_usb.c **** 
1117:Drivers/STM32F4xx_HAL_Driver/Src/stm32f4xx_ll_usb.c **** /**
1118:Drivers/STM32F4xx_HAL_Driver/Src/stm32f4xx_ll_usb.c ****   * @brief  USB_DevDisconnect : Disconnect the USB device by disabling the pull-up/pull-down
1119:Drivers/STM32F4xx_HAL_Driver/Src/stm32f4xx_ll_usb.c ****   * @param  USBx  Selected device
1120:Drivers/STM32F4xx_HAL_Driver/Src/stm32f4xx_ll_usb.c ****   * @retval HAL status
1121:Drivers/STM32F4xx_HAL_Driver/Src/stm32f4xx_ll_usb.c ****   */
1122:Drivers/STM32F4xx_HAL_Driver/Src/stm32f4xx_ll_usb.c **** HAL_StatusTypeDef  USB_DevDisconnect(USB_OTG_GlobalTypeDef *USBx)
1123:Drivers/STM32F4xx_HAL_Driver/Src/stm32f4xx_ll_usb.c **** {
1124:Drivers/STM32F4xx_HAL_Driver/Src/stm32f4xx_ll_usb.c ****   uint32_t USBx_BASE = (uint32_t)USBx;
1125:Drivers/STM32F4xx_HAL_Driver/Src/stm32f4xx_ll_usb.c **** 
1126:Drivers/STM32F4xx_HAL_Driver/Src/stm32f4xx_ll_usb.c ****   USBx_DEVICE->DCTL |= USB_OTG_DCTL_SDIS;
1127:Drivers/STM32F4xx_HAL_Driver/Src/stm32f4xx_ll_usb.c ****   HAL_Delay(3U);
1128:Drivers/STM32F4xx_HAL_Driver/Src/stm32f4xx_ll_usb.c **** 
1129:Drivers/STM32F4xx_HAL_Driver/Src/stm32f4xx_ll_usb.c ****   return HAL_OK;
1130:Drivers/STM32F4xx_HAL_Driver/Src/stm32f4xx_ll_usb.c **** }
1131:Drivers/STM32F4xx_HAL_Driver/Src/stm32f4xx_ll_usb.c **** 
1132:Drivers/STM32F4xx_HAL_Driver/Src/stm32f4xx_ll_usb.c **** /**
1133:Drivers/STM32F4xx_HAL_Driver/Src/stm32f4xx_ll_usb.c ****   * @brief  USB_ReadInterrupts: return the global USB interrupt status
1134:Drivers/STM32F4xx_HAL_Driver/Src/stm32f4xx_ll_usb.c ****   * @param  USBx  Selected device
1135:Drivers/STM32F4xx_HAL_Driver/Src/stm32f4xx_ll_usb.c ****   * @retval HAL status
1136:Drivers/STM32F4xx_HAL_Driver/Src/stm32f4xx_ll_usb.c ****   */
1137:Drivers/STM32F4xx_HAL_Driver/Src/stm32f4xx_ll_usb.c **** uint32_t  USB_ReadInterrupts(USB_OTG_GlobalTypeDef *USBx)
1138:Drivers/STM32F4xx_HAL_Driver/Src/stm32f4xx_ll_usb.c **** {
1139:Drivers/STM32F4xx_HAL_Driver/Src/stm32f4xx_ll_usb.c ****   uint32_t tmpreg;
1140:Drivers/STM32F4xx_HAL_Driver/Src/stm32f4xx_ll_usb.c **** 
1141:Drivers/STM32F4xx_HAL_Driver/Src/stm32f4xx_ll_usb.c ****   tmpreg = USBx->GINTSTS;
1142:Drivers/STM32F4xx_HAL_Driver/Src/stm32f4xx_ll_usb.c ****   tmpreg &= USBx->GINTMSK;
1143:Drivers/STM32F4xx_HAL_Driver/Src/stm32f4xx_ll_usb.c **** 
1144:Drivers/STM32F4xx_HAL_Driver/Src/stm32f4xx_ll_usb.c ****   return tmpreg;
1145:Drivers/STM32F4xx_HAL_Driver/Src/stm32f4xx_ll_usb.c **** }
1146:Drivers/STM32F4xx_HAL_Driver/Src/stm32f4xx_ll_usb.c **** 
1147:Drivers/STM32F4xx_HAL_Driver/Src/stm32f4xx_ll_usb.c **** /**
1148:Drivers/STM32F4xx_HAL_Driver/Src/stm32f4xx_ll_usb.c ****   * @brief  USB_ReadDevAllOutEpInterrupt: return the USB device OUT endpoints interrupt status
1149:Drivers/STM32F4xx_HAL_Driver/Src/stm32f4xx_ll_usb.c ****   * @param  USBx  Selected device
1150:Drivers/STM32F4xx_HAL_Driver/Src/stm32f4xx_ll_usb.c ****   * @retval HAL status
1151:Drivers/STM32F4xx_HAL_Driver/Src/stm32f4xx_ll_usb.c ****   */
1152:Drivers/STM32F4xx_HAL_Driver/Src/stm32f4xx_ll_usb.c **** uint32_t USB_ReadDevAllOutEpInterrupt(USB_OTG_GlobalTypeDef *USBx)
1153:Drivers/STM32F4xx_HAL_Driver/Src/stm32f4xx_ll_usb.c **** {
1154:Drivers/STM32F4xx_HAL_Driver/Src/stm32f4xx_ll_usb.c ****   uint32_t USBx_BASE = (uint32_t)USBx;
1155:Drivers/STM32F4xx_HAL_Driver/Src/stm32f4xx_ll_usb.c ****   uint32_t tmpreg;
1156:Drivers/STM32F4xx_HAL_Driver/Src/stm32f4xx_ll_usb.c **** 
1157:Drivers/STM32F4xx_HAL_Driver/Src/stm32f4xx_ll_usb.c ****   tmpreg  = USBx_DEVICE->DAINT;
1158:Drivers/STM32F4xx_HAL_Driver/Src/stm32f4xx_ll_usb.c ****   tmpreg &= USBx_DEVICE->DAINTMSK;
1159:Drivers/STM32F4xx_HAL_Driver/Src/stm32f4xx_ll_usb.c **** 
1160:Drivers/STM32F4xx_HAL_Driver/Src/stm32f4xx_ll_usb.c ****   return ((tmpreg & 0xffff0000U) >> 16);
1161:Drivers/STM32F4xx_HAL_Driver/Src/stm32f4xx_ll_usb.c **** }
1162:Drivers/STM32F4xx_HAL_Driver/Src/stm32f4xx_ll_usb.c **** 
1163:Drivers/STM32F4xx_HAL_Driver/Src/stm32f4xx_ll_usb.c **** /**
1164:Drivers/STM32F4xx_HAL_Driver/Src/stm32f4xx_ll_usb.c ****   * @brief  USB_ReadDevAllInEpInterrupt: return the USB device IN endpoints interrupt status
1165:Drivers/STM32F4xx_HAL_Driver/Src/stm32f4xx_ll_usb.c ****   * @param  USBx  Selected device
1166:Drivers/STM32F4xx_HAL_Driver/Src/stm32f4xx_ll_usb.c ****   * @retval HAL status
1167:Drivers/STM32F4xx_HAL_Driver/Src/stm32f4xx_ll_usb.c ****   */
1168:Drivers/STM32F4xx_HAL_Driver/Src/stm32f4xx_ll_usb.c **** uint32_t USB_ReadDevAllInEpInterrupt(USB_OTG_GlobalTypeDef *USBx)
1169:Drivers/STM32F4xx_HAL_Driver/Src/stm32f4xx_ll_usb.c **** {
1170:Drivers/STM32F4xx_HAL_Driver/Src/stm32f4xx_ll_usb.c ****   uint32_t USBx_BASE = (uint32_t)USBx;
ARM GAS  /tmp/ccrTWjYe.s 			page 22


1171:Drivers/STM32F4xx_HAL_Driver/Src/stm32f4xx_ll_usb.c ****   uint32_t tmpreg;
1172:Drivers/STM32F4xx_HAL_Driver/Src/stm32f4xx_ll_usb.c **** 
1173:Drivers/STM32F4xx_HAL_Driver/Src/stm32f4xx_ll_usb.c ****   tmpreg  = USBx_DEVICE->DAINT;
1174:Drivers/STM32F4xx_HAL_Driver/Src/stm32f4xx_ll_usb.c ****   tmpreg &= USBx_DEVICE->DAINTMSK;
1175:Drivers/STM32F4xx_HAL_Driver/Src/stm32f4xx_ll_usb.c **** 
1176:Drivers/STM32F4xx_HAL_Driver/Src/stm32f4xx_ll_usb.c ****   return ((tmpreg & 0xFFFFU));
1177:Drivers/STM32F4xx_HAL_Driver/Src/stm32f4xx_ll_usb.c **** }
1178:Drivers/STM32F4xx_HAL_Driver/Src/stm32f4xx_ll_usb.c **** 
1179:Drivers/STM32F4xx_HAL_Driver/Src/stm32f4xx_ll_usb.c **** /**
1180:Drivers/STM32F4xx_HAL_Driver/Src/stm32f4xx_ll_usb.c ****   * @brief  Returns Device OUT EP Interrupt register
1181:Drivers/STM32F4xx_HAL_Driver/Src/stm32f4xx_ll_usb.c ****   * @param  USBx  Selected device
1182:Drivers/STM32F4xx_HAL_Driver/Src/stm32f4xx_ll_usb.c ****   * @param  epnum  endpoint number
1183:Drivers/STM32F4xx_HAL_Driver/Src/stm32f4xx_ll_usb.c ****   *          This parameter can be a value from 0 to 15
1184:Drivers/STM32F4xx_HAL_Driver/Src/stm32f4xx_ll_usb.c ****   * @retval Device OUT EP Interrupt register
1185:Drivers/STM32F4xx_HAL_Driver/Src/stm32f4xx_ll_usb.c ****   */
1186:Drivers/STM32F4xx_HAL_Driver/Src/stm32f4xx_ll_usb.c **** uint32_t USB_ReadDevOutEPInterrupt(USB_OTG_GlobalTypeDef *USBx, uint8_t epnum)
1187:Drivers/STM32F4xx_HAL_Driver/Src/stm32f4xx_ll_usb.c **** {
1188:Drivers/STM32F4xx_HAL_Driver/Src/stm32f4xx_ll_usb.c ****   uint32_t USBx_BASE = (uint32_t)USBx;
1189:Drivers/STM32F4xx_HAL_Driver/Src/stm32f4xx_ll_usb.c ****   uint32_t tmpreg;
1190:Drivers/STM32F4xx_HAL_Driver/Src/stm32f4xx_ll_usb.c **** 
1191:Drivers/STM32F4xx_HAL_Driver/Src/stm32f4xx_ll_usb.c ****   tmpreg  = USBx_OUTEP((uint32_t)epnum)->DOEPINT;
1192:Drivers/STM32F4xx_HAL_Driver/Src/stm32f4xx_ll_usb.c ****   tmpreg &= USBx_DEVICE->DOEPMSK;
1193:Drivers/STM32F4xx_HAL_Driver/Src/stm32f4xx_ll_usb.c **** 
1194:Drivers/STM32F4xx_HAL_Driver/Src/stm32f4xx_ll_usb.c ****   return tmpreg;
1195:Drivers/STM32F4xx_HAL_Driver/Src/stm32f4xx_ll_usb.c **** }
1196:Drivers/STM32F4xx_HAL_Driver/Src/stm32f4xx_ll_usb.c **** 
1197:Drivers/STM32F4xx_HAL_Driver/Src/stm32f4xx_ll_usb.c **** /**
1198:Drivers/STM32F4xx_HAL_Driver/Src/stm32f4xx_ll_usb.c ****   * @brief  Returns Device IN EP Interrupt register
1199:Drivers/STM32F4xx_HAL_Driver/Src/stm32f4xx_ll_usb.c ****   * @param  USBx  Selected device
1200:Drivers/STM32F4xx_HAL_Driver/Src/stm32f4xx_ll_usb.c ****   * @param  epnum  endpoint number
1201:Drivers/STM32F4xx_HAL_Driver/Src/stm32f4xx_ll_usb.c ****   *          This parameter can be a value from 0 to 15
1202:Drivers/STM32F4xx_HAL_Driver/Src/stm32f4xx_ll_usb.c ****   * @retval Device IN EP Interrupt register
1203:Drivers/STM32F4xx_HAL_Driver/Src/stm32f4xx_ll_usb.c ****   */
1204:Drivers/STM32F4xx_HAL_Driver/Src/stm32f4xx_ll_usb.c **** uint32_t USB_ReadDevInEPInterrupt(USB_OTG_GlobalTypeDef *USBx, uint8_t epnum)
1205:Drivers/STM32F4xx_HAL_Driver/Src/stm32f4xx_ll_usb.c **** {
1206:Drivers/STM32F4xx_HAL_Driver/Src/stm32f4xx_ll_usb.c ****   uint32_t USBx_BASE = (uint32_t)USBx;
1207:Drivers/STM32F4xx_HAL_Driver/Src/stm32f4xx_ll_usb.c ****   uint32_t tmpreg, msk, emp;
1208:Drivers/STM32F4xx_HAL_Driver/Src/stm32f4xx_ll_usb.c **** 
1209:Drivers/STM32F4xx_HAL_Driver/Src/stm32f4xx_ll_usb.c ****   msk = USBx_DEVICE->DIEPMSK;
1210:Drivers/STM32F4xx_HAL_Driver/Src/stm32f4xx_ll_usb.c ****   emp = USBx_DEVICE->DIEPEMPMSK;
1211:Drivers/STM32F4xx_HAL_Driver/Src/stm32f4xx_ll_usb.c ****   msk |= ((emp >> (epnum & EP_ADDR_MSK)) & 0x1U) << 7;
1212:Drivers/STM32F4xx_HAL_Driver/Src/stm32f4xx_ll_usb.c ****   tmpreg = USBx_INEP((uint32_t)epnum)->DIEPINT & msk;
1213:Drivers/STM32F4xx_HAL_Driver/Src/stm32f4xx_ll_usb.c **** 
1214:Drivers/STM32F4xx_HAL_Driver/Src/stm32f4xx_ll_usb.c ****   return tmpreg;
1215:Drivers/STM32F4xx_HAL_Driver/Src/stm32f4xx_ll_usb.c **** }
1216:Drivers/STM32F4xx_HAL_Driver/Src/stm32f4xx_ll_usb.c **** 
1217:Drivers/STM32F4xx_HAL_Driver/Src/stm32f4xx_ll_usb.c **** /**
1218:Drivers/STM32F4xx_HAL_Driver/Src/stm32f4xx_ll_usb.c ****   * @brief  USB_ClearInterrupts: clear a USB interrupt
1219:Drivers/STM32F4xx_HAL_Driver/Src/stm32f4xx_ll_usb.c ****   * @param  USBx  Selected device
1220:Drivers/STM32F4xx_HAL_Driver/Src/stm32f4xx_ll_usb.c ****   * @param  interrupt  interrupt flag
1221:Drivers/STM32F4xx_HAL_Driver/Src/stm32f4xx_ll_usb.c ****   * @retval None
1222:Drivers/STM32F4xx_HAL_Driver/Src/stm32f4xx_ll_usb.c ****   */
1223:Drivers/STM32F4xx_HAL_Driver/Src/stm32f4xx_ll_usb.c **** void  USB_ClearInterrupts(USB_OTG_GlobalTypeDef *USBx, uint32_t interrupt)
1224:Drivers/STM32F4xx_HAL_Driver/Src/stm32f4xx_ll_usb.c **** {
1225:Drivers/STM32F4xx_HAL_Driver/Src/stm32f4xx_ll_usb.c ****   USBx->GINTSTS |= interrupt;
1226:Drivers/STM32F4xx_HAL_Driver/Src/stm32f4xx_ll_usb.c **** }
1227:Drivers/STM32F4xx_HAL_Driver/Src/stm32f4xx_ll_usb.c **** 
ARM GAS  /tmp/ccrTWjYe.s 			page 23


1228:Drivers/STM32F4xx_HAL_Driver/Src/stm32f4xx_ll_usb.c **** /**
1229:Drivers/STM32F4xx_HAL_Driver/Src/stm32f4xx_ll_usb.c ****   * @brief  Returns USB core mode
1230:Drivers/STM32F4xx_HAL_Driver/Src/stm32f4xx_ll_usb.c ****   * @param  USBx  Selected device
1231:Drivers/STM32F4xx_HAL_Driver/Src/stm32f4xx_ll_usb.c ****   * @retval return core mode : Host or Device
1232:Drivers/STM32F4xx_HAL_Driver/Src/stm32f4xx_ll_usb.c ****   *          This parameter can be one of these values:
1233:Drivers/STM32F4xx_HAL_Driver/Src/stm32f4xx_ll_usb.c ****   *           0 : Host
1234:Drivers/STM32F4xx_HAL_Driver/Src/stm32f4xx_ll_usb.c ****   *           1 : Device
1235:Drivers/STM32F4xx_HAL_Driver/Src/stm32f4xx_ll_usb.c ****   */
1236:Drivers/STM32F4xx_HAL_Driver/Src/stm32f4xx_ll_usb.c **** uint32_t USB_GetMode(USB_OTG_GlobalTypeDef *USBx)
1237:Drivers/STM32F4xx_HAL_Driver/Src/stm32f4xx_ll_usb.c **** {
1238:Drivers/STM32F4xx_HAL_Driver/Src/stm32f4xx_ll_usb.c ****   return ((USBx->GINTSTS) & 0x1U);
1239:Drivers/STM32F4xx_HAL_Driver/Src/stm32f4xx_ll_usb.c **** }
1240:Drivers/STM32F4xx_HAL_Driver/Src/stm32f4xx_ll_usb.c **** 
1241:Drivers/STM32F4xx_HAL_Driver/Src/stm32f4xx_ll_usb.c **** /**
1242:Drivers/STM32F4xx_HAL_Driver/Src/stm32f4xx_ll_usb.c ****   * @brief  Activate EP0 for Setup transactions
1243:Drivers/STM32F4xx_HAL_Driver/Src/stm32f4xx_ll_usb.c ****   * @param  USBx  Selected device
1244:Drivers/STM32F4xx_HAL_Driver/Src/stm32f4xx_ll_usb.c ****   * @retval HAL status
1245:Drivers/STM32F4xx_HAL_Driver/Src/stm32f4xx_ll_usb.c ****   */
1246:Drivers/STM32F4xx_HAL_Driver/Src/stm32f4xx_ll_usb.c **** HAL_StatusTypeDef  USB_ActivateSetup(USB_OTG_GlobalTypeDef *USBx)
1247:Drivers/STM32F4xx_HAL_Driver/Src/stm32f4xx_ll_usb.c **** {
1248:Drivers/STM32F4xx_HAL_Driver/Src/stm32f4xx_ll_usb.c ****   uint32_t USBx_BASE = (uint32_t)USBx;
1249:Drivers/STM32F4xx_HAL_Driver/Src/stm32f4xx_ll_usb.c **** 
1250:Drivers/STM32F4xx_HAL_Driver/Src/stm32f4xx_ll_usb.c ****   /* Set the MPS of the IN EP based on the enumeration speed */
1251:Drivers/STM32F4xx_HAL_Driver/Src/stm32f4xx_ll_usb.c ****   USBx_INEP(0U)->DIEPCTL &= ~USB_OTG_DIEPCTL_MPSIZ;
1252:Drivers/STM32F4xx_HAL_Driver/Src/stm32f4xx_ll_usb.c **** 
1253:Drivers/STM32F4xx_HAL_Driver/Src/stm32f4xx_ll_usb.c ****   if ((USBx_DEVICE->DSTS & USB_OTG_DSTS_ENUMSPD) == DSTS_ENUMSPD_LS_PHY_6MHZ)
1254:Drivers/STM32F4xx_HAL_Driver/Src/stm32f4xx_ll_usb.c ****   {
1255:Drivers/STM32F4xx_HAL_Driver/Src/stm32f4xx_ll_usb.c ****     USBx_INEP(0U)->DIEPCTL |= 3U;
1256:Drivers/STM32F4xx_HAL_Driver/Src/stm32f4xx_ll_usb.c ****   }
1257:Drivers/STM32F4xx_HAL_Driver/Src/stm32f4xx_ll_usb.c ****   USBx_DEVICE->DCTL |= USB_OTG_DCTL_CGINAK;
1258:Drivers/STM32F4xx_HAL_Driver/Src/stm32f4xx_ll_usb.c **** 
1259:Drivers/STM32F4xx_HAL_Driver/Src/stm32f4xx_ll_usb.c ****   return HAL_OK;
1260:Drivers/STM32F4xx_HAL_Driver/Src/stm32f4xx_ll_usb.c **** }
1261:Drivers/STM32F4xx_HAL_Driver/Src/stm32f4xx_ll_usb.c **** 
1262:Drivers/STM32F4xx_HAL_Driver/Src/stm32f4xx_ll_usb.c **** /**
1263:Drivers/STM32F4xx_HAL_Driver/Src/stm32f4xx_ll_usb.c ****   * @brief  Prepare the EP0 to start the first control setup
1264:Drivers/STM32F4xx_HAL_Driver/Src/stm32f4xx_ll_usb.c ****   * @param  USBx  Selected device
1265:Drivers/STM32F4xx_HAL_Driver/Src/stm32f4xx_ll_usb.c ****   * @param  dma USB dma enabled or disabled
1266:Drivers/STM32F4xx_HAL_Driver/Src/stm32f4xx_ll_usb.c ****   *          This parameter can be one of these values:
1267:Drivers/STM32F4xx_HAL_Driver/Src/stm32f4xx_ll_usb.c ****   *           0 : DMA feature not used
1268:Drivers/STM32F4xx_HAL_Driver/Src/stm32f4xx_ll_usb.c ****   *           1 : DMA feature used
1269:Drivers/STM32F4xx_HAL_Driver/Src/stm32f4xx_ll_usb.c ****   * @param  psetup  pointer to setup packet
1270:Drivers/STM32F4xx_HAL_Driver/Src/stm32f4xx_ll_usb.c ****   * @retval HAL status
1271:Drivers/STM32F4xx_HAL_Driver/Src/stm32f4xx_ll_usb.c ****   */
1272:Drivers/STM32F4xx_HAL_Driver/Src/stm32f4xx_ll_usb.c **** HAL_StatusTypeDef USB_EP0_OutStart(USB_OTG_GlobalTypeDef *USBx, uint8_t dma, uint8_t *psetup)
1273:Drivers/STM32F4xx_HAL_Driver/Src/stm32f4xx_ll_usb.c **** {
1274:Drivers/STM32F4xx_HAL_Driver/Src/stm32f4xx_ll_usb.c ****   uint32_t USBx_BASE = (uint32_t)USBx;
1275:Drivers/STM32F4xx_HAL_Driver/Src/stm32f4xx_ll_usb.c ****   uint32_t gSNPSiD = *(__IO uint32_t *)(&USBx->CID + 0x1U);
1276:Drivers/STM32F4xx_HAL_Driver/Src/stm32f4xx_ll_usb.c **** 
1277:Drivers/STM32F4xx_HAL_Driver/Src/stm32f4xx_ll_usb.c ****   if (gSNPSiD > USB_OTG_CORE_ID_300A)
1278:Drivers/STM32F4xx_HAL_Driver/Src/stm32f4xx_ll_usb.c ****   {
1279:Drivers/STM32F4xx_HAL_Driver/Src/stm32f4xx_ll_usb.c ****     if ((USBx_OUTEP(0U)->DOEPCTL & USB_OTG_DOEPCTL_EPENA) == USB_OTG_DOEPCTL_EPENA)
1280:Drivers/STM32F4xx_HAL_Driver/Src/stm32f4xx_ll_usb.c ****     {
1281:Drivers/STM32F4xx_HAL_Driver/Src/stm32f4xx_ll_usb.c ****       return HAL_OK;
1282:Drivers/STM32F4xx_HAL_Driver/Src/stm32f4xx_ll_usb.c ****     }
1283:Drivers/STM32F4xx_HAL_Driver/Src/stm32f4xx_ll_usb.c ****   }
1284:Drivers/STM32F4xx_HAL_Driver/Src/stm32f4xx_ll_usb.c **** 
ARM GAS  /tmp/ccrTWjYe.s 			page 24


1285:Drivers/STM32F4xx_HAL_Driver/Src/stm32f4xx_ll_usb.c ****   USBx_OUTEP(0U)->DOEPTSIZ = 0U;
1286:Drivers/STM32F4xx_HAL_Driver/Src/stm32f4xx_ll_usb.c ****   USBx_OUTEP(0U)->DOEPTSIZ |= (USB_OTG_DOEPTSIZ_PKTCNT & (1U << 19));
1287:Drivers/STM32F4xx_HAL_Driver/Src/stm32f4xx_ll_usb.c ****   USBx_OUTEP(0U)->DOEPTSIZ |= (3U * 8U);
1288:Drivers/STM32F4xx_HAL_Driver/Src/stm32f4xx_ll_usb.c ****   USBx_OUTEP(0U)->DOEPTSIZ |=  USB_OTG_DOEPTSIZ_STUPCNT;
1289:Drivers/STM32F4xx_HAL_Driver/Src/stm32f4xx_ll_usb.c **** 
1290:Drivers/STM32F4xx_HAL_Driver/Src/stm32f4xx_ll_usb.c ****   if (dma == 1U)
1291:Drivers/STM32F4xx_HAL_Driver/Src/stm32f4xx_ll_usb.c ****   {
1292:Drivers/STM32F4xx_HAL_Driver/Src/stm32f4xx_ll_usb.c ****     USBx_OUTEP(0U)->DOEPDMA = (uint32_t)psetup;
1293:Drivers/STM32F4xx_HAL_Driver/Src/stm32f4xx_ll_usb.c ****     /* EP enable */
1294:Drivers/STM32F4xx_HAL_Driver/Src/stm32f4xx_ll_usb.c ****     USBx_OUTEP(0U)->DOEPCTL |= USB_OTG_DOEPCTL_EPENA | USB_OTG_DOEPCTL_USBAEP;
1295:Drivers/STM32F4xx_HAL_Driver/Src/stm32f4xx_ll_usb.c ****   }
1296:Drivers/STM32F4xx_HAL_Driver/Src/stm32f4xx_ll_usb.c **** 
1297:Drivers/STM32F4xx_HAL_Driver/Src/stm32f4xx_ll_usb.c ****   return HAL_OK;
1298:Drivers/STM32F4xx_HAL_Driver/Src/stm32f4xx_ll_usb.c **** }
1299:Drivers/STM32F4xx_HAL_Driver/Src/stm32f4xx_ll_usb.c **** 
1300:Drivers/STM32F4xx_HAL_Driver/Src/stm32f4xx_ll_usb.c **** /**
1301:Drivers/STM32F4xx_HAL_Driver/Src/stm32f4xx_ll_usb.c ****   * @brief  Reset the USB Core (needed after USB clock settings change)
1302:Drivers/STM32F4xx_HAL_Driver/Src/stm32f4xx_ll_usb.c ****   * @param  USBx  Selected device
1303:Drivers/STM32F4xx_HAL_Driver/Src/stm32f4xx_ll_usb.c ****   * @retval HAL status
1304:Drivers/STM32F4xx_HAL_Driver/Src/stm32f4xx_ll_usb.c ****   */
1305:Drivers/STM32F4xx_HAL_Driver/Src/stm32f4xx_ll_usb.c **** static HAL_StatusTypeDef USB_CoreReset(USB_OTG_GlobalTypeDef *USBx)
1306:Drivers/STM32F4xx_HAL_Driver/Src/stm32f4xx_ll_usb.c **** {
  29              		.loc 1 1306 1 view -0
  30              		.cfi_startproc
  31              		@ args = 0, pretend = 0, frame = 0
  32              		@ frame_needed = 0, uses_anonymous_args = 0
  33              		@ link register save eliminated.
1307:Drivers/STM32F4xx_HAL_Driver/Src/stm32f4xx_ll_usb.c ****   uint32_t count = 0U;
  34              		.loc 1 1307 3 view .LVU1
  35              		.loc 1 1307 12 is_stmt 0 view .LVU2
  36 0000 0023     		movs	r3, #0
  37              	.LVL1:
  38              	.L3:
1308:Drivers/STM32F4xx_HAL_Driver/Src/stm32f4xx_ll_usb.c **** 
1309:Drivers/STM32F4xx_HAL_Driver/Src/stm32f4xx_ll_usb.c ****   /* Wait for AHB master IDLE state. */
1310:Drivers/STM32F4xx_HAL_Driver/Src/stm32f4xx_ll_usb.c ****   do
  39              		.loc 1 1310 3 is_stmt 1 view .LVU3
1311:Drivers/STM32F4xx_HAL_Driver/Src/stm32f4xx_ll_usb.c ****   {
1312:Drivers/STM32F4xx_HAL_Driver/Src/stm32f4xx_ll_usb.c ****     if (++count > 200000U)
  40              		.loc 1 1312 5 view .LVU4
  41              		.loc 1 1312 8 is_stmt 0 view .LVU5
  42 0002 0133     		adds	r3, r3, #1
  43              	.LVL2:
  44              		.loc 1 1312 8 view .LVU6
  45 0004 0C4A     		ldr	r2, .L7
  46 0006 9342     		cmp	r3, r2
  47 0008 11D8     		bhi	.L5
1313:Drivers/STM32F4xx_HAL_Driver/Src/stm32f4xx_ll_usb.c ****     {
1314:Drivers/STM32F4xx_HAL_Driver/Src/stm32f4xx_ll_usb.c ****       return HAL_TIMEOUT;
1315:Drivers/STM32F4xx_HAL_Driver/Src/stm32f4xx_ll_usb.c ****     }
1316:Drivers/STM32F4xx_HAL_Driver/Src/stm32f4xx_ll_usb.c ****   }
1317:Drivers/STM32F4xx_HAL_Driver/Src/stm32f4xx_ll_usb.c ****   while ((USBx->GRSTCTL & USB_OTG_GRSTCTL_AHBIDL) == 0U);
  48              		.loc 1 1317 15 view .LVU7
  49 000a 0269     		ldr	r2, [r0, #16]
  50              		.loc 1 1317 3 view .LVU8
  51 000c 002A     		cmp	r2, #0
  52 000e F8DA     		bge	.L3
ARM GAS  /tmp/ccrTWjYe.s 			page 25


1318:Drivers/STM32F4xx_HAL_Driver/Src/stm32f4xx_ll_usb.c **** 
1319:Drivers/STM32F4xx_HAL_Driver/Src/stm32f4xx_ll_usb.c ****   /* Core Soft Reset */
1320:Drivers/STM32F4xx_HAL_Driver/Src/stm32f4xx_ll_usb.c ****   count = 0U;
  53              		.loc 1 1320 3 is_stmt 1 view .LVU9
  54              	.LVL3:
1321:Drivers/STM32F4xx_HAL_Driver/Src/stm32f4xx_ll_usb.c ****   USBx->GRSTCTL |= USB_OTG_GRSTCTL_CSRST;
  55              		.loc 1 1321 3 view .LVU10
  56              		.loc 1 1321 17 is_stmt 0 view .LVU11
  57 0010 0369     		ldr	r3, [r0, #16]
  58 0012 43F00103 		orr	r3, r3, #1
  59 0016 0361     		str	r3, [r0, #16]
1320:Drivers/STM32F4xx_HAL_Driver/Src/stm32f4xx_ll_usb.c ****   USBx->GRSTCTL |= USB_OTG_GRSTCTL_CSRST;
  60              		.loc 1 1320 9 view .LVU12
  61 0018 0023     		movs	r3, #0
  62              	.LVL4:
  63              	.L4:
1322:Drivers/STM32F4xx_HAL_Driver/Src/stm32f4xx_ll_usb.c **** 
1323:Drivers/STM32F4xx_HAL_Driver/Src/stm32f4xx_ll_usb.c ****   do
  64              		.loc 1 1323 3 is_stmt 1 view .LVU13
1324:Drivers/STM32F4xx_HAL_Driver/Src/stm32f4xx_ll_usb.c ****   {
1325:Drivers/STM32F4xx_HAL_Driver/Src/stm32f4xx_ll_usb.c ****     if (++count > 200000U)
  65              		.loc 1 1325 5 view .LVU14
  66              		.loc 1 1325 8 is_stmt 0 view .LVU15
  67 001a 0133     		adds	r3, r3, #1
  68              	.LVL5:
  69              		.loc 1 1325 8 view .LVU16
  70 001c 064A     		ldr	r2, .L7
  71 001e 9342     		cmp	r3, r2
  72 0020 07D8     		bhi	.L6
1326:Drivers/STM32F4xx_HAL_Driver/Src/stm32f4xx_ll_usb.c ****     {
1327:Drivers/STM32F4xx_HAL_Driver/Src/stm32f4xx_ll_usb.c ****       return HAL_TIMEOUT;
1328:Drivers/STM32F4xx_HAL_Driver/Src/stm32f4xx_ll_usb.c ****     }
1329:Drivers/STM32F4xx_HAL_Driver/Src/stm32f4xx_ll_usb.c ****   }
1330:Drivers/STM32F4xx_HAL_Driver/Src/stm32f4xx_ll_usb.c ****   while ((USBx->GRSTCTL & USB_OTG_GRSTCTL_CSRST) == USB_OTG_GRSTCTL_CSRST);
  73              		.loc 1 1330 15 view .LVU17
  74 0022 0269     		ldr	r2, [r0, #16]
  75              		.loc 1 1330 3 view .LVU18
  76 0024 12F0010F 		tst	r2, #1
  77 0028 F7D1     		bne	.L4
1331:Drivers/STM32F4xx_HAL_Driver/Src/stm32f4xx_ll_usb.c **** 
1332:Drivers/STM32F4xx_HAL_Driver/Src/stm32f4xx_ll_usb.c ****   return HAL_OK;
  78              		.loc 1 1332 10 view .LVU19
  79 002a 0020     		movs	r0, #0
  80              	.LVL6:
  81              		.loc 1 1332 10 view .LVU20
  82 002c 7047     		bx	lr
  83              	.LVL7:
  84              	.L5:
1314:Drivers/STM32F4xx_HAL_Driver/Src/stm32f4xx_ll_usb.c ****     }
  85              		.loc 1 1314 14 view .LVU21
  86 002e 0320     		movs	r0, #3
  87              	.LVL8:
1314:Drivers/STM32F4xx_HAL_Driver/Src/stm32f4xx_ll_usb.c ****     }
  88              		.loc 1 1314 14 view .LVU22
  89 0030 7047     		bx	lr
  90              	.LVL9:
  91              	.L6:
ARM GAS  /tmp/ccrTWjYe.s 			page 26


1327:Drivers/STM32F4xx_HAL_Driver/Src/stm32f4xx_ll_usb.c ****     }
  92              		.loc 1 1327 14 view .LVU23
  93 0032 0320     		movs	r0, #3
  94              	.LVL10:
1333:Drivers/STM32F4xx_HAL_Driver/Src/stm32f4xx_ll_usb.c **** }
  95              		.loc 1 1333 1 view .LVU24
  96 0034 7047     		bx	lr
  97              	.L8:
  98 0036 00BF     		.align	2
  99              	.L7:
 100 0038 400D0300 		.word	200000
 101              		.cfi_endproc
 102              	.LFE163:
 104              		.section	.text.USB_CoreInit,"ax",%progbits
 105              		.align	1
 106              		.global	USB_CoreInit
 107              		.syntax unified
 108              		.thumb
 109              		.thumb_func
 110              		.fpu fpv4-sp-d16
 112              	USB_CoreInit:
 113              	.LVL11:
 114              	.LFB130:
  83:Drivers/STM32F4xx_HAL_Driver/Src/stm32f4xx_ll_usb.c ****   HAL_StatusTypeDef ret;
 115              		.loc 1 83 1 is_stmt 1 view -0
 116              		.cfi_startproc
 117              		@ args = 56, pretend = 16, frame = 0
 118              		@ frame_needed = 0, uses_anonymous_args = 0
  83:Drivers/STM32F4xx_HAL_Driver/Src/stm32f4xx_ll_usb.c ****   HAL_StatusTypeDef ret;
 119              		.loc 1 83 1 is_stmt 0 view .LVU26
 120 0000 84B0     		sub	sp, sp, #16
 121              	.LCFI0:
 122              		.cfi_def_cfa_offset 16
 123 0002 10B5     		push	{r4, lr}
 124              	.LCFI1:
 125              		.cfi_def_cfa_offset 24
 126              		.cfi_offset 4, -24
 127              		.cfi_offset 14, -20
 128 0004 0446     		mov	r4, r0
 129 0006 03A8     		add	r0, sp, #12
 130              	.LVL12:
  83:Drivers/STM32F4xx_HAL_Driver/Src/stm32f4xx_ll_usb.c ****   HAL_StatusTypeDef ret;
 131              		.loc 1 83 1 view .LVU27
 132 0008 80E80E00 		stm	r0, {r1, r2, r3}
  84:Drivers/STM32F4xx_HAL_Driver/Src/stm32f4xx_ll_usb.c **** 
 133              		.loc 1 84 3 is_stmt 1 view .LVU28
  86:Drivers/STM32F4xx_HAL_Driver/Src/stm32f4xx_ll_usb.c ****   {
 134              		.loc 1 86 3 view .LVU29
  86:Drivers/STM32F4xx_HAL_Driver/Src/stm32f4xx_ll_usb.c ****   {
 135              		.loc 1 86 10 is_stmt 0 view .LVU30
 136 000c 089B     		ldr	r3, [sp, #32]
  86:Drivers/STM32F4xx_HAL_Driver/Src/stm32f4xx_ll_usb.c ****   {
 137              		.loc 1 86 6 view .LVU31
 138 000e 012B     		cmp	r3, #1
 139 0010 1FD1     		bne	.L10
  88:Drivers/STM32F4xx_HAL_Driver/Src/stm32f4xx_ll_usb.c **** 
 140              		.loc 1 88 5 is_stmt 1 view .LVU32
ARM GAS  /tmp/ccrTWjYe.s 			page 27


  88:Drivers/STM32F4xx_HAL_Driver/Src/stm32f4xx_ll_usb.c **** 
 141              		.loc 1 88 17 is_stmt 0 view .LVU33
 142 0012 A36B     		ldr	r3, [r4, #56]
 143 0014 23F48033 		bic	r3, r3, #65536
 144 0018 A363     		str	r3, [r4, #56]
  91:Drivers/STM32F4xx_HAL_Driver/Src/stm32f4xx_ll_usb.c **** 
 145              		.loc 1 91 5 is_stmt 1 view .LVU34
  91:Drivers/STM32F4xx_HAL_Driver/Src/stm32f4xx_ll_usb.c **** 
 146              		.loc 1 91 19 is_stmt 0 view .LVU35
 147 001a E368     		ldr	r3, [r4, #12]
 148 001c 23F48403 		bic	r3, r3, #4325376
 149 0020 23F04003 		bic	r3, r3, #64
 150 0024 E360     		str	r3, [r4, #12]
  94:Drivers/STM32F4xx_HAL_Driver/Src/stm32f4xx_ll_usb.c ****     if (cfg.use_external_vbus == 1U)
 151              		.loc 1 94 5 is_stmt 1 view .LVU36
  94:Drivers/STM32F4xx_HAL_Driver/Src/stm32f4xx_ll_usb.c ****     if (cfg.use_external_vbus == 1U)
 152              		.loc 1 94 19 is_stmt 0 view .LVU37
 153 0026 E368     		ldr	r3, [r4, #12]
 154 0028 23F44013 		bic	r3, r3, #3145728
 155 002c E360     		str	r3, [r4, #12]
  95:Drivers/STM32F4xx_HAL_Driver/Src/stm32f4xx_ll_usb.c ****     {
 156              		.loc 1 95 5 is_stmt 1 view .LVU38
  95:Drivers/STM32F4xx_HAL_Driver/Src/stm32f4xx_ll_usb.c ****     {
 157              		.loc 1 95 12 is_stmt 0 view .LVU39
 158 002e 0F9B     		ldr	r3, [sp, #60]
  95:Drivers/STM32F4xx_HAL_Driver/Src/stm32f4xx_ll_usb.c ****     {
 159              		.loc 1 95 8 view .LVU40
 160 0030 012B     		cmp	r3, #1
 161 0032 09D0     		beq	.L16
 162              	.L11:
 100:Drivers/STM32F4xx_HAL_Driver/Src/stm32f4xx_ll_usb.c ****   }
 163              		.loc 1 100 5 is_stmt 1 view .LVU41
 100:Drivers/STM32F4xx_HAL_Driver/Src/stm32f4xx_ll_usb.c ****   }
 164              		.loc 1 100 11 is_stmt 0 view .LVU42
 165 0034 2046     		mov	r0, r4
 166 0036 FFF7FEFF 		bl	USB_CoreReset
 167              	.LVL13:
 168              	.L12:
 122:Drivers/STM32F4xx_HAL_Driver/Src/stm32f4xx_ll_usb.c ****   {
 169              		.loc 1 122 3 is_stmt 1 view .LVU43
 122:Drivers/STM32F4xx_HAL_Driver/Src/stm32f4xx_ll_usb.c ****   {
 170              		.loc 1 122 10 is_stmt 0 view .LVU44
 171 003a 069B     		ldr	r3, [sp, #24]
 122:Drivers/STM32F4xx_HAL_Driver/Src/stm32f4xx_ll_usb.c ****   {
 172              		.loc 1 122 6 view .LVU45
 173 003c 012B     		cmp	r3, #1
 174 003e 1BD0     		beq	.L17
 175              	.L14:
 128:Drivers/STM32F4xx_HAL_Driver/Src/stm32f4xx_ll_usb.c **** }
 176              		.loc 1 128 3 is_stmt 1 view .LVU46
 129:Drivers/STM32F4xx_HAL_Driver/Src/stm32f4xx_ll_usb.c **** 
 177              		.loc 1 129 1 is_stmt 0 view .LVU47
 178 0040 BDE81040 		pop	{r4, lr}
 179              	.LCFI2:
 180              		.cfi_remember_state
 181              		.cfi_restore 14
 182              		.cfi_restore 4
ARM GAS  /tmp/ccrTWjYe.s 			page 28


 183              		.cfi_def_cfa_offset 16
 184              	.LVL14:
 129:Drivers/STM32F4xx_HAL_Driver/Src/stm32f4xx_ll_usb.c **** 
 185              		.loc 1 129 1 view .LVU48
 186 0044 04B0     		add	sp, sp, #16
 187              	.LCFI3:
 188              		.cfi_def_cfa_offset 0
 189 0046 7047     		bx	lr
 190              	.LVL15:
 191              	.L16:
 192              	.LCFI4:
 193              		.cfi_restore_state
  97:Drivers/STM32F4xx_HAL_Driver/Src/stm32f4xx_ll_usb.c ****     }
 194              		.loc 1 97 7 is_stmt 1 view .LVU49
  97:Drivers/STM32F4xx_HAL_Driver/Src/stm32f4xx_ll_usb.c ****     }
 195              		.loc 1 97 21 is_stmt 0 view .LVU50
 196 0048 E368     		ldr	r3, [r4, #12]
 197 004a 43F48013 		orr	r3, r3, #1048576
 198 004e E360     		str	r3, [r4, #12]
 199 0050 F0E7     		b	.L11
 200              	.L10:
 105:Drivers/STM32F4xx_HAL_Driver/Src/stm32f4xx_ll_usb.c **** 
 201              		.loc 1 105 5 is_stmt 1 view .LVU51
 105:Drivers/STM32F4xx_HAL_Driver/Src/stm32f4xx_ll_usb.c **** 
 202              		.loc 1 105 19 is_stmt 0 view .LVU52
 203 0052 E368     		ldr	r3, [r4, #12]
 204 0054 43F04003 		orr	r3, r3, #64
 205 0058 E360     		str	r3, [r4, #12]
 108:Drivers/STM32F4xx_HAL_Driver/Src/stm32f4xx_ll_usb.c **** 
 206              		.loc 1 108 5 is_stmt 1 view .LVU53
 108:Drivers/STM32F4xx_HAL_Driver/Src/stm32f4xx_ll_usb.c **** 
 207              		.loc 1 108 11 is_stmt 0 view .LVU54
 208 005a 2046     		mov	r0, r4
 209 005c FFF7FEFF 		bl	USB_CoreReset
 210              	.LVL16:
 110:Drivers/STM32F4xx_HAL_Driver/Src/stm32f4xx_ll_usb.c ****     {
 211              		.loc 1 110 5 is_stmt 1 view .LVU55
 110:Drivers/STM32F4xx_HAL_Driver/Src/stm32f4xx_ll_usb.c ****     {
 212              		.loc 1 110 12 is_stmt 0 view .LVU56
 213 0060 0C9B     		ldr	r3, [sp, #48]
 110:Drivers/STM32F4xx_HAL_Driver/Src/stm32f4xx_ll_usb.c ****     {
 214              		.loc 1 110 8 view .LVU57
 215 0062 23B9     		cbnz	r3, .L13
 113:Drivers/STM32F4xx_HAL_Driver/Src/stm32f4xx_ll_usb.c ****     }
 216              		.loc 1 113 7 is_stmt 1 view .LVU58
 113:Drivers/STM32F4xx_HAL_Driver/Src/stm32f4xx_ll_usb.c ****     }
 217              		.loc 1 113 19 is_stmt 0 view .LVU59
 218 0064 A36B     		ldr	r3, [r4, #56]
 219 0066 43F48033 		orr	r3, r3, #65536
 220 006a A363     		str	r3, [r4, #56]
 221 006c E5E7     		b	.L12
 222              	.L13:
 118:Drivers/STM32F4xx_HAL_Driver/Src/stm32f4xx_ll_usb.c ****     }
 223              		.loc 1 118 7 is_stmt 1 view .LVU60
 118:Drivers/STM32F4xx_HAL_Driver/Src/stm32f4xx_ll_usb.c ****     }
 224              		.loc 1 118 19 is_stmt 0 view .LVU61
 225 006e A36B     		ldr	r3, [r4, #56]
ARM GAS  /tmp/ccrTWjYe.s 			page 29


 226 0070 23F48033 		bic	r3, r3, #65536
 227 0074 A363     		str	r3, [r4, #56]
 228 0076 E0E7     		b	.L12
 229              	.L17:
 124:Drivers/STM32F4xx_HAL_Driver/Src/stm32f4xx_ll_usb.c ****     USBx->GAHBCFG |= USB_OTG_GAHBCFG_DMAEN;
 230              		.loc 1 124 5 is_stmt 1 view .LVU62
 124:Drivers/STM32F4xx_HAL_Driver/Src/stm32f4xx_ll_usb.c ****     USBx->GAHBCFG |= USB_OTG_GAHBCFG_DMAEN;
 231              		.loc 1 124 19 is_stmt 0 view .LVU63
 232 0078 A368     		ldr	r3, [r4, #8]
 233 007a 43F00603 		orr	r3, r3, #6
 234 007e A360     		str	r3, [r4, #8]
 125:Drivers/STM32F4xx_HAL_Driver/Src/stm32f4xx_ll_usb.c ****   }
 235              		.loc 1 125 5 is_stmt 1 view .LVU64
 125:Drivers/STM32F4xx_HAL_Driver/Src/stm32f4xx_ll_usb.c ****   }
 236              		.loc 1 125 19 is_stmt 0 view .LVU65
 237 0080 A368     		ldr	r3, [r4, #8]
 238 0082 43F02003 		orr	r3, r3, #32
 239 0086 A360     		str	r3, [r4, #8]
 240 0088 DAE7     		b	.L14
 241              		.cfi_endproc
 242              	.LFE130:
 244              		.section	.text.USB_SetTurnaroundTime,"ax",%progbits
 245              		.align	1
 246              		.global	USB_SetTurnaroundTime
 247              		.syntax unified
 248              		.thumb
 249              		.thumb_func
 250              		.fpu fpv4-sp-d16
 252              	USB_SetTurnaroundTime:
 253              	.LVL17:
 254              	.LFB131:
 140:Drivers/STM32F4xx_HAL_Driver/Src/stm32f4xx_ll_usb.c ****   uint32_t UsbTrd;
 255              		.loc 1 140 1 is_stmt 1 view -0
 256              		.cfi_startproc
 257              		@ args = 0, pretend = 0, frame = 0
 258              		@ frame_needed = 0, uses_anonymous_args = 0
 259              		@ link register save eliminated.
 141:Drivers/STM32F4xx_HAL_Driver/Src/stm32f4xx_ll_usb.c **** 
 260              		.loc 1 141 3 view .LVU67
 147:Drivers/STM32F4xx_HAL_Driver/Src/stm32f4xx_ll_usb.c ****   {
 261              		.loc 1 147 3 view .LVU68
 147:Drivers/STM32F4xx_HAL_Driver/Src/stm32f4xx_ll_usb.c ****   {
 262              		.loc 1 147 6 is_stmt 0 view .LVU69
 263 0000 022A     		cmp	r2, #2
 264 0002 0AD0     		beq	.L30
 202:Drivers/STM32F4xx_HAL_Driver/Src/stm32f4xx_ll_usb.c ****   }
 265              		.loc 1 202 12 view .LVU70
 266 0004 0921     		movs	r1, #9
 267              	.LVL18:
 268              	.L19:
 209:Drivers/STM32F4xx_HAL_Driver/Src/stm32f4xx_ll_usb.c ****   USBx->GUSBCFG |= (uint32_t)((UsbTrd << 10) & USB_OTG_GUSBCFG_TRDT);
 269              		.loc 1 209 3 is_stmt 1 view .LVU71
 209:Drivers/STM32F4xx_HAL_Driver/Src/stm32f4xx_ll_usb.c ****   USBx->GUSBCFG |= (uint32_t)((UsbTrd << 10) & USB_OTG_GUSBCFG_TRDT);
 270              		.loc 1 209 17 is_stmt 0 view .LVU72
 271 0006 C268     		ldr	r2, [r0, #12]
 272 0008 22F47052 		bic	r2, r2, #15360
 273 000c C260     		str	r2, [r0, #12]
ARM GAS  /tmp/ccrTWjYe.s 			page 30


 210:Drivers/STM32F4xx_HAL_Driver/Src/stm32f4xx_ll_usb.c **** 
 274              		.loc 1 210 3 is_stmt 1 view .LVU73
 210:Drivers/STM32F4xx_HAL_Driver/Src/stm32f4xx_ll_usb.c **** 
 275              		.loc 1 210 17 is_stmt 0 view .LVU74
 276 000e C368     		ldr	r3, [r0, #12]
 277 0010 43EA8123 		orr	r3, r3, r1, lsl #10
 278 0014 C360     		str	r3, [r0, #12]
 212:Drivers/STM32F4xx_HAL_Driver/Src/stm32f4xx_ll_usb.c **** }
 279              		.loc 1 212 3 is_stmt 1 view .LVU75
 213:Drivers/STM32F4xx_HAL_Driver/Src/stm32f4xx_ll_usb.c **** 
 280              		.loc 1 213 1 is_stmt 0 view .LVU76
 281 0016 0020     		movs	r0, #0
 282              	.LVL19:
 213:Drivers/STM32F4xx_HAL_Driver/Src/stm32f4xx_ll_usb.c **** 
 283              		.loc 1 213 1 view .LVU77
 284 0018 7047     		bx	lr
 285              	.LVL20:
 286              	.L30:
 149:Drivers/STM32F4xx_HAL_Driver/Src/stm32f4xx_ll_usb.c ****     {
 287              		.loc 1 149 5 is_stmt 1 view .LVU78
 149:Drivers/STM32F4xx_HAL_Driver/Src/stm32f4xx_ll_usb.c ****     {
 288              		.loc 1 149 29 is_stmt 0 view .LVU79
 289 001a 2A4B     		ldr	r3, .L31
 290 001c 0B44     		add	r3, r3, r1
 149:Drivers/STM32F4xx_HAL_Driver/Src/stm32f4xx_ll_usb.c ****     {
 291              		.loc 1 149 8 view .LVU80
 292 001e 2A4A     		ldr	r2, .L31+4
 293              	.LVL21:
 149:Drivers/STM32F4xx_HAL_Driver/Src/stm32f4xx_ll_usb.c ****     {
 294              		.loc 1 149 8 view .LVU81
 295 0020 9342     		cmp	r3, r2
 296 0022 3DD9     		bls	.L21
 154:Drivers/STM32F4xx_HAL_Driver/Src/stm32f4xx_ll_usb.c ****     {
 297              		.loc 1 154 10 is_stmt 1 view .LVU82
 154:Drivers/STM32F4xx_HAL_Driver/Src/stm32f4xx_ll_usb.c ****     {
 298              		.loc 1 154 34 is_stmt 0 view .LVU83
 299 0024 294B     		ldr	r3, .L31+8
 300 0026 0B44     		add	r3, r3, r1
 154:Drivers/STM32F4xx_HAL_Driver/Src/stm32f4xx_ll_usb.c ****     {
 301              		.loc 1 154 13 view .LVU84
 302 0028 294A     		ldr	r2, .L31+12
 303 002a 9342     		cmp	r3, r2
 304 002c 3AD9     		bls	.L22
 159:Drivers/STM32F4xx_HAL_Driver/Src/stm32f4xx_ll_usb.c ****     {
 305              		.loc 1 159 10 is_stmt 1 view .LVU85
 159:Drivers/STM32F4xx_HAL_Driver/Src/stm32f4xx_ll_usb.c ****     {
 306              		.loc 1 159 34 is_stmt 0 view .LVU86
 307 002e A1F57403 		sub	r3, r1, #15990784
 308 0032 A3F51053 		sub	r3, r3, #9216
 159:Drivers/STM32F4xx_HAL_Driver/Src/stm32f4xx_ll_usb.c ****     {
 309              		.loc 1 159 13 view .LVU87
 310 0036 274A     		ldr	r2, .L31+16
 311 0038 9342     		cmp	r3, r2
 312 003a 35D9     		bls	.L23
 164:Drivers/STM32F4xx_HAL_Driver/Src/stm32f4xx_ll_usb.c ****     {
 313              		.loc 1 164 10 is_stmt 1 view .LVU88
 164:Drivers/STM32F4xx_HAL_Driver/Src/stm32f4xx_ll_usb.c ****     {
ARM GAS  /tmp/ccrTWjYe.s 			page 31


 314              		.loc 1 164 34 is_stmt 0 view .LVU89
 315 003c A1F18373 		sub	r3, r1, #17170432
 316 0040 A3F5E743 		sub	r3, r3, #29568
 164:Drivers/STM32F4xx_HAL_Driver/Src/stm32f4xx_ll_usb.c ****     {
 317              		.loc 1 164 13 view .LVU90
 318 0044 02F5C332 		add	r2, r2, #99840
 319 0048 A032     		adds	r2, r2, #160
 320 004a 9342     		cmp	r3, r2
 321 004c 2ED9     		bls	.L24
 169:Drivers/STM32F4xx_HAL_Driver/Src/stm32f4xx_ll_usb.c ****     {
 322              		.loc 1 169 10 is_stmt 1 view .LVU91
 169:Drivers/STM32F4xx_HAL_Driver/Src/stm32f4xx_ll_usb.c ****     {
 323              		.loc 1 169 34 is_stmt 0 view .LVU92
 324 004e 224B     		ldr	r3, .L31+20
 325 0050 0B44     		add	r3, r3, r1
 169:Drivers/STM32F4xx_HAL_Driver/Src/stm32f4xx_ll_usb.c ****     {
 326              		.loc 1 169 13 view .LVU93
 327 0052 224A     		ldr	r2, .L31+24
 328 0054 9342     		cmp	r3, r2
 329 0056 2BD9     		bls	.L25
 174:Drivers/STM32F4xx_HAL_Driver/Src/stm32f4xx_ll_usb.c ****     {
 330              		.loc 1 174 10 is_stmt 1 view .LVU94
 174:Drivers/STM32F4xx_HAL_Driver/Src/stm32f4xx_ll_usb.c ****     {
 331              		.loc 1 174 34 is_stmt 0 view .LVU95
 332 0058 214B     		ldr	r3, .L31+28
 333 005a 0B44     		add	r3, r3, r1
 174:Drivers/STM32F4xx_HAL_Driver/Src/stm32f4xx_ll_usb.c ****     {
 334              		.loc 1 174 13 view .LVU96
 335 005c 02F59222 		add	r2, r2, #299008
 336 0060 02F57872 		add	r2, r2, #992
 337 0064 9342     		cmp	r3, r2
 338 0066 25D9     		bls	.L26
 179:Drivers/STM32F4xx_HAL_Driver/Src/stm32f4xx_ll_usb.c ****     {
 339              		.loc 1 179 10 is_stmt 1 view .LVU97
 179:Drivers/STM32F4xx_HAL_Driver/Src/stm32f4xx_ll_usb.c ****     {
 340              		.loc 1 179 34 is_stmt 0 view .LVU98
 341 0068 1E4B     		ldr	r3, .L31+32
 342 006a 0B44     		add	r3, r3, r1
 179:Drivers/STM32F4xx_HAL_Driver/Src/stm32f4xx_ll_usb.c ****     {
 343              		.loc 1 179 13 view .LVU99
 344 006c 02F5C322 		add	r2, r2, #399360
 345 0070 02F52072 		add	r2, r2, #640
 346 0074 9342     		cmp	r3, r2
 347 0076 1FD9     		bls	.L27
 184:Drivers/STM32F4xx_HAL_Driver/Src/stm32f4xx_ll_usb.c ****     {
 348              		.loc 1 184 10 is_stmt 1 view .LVU100
 184:Drivers/STM32F4xx_HAL_Driver/Src/stm32f4xx_ll_usb.c ****     {
 349              		.loc 1 184 34 is_stmt 0 view .LVU101
 350 0078 A1F1B773 		sub	r3, r1, #23986176
 351 007c A3F55853 		sub	r3, r3, #13824
 184:Drivers/STM32F4xx_HAL_Driver/Src/stm32f4xx_ll_usb.c ****     {
 352              		.loc 1 184 13 view .LVU102
 353 0080 02F5B712 		add	r2, r2, #1499136
 354 0084 02F55872 		add	r2, r2, #864
 355 0088 9342     		cmp	r3, r2
 356 008a 17D9     		bls	.L28
 189:Drivers/STM32F4xx_HAL_Driver/Src/stm32f4xx_ll_usb.c ****     {
ARM GAS  /tmp/ccrTWjYe.s 			page 32


 357              		.loc 1 189 10 is_stmt 1 view .LVU103
 189:Drivers/STM32F4xx_HAL_Driver/Src/stm32f4xx_ll_usb.c ****     {
 358              		.loc 1 189 34 is_stmt 0 view .LVU104
 359 008c 164B     		ldr	r3, .L31+36
 360 008e 0B44     		add	r3, r3, r1
 189:Drivers/STM32F4xx_HAL_Driver/Src/stm32f4xx_ll_usb.c ****     {
 361              		.loc 1 189 13 view .LVU105
 362 0090 02F51222 		add	r2, r2, #598016
 363 0094 02F5F862 		add	r2, r2, #1984
 364 0098 9342     		cmp	r3, r2
 365 009a 11D8     		bhi	.L29
 192:Drivers/STM32F4xx_HAL_Driver/Src/stm32f4xx_ll_usb.c ****     }
 366              		.loc 1 192 14 view .LVU106
 367 009c 0721     		movs	r1, #7
 368              	.LVL22:
 192:Drivers/STM32F4xx_HAL_Driver/Src/stm32f4xx_ll_usb.c ****     }
 369              		.loc 1 192 14 view .LVU107
 370 009e B2E7     		b	.L19
 371              	.LVL23:
 372              	.L21:
 152:Drivers/STM32F4xx_HAL_Driver/Src/stm32f4xx_ll_usb.c ****     }
 373              		.loc 1 152 14 view .LVU108
 374 00a0 0F21     		movs	r1, #15
 375              	.LVL24:
 152:Drivers/STM32F4xx_HAL_Driver/Src/stm32f4xx_ll_usb.c ****     }
 376              		.loc 1 152 14 view .LVU109
 377 00a2 B0E7     		b	.L19
 378              	.LVL25:
 379              	.L22:
 157:Drivers/STM32F4xx_HAL_Driver/Src/stm32f4xx_ll_usb.c ****     }
 380              		.loc 1 157 14 view .LVU110
 381 00a4 0E21     		movs	r1, #14
 382              	.LVL26:
 157:Drivers/STM32F4xx_HAL_Driver/Src/stm32f4xx_ll_usb.c ****     }
 383              		.loc 1 157 14 view .LVU111
 384 00a6 AEE7     		b	.L19
 385              	.LVL27:
 386              	.L23:
 162:Drivers/STM32F4xx_HAL_Driver/Src/stm32f4xx_ll_usb.c ****     }
 387              		.loc 1 162 14 view .LVU112
 388 00a8 0D21     		movs	r1, #13
 389              	.LVL28:
 162:Drivers/STM32F4xx_HAL_Driver/Src/stm32f4xx_ll_usb.c ****     }
 390              		.loc 1 162 14 view .LVU113
 391 00aa ACE7     		b	.L19
 392              	.LVL29:
 393              	.L24:
 167:Drivers/STM32F4xx_HAL_Driver/Src/stm32f4xx_ll_usb.c ****     }
 394              		.loc 1 167 14 view .LVU114
 395 00ac 0C21     		movs	r1, #12
 396              	.LVL30:
 167:Drivers/STM32F4xx_HAL_Driver/Src/stm32f4xx_ll_usb.c ****     }
 397              		.loc 1 167 14 view .LVU115
 398 00ae AAE7     		b	.L19
 399              	.LVL31:
 400              	.L25:
 172:Drivers/STM32F4xx_HAL_Driver/Src/stm32f4xx_ll_usb.c ****     }
ARM GAS  /tmp/ccrTWjYe.s 			page 33


 401              		.loc 1 172 14 view .LVU116
 402 00b0 0B21     		movs	r1, #11
 403              	.LVL32:
 172:Drivers/STM32F4xx_HAL_Driver/Src/stm32f4xx_ll_usb.c ****     }
 404              		.loc 1 172 14 view .LVU117
 405 00b2 A8E7     		b	.L19
 406              	.LVL33:
 407              	.L26:
 177:Drivers/STM32F4xx_HAL_Driver/Src/stm32f4xx_ll_usb.c ****     }
 408              		.loc 1 177 14 view .LVU118
 409 00b4 0A21     		movs	r1, #10
 410              	.LVL34:
 177:Drivers/STM32F4xx_HAL_Driver/Src/stm32f4xx_ll_usb.c ****     }
 411              		.loc 1 177 14 view .LVU119
 412 00b6 A6E7     		b	.L19
 413              	.LVL35:
 414              	.L27:
 182:Drivers/STM32F4xx_HAL_Driver/Src/stm32f4xx_ll_usb.c ****     }
 415              		.loc 1 182 14 view .LVU120
 416 00b8 0921     		movs	r1, #9
 417              	.LVL36:
 182:Drivers/STM32F4xx_HAL_Driver/Src/stm32f4xx_ll_usb.c ****     }
 418              		.loc 1 182 14 view .LVU121
 419 00ba A4E7     		b	.L19
 420              	.LVL37:
 421              	.L28:
 187:Drivers/STM32F4xx_HAL_Driver/Src/stm32f4xx_ll_usb.c ****     }
 422              		.loc 1 187 14 view .LVU122
 423 00bc 0821     		movs	r1, #8
 424              	.LVL38:
 187:Drivers/STM32F4xx_HAL_Driver/Src/stm32f4xx_ll_usb.c ****     }
 425              		.loc 1 187 14 view .LVU123
 426 00be A2E7     		b	.L19
 427              	.LVL39:
 428              	.L29:
 197:Drivers/STM32F4xx_HAL_Driver/Src/stm32f4xx_ll_usb.c ****     }
 429              		.loc 1 197 14 view .LVU124
 430 00c0 0621     		movs	r1, #6
 431              	.LVL40:
 197:Drivers/STM32F4xx_HAL_Driver/Src/stm32f4xx_ll_usb.c ****     }
 432              		.loc 1 197 14 view .LVU125
 433 00c2 A0E7     		b	.L19
 434              	.L32:
 435              		.align	2
 436              	.L31:
 437 00c4 405327FF 		.word	-14200000
 438 00c8 FF340C00 		.word	799999
 439 00cc 401E1BFF 		.word	-15000000
 440 00d0 3F420F00 		.word	999999
 441 00d4 7F4F1200 		.word	1199999
 442 00d8 60B6E5FE 		.word	-18500000
 443 00dc 5FE31600 		.word	1499999
 444 00e0 00D3CEFE 		.word	-20000000
 445 00e4 C05BB3FE 		.word	-21800000
 446 00e8 E05459FE 		.word	-27700000
 447              		.cfi_endproc
 448              	.LFE131:
ARM GAS  /tmp/ccrTWjYe.s 			page 34


 450              		.section	.text.USB_EnableGlobalInt,"ax",%progbits
 451              		.align	1
 452              		.global	USB_EnableGlobalInt
 453              		.syntax unified
 454              		.thumb
 455              		.thumb_func
 456              		.fpu fpv4-sp-d16
 458              	USB_EnableGlobalInt:
 459              	.LVL41:
 460              	.LFB132:
 222:Drivers/STM32F4xx_HAL_Driver/Src/stm32f4xx_ll_usb.c ****   USBx->GAHBCFG |= USB_OTG_GAHBCFG_GINT;
 461              		.loc 1 222 1 is_stmt 1 view -0
 462              		.cfi_startproc
 463              		@ args = 0, pretend = 0, frame = 0
 464              		@ frame_needed = 0, uses_anonymous_args = 0
 465              		@ link register save eliminated.
 223:Drivers/STM32F4xx_HAL_Driver/Src/stm32f4xx_ll_usb.c ****   return HAL_OK;
 466              		.loc 1 223 3 view .LVU127
 223:Drivers/STM32F4xx_HAL_Driver/Src/stm32f4xx_ll_usb.c ****   return HAL_OK;
 467              		.loc 1 223 17 is_stmt 0 view .LVU128
 468 0000 8368     		ldr	r3, [r0, #8]
 469 0002 43F00103 		orr	r3, r3, #1
 470 0006 8360     		str	r3, [r0, #8]
 224:Drivers/STM32F4xx_HAL_Driver/Src/stm32f4xx_ll_usb.c **** }
 471              		.loc 1 224 3 is_stmt 1 view .LVU129
 225:Drivers/STM32F4xx_HAL_Driver/Src/stm32f4xx_ll_usb.c **** 
 472              		.loc 1 225 1 is_stmt 0 view .LVU130
 473 0008 0020     		movs	r0, #0
 474              	.LVL42:
 225:Drivers/STM32F4xx_HAL_Driver/Src/stm32f4xx_ll_usb.c **** 
 475              		.loc 1 225 1 view .LVU131
 476 000a 7047     		bx	lr
 477              		.cfi_endproc
 478              	.LFE132:
 480              		.section	.text.USB_DisableGlobalInt,"ax",%progbits
 481              		.align	1
 482              		.global	USB_DisableGlobalInt
 483              		.syntax unified
 484              		.thumb
 485              		.thumb_func
 486              		.fpu fpv4-sp-d16
 488              	USB_DisableGlobalInt:
 489              	.LVL43:
 490              	.LFB133:
 234:Drivers/STM32F4xx_HAL_Driver/Src/stm32f4xx_ll_usb.c ****   USBx->GAHBCFG &= ~USB_OTG_GAHBCFG_GINT;
 491              		.loc 1 234 1 is_stmt 1 view -0
 492              		.cfi_startproc
 493              		@ args = 0, pretend = 0, frame = 0
 494              		@ frame_needed = 0, uses_anonymous_args = 0
 495              		@ link register save eliminated.
 235:Drivers/STM32F4xx_HAL_Driver/Src/stm32f4xx_ll_usb.c ****   return HAL_OK;
 496              		.loc 1 235 3 view .LVU133
 235:Drivers/STM32F4xx_HAL_Driver/Src/stm32f4xx_ll_usb.c ****   return HAL_OK;
 497              		.loc 1 235 17 is_stmt 0 view .LVU134
 498 0000 8368     		ldr	r3, [r0, #8]
 499 0002 23F00103 		bic	r3, r3, #1
 500 0006 8360     		str	r3, [r0, #8]
ARM GAS  /tmp/ccrTWjYe.s 			page 35


 236:Drivers/STM32F4xx_HAL_Driver/Src/stm32f4xx_ll_usb.c **** }
 501              		.loc 1 236 3 is_stmt 1 view .LVU135
 237:Drivers/STM32F4xx_HAL_Driver/Src/stm32f4xx_ll_usb.c **** 
 502              		.loc 1 237 1 is_stmt 0 view .LVU136
 503 0008 0020     		movs	r0, #0
 504              	.LVL44:
 237:Drivers/STM32F4xx_HAL_Driver/Src/stm32f4xx_ll_usb.c **** 
 505              		.loc 1 237 1 view .LVU137
 506 000a 7047     		bx	lr
 507              		.cfi_endproc
 508              	.LFE133:
 510              		.section	.text.USB_SetCurrentMode,"ax",%progbits
 511              		.align	1
 512              		.global	USB_SetCurrentMode
 513              		.syntax unified
 514              		.thumb
 515              		.thumb_func
 516              		.fpu fpv4-sp-d16
 518              	USB_SetCurrentMode:
 519              	.LVL45:
 520              	.LFB134:
 250:Drivers/STM32F4xx_HAL_Driver/Src/stm32f4xx_ll_usb.c ****   USBx->GUSBCFG &= ~(USB_OTG_GUSBCFG_FHMOD | USB_OTG_GUSBCFG_FDMOD);
 521              		.loc 1 250 1 is_stmt 1 view -0
 522              		.cfi_startproc
 523              		@ args = 0, pretend = 0, frame = 0
 524              		@ frame_needed = 0, uses_anonymous_args = 0
 250:Drivers/STM32F4xx_HAL_Driver/Src/stm32f4xx_ll_usb.c ****   USBx->GUSBCFG &= ~(USB_OTG_GUSBCFG_FHMOD | USB_OTG_GUSBCFG_FDMOD);
 525              		.loc 1 250 1 is_stmt 0 view .LVU139
 526 0000 08B5     		push	{r3, lr}
 527              	.LCFI5:
 528              		.cfi_def_cfa_offset 8
 529              		.cfi_offset 3, -8
 530              		.cfi_offset 14, -4
 251:Drivers/STM32F4xx_HAL_Driver/Src/stm32f4xx_ll_usb.c **** 
 531              		.loc 1 251 3 is_stmt 1 view .LVU140
 251:Drivers/STM32F4xx_HAL_Driver/Src/stm32f4xx_ll_usb.c **** 
 532              		.loc 1 251 17 is_stmt 0 view .LVU141
 533 0002 C368     		ldr	r3, [r0, #12]
 534 0004 23F0C043 		bic	r3, r3, #1610612736
 535 0008 C360     		str	r3, [r0, #12]
 253:Drivers/STM32F4xx_HAL_Driver/Src/stm32f4xx_ll_usb.c ****   {
 536              		.loc 1 253 3 is_stmt 1 view .LVU142
 253:Drivers/STM32F4xx_HAL_Driver/Src/stm32f4xx_ll_usb.c ****   {
 537              		.loc 1 253 6 is_stmt 0 view .LVU143
 538 000a 0129     		cmp	r1, #1
 539 000c 09D0     		beq	.L41
 257:Drivers/STM32F4xx_HAL_Driver/Src/stm32f4xx_ll_usb.c ****   {
 540              		.loc 1 257 8 is_stmt 1 view .LVU144
 257:Drivers/STM32F4xx_HAL_Driver/Src/stm32f4xx_ll_usb.c ****   {
 541              		.loc 1 257 11 is_stmt 0 view .LVU145
 542 000e 69B9     		cbnz	r1, .L39
 259:Drivers/STM32F4xx_HAL_Driver/Src/stm32f4xx_ll_usb.c ****   }
 543              		.loc 1 259 5 is_stmt 1 view .LVU146
 259:Drivers/STM32F4xx_HAL_Driver/Src/stm32f4xx_ll_usb.c ****   }
 544              		.loc 1 259 19 is_stmt 0 view .LVU147
 545 0010 C368     		ldr	r3, [r0, #12]
 546 0012 43F08043 		orr	r3, r3, #1073741824
ARM GAS  /tmp/ccrTWjYe.s 			page 36


 547 0016 C360     		str	r3, [r0, #12]
 548              	.L37:
 265:Drivers/STM32F4xx_HAL_Driver/Src/stm32f4xx_ll_usb.c **** 
 549              		.loc 1 265 3 is_stmt 1 view .LVU148
 550 0018 3220     		movs	r0, #50
 551              	.LVL46:
 265:Drivers/STM32F4xx_HAL_Driver/Src/stm32f4xx_ll_usb.c **** 
 552              		.loc 1 265 3 is_stmt 0 view .LVU149
 553 001a FFF7FEFF 		bl	HAL_Delay
 554              	.LVL47:
 267:Drivers/STM32F4xx_HAL_Driver/Src/stm32f4xx_ll_usb.c **** }
 555              		.loc 1 267 3 is_stmt 1 view .LVU150
 267:Drivers/STM32F4xx_HAL_Driver/Src/stm32f4xx_ll_usb.c **** }
 556              		.loc 1 267 10 is_stmt 0 view .LVU151
 557 001e 0020     		movs	r0, #0
 558              	.L38:
 268:Drivers/STM32F4xx_HAL_Driver/Src/stm32f4xx_ll_usb.c **** 
 559              		.loc 1 268 1 view .LVU152
 560 0020 08BD     		pop	{r3, pc}
 561              	.LVL48:
 562              	.L41:
 255:Drivers/STM32F4xx_HAL_Driver/Src/stm32f4xx_ll_usb.c ****   }
 563              		.loc 1 255 5 is_stmt 1 view .LVU153
 255:Drivers/STM32F4xx_HAL_Driver/Src/stm32f4xx_ll_usb.c ****   }
 564              		.loc 1 255 19 is_stmt 0 view .LVU154
 565 0022 C368     		ldr	r3, [r0, #12]
 566 0024 43F00053 		orr	r3, r3, #536870912
 567 0028 C360     		str	r3, [r0, #12]
 568 002a F5E7     		b	.L37
 569              	.L39:
 263:Drivers/STM32F4xx_HAL_Driver/Src/stm32f4xx_ll_usb.c ****   }
 570              		.loc 1 263 12 view .LVU155
 571 002c 0120     		movs	r0, #1
 572              	.LVL49:
 263:Drivers/STM32F4xx_HAL_Driver/Src/stm32f4xx_ll_usb.c ****   }
 573              		.loc 1 263 12 view .LVU156
 574 002e F7E7     		b	.L38
 575              		.cfi_endproc
 576              	.LFE134:
 578              		.section	.text.USB_FlushTxFifo,"ax",%progbits
 579              		.align	1
 580              		.global	USB_FlushTxFifo
 581              		.syntax unified
 582              		.thumb
 583              		.thumb_func
 584              		.fpu fpv4-sp-d16
 586              	USB_FlushTxFifo:
 587              	.LVL50:
 588              	.LFB136:
 463:Drivers/STM32F4xx_HAL_Driver/Src/stm32f4xx_ll_usb.c ****   uint32_t count = 0U;
 589              		.loc 1 463 1 is_stmt 1 view -0
 590              		.cfi_startproc
 591              		@ args = 0, pretend = 0, frame = 0
 592              		@ frame_needed = 0, uses_anonymous_args = 0
 593              		@ link register save eliminated.
 464:Drivers/STM32F4xx_HAL_Driver/Src/stm32f4xx_ll_usb.c **** 
 594              		.loc 1 464 3 view .LVU158
ARM GAS  /tmp/ccrTWjYe.s 			page 37


 466:Drivers/STM32F4xx_HAL_Driver/Src/stm32f4xx_ll_usb.c **** 
 595              		.loc 1 466 3 view .LVU159
 466:Drivers/STM32F4xx_HAL_Driver/Src/stm32f4xx_ll_usb.c **** 
 596              		.loc 1 466 51 is_stmt 0 view .LVU160
 597 0000 8901     		lsls	r1, r1, #6
 598              	.LVL51:
 466:Drivers/STM32F4xx_HAL_Driver/Src/stm32f4xx_ll_usb.c **** 
 599              		.loc 1 466 44 view .LVU161
 600 0002 41F02001 		orr	r1, r1, #32
 466:Drivers/STM32F4xx_HAL_Driver/Src/stm32f4xx_ll_usb.c **** 
 601              		.loc 1 466 17 view .LVU162
 602 0006 0161     		str	r1, [r0, #16]
 464:Drivers/STM32F4xx_HAL_Driver/Src/stm32f4xx_ll_usb.c **** 
 603              		.loc 1 464 12 view .LVU163
 604 0008 0023     		movs	r3, #0
 605              	.LVL52:
 606              	.L44:
 468:Drivers/STM32F4xx_HAL_Driver/Src/stm32f4xx_ll_usb.c ****   {
 607              		.loc 1 468 3 is_stmt 1 view .LVU164
 470:Drivers/STM32F4xx_HAL_Driver/Src/stm32f4xx_ll_usb.c ****     {
 608              		.loc 1 470 5 view .LVU165
 470:Drivers/STM32F4xx_HAL_Driver/Src/stm32f4xx_ll_usb.c ****     {
 609              		.loc 1 470 8 is_stmt 0 view .LVU166
 610 000a 0133     		adds	r3, r3, #1
 611              	.LVL53:
 470:Drivers/STM32F4xx_HAL_Driver/Src/stm32f4xx_ll_usb.c ****     {
 612              		.loc 1 470 8 view .LVU167
 613 000c 054A     		ldr	r2, .L46
 614 000e 9342     		cmp	r3, r2
 615 0010 05D8     		bhi	.L45
 475:Drivers/STM32F4xx_HAL_Driver/Src/stm32f4xx_ll_usb.c **** 
 616              		.loc 1 475 15 view .LVU168
 617 0012 0269     		ldr	r2, [r0, #16]
 475:Drivers/STM32F4xx_HAL_Driver/Src/stm32f4xx_ll_usb.c **** 
 618              		.loc 1 475 3 view .LVU169
 619 0014 12F0200F 		tst	r2, #32
 620 0018 F7D1     		bne	.L44
 477:Drivers/STM32F4xx_HAL_Driver/Src/stm32f4xx_ll_usb.c **** }
 621              		.loc 1 477 10 view .LVU170
 622 001a 0020     		movs	r0, #0
 623              	.LVL54:
 477:Drivers/STM32F4xx_HAL_Driver/Src/stm32f4xx_ll_usb.c **** }
 624              		.loc 1 477 10 view .LVU171
 625 001c 7047     		bx	lr
 626              	.LVL55:
 627              	.L45:
 472:Drivers/STM32F4xx_HAL_Driver/Src/stm32f4xx_ll_usb.c ****     }
 628              		.loc 1 472 14 view .LVU172
 629 001e 0320     		movs	r0, #3
 630              	.LVL56:
 478:Drivers/STM32F4xx_HAL_Driver/Src/stm32f4xx_ll_usb.c **** 
 631              		.loc 1 478 1 view .LVU173
 632 0020 7047     		bx	lr
 633              	.L47:
 634 0022 00BF     		.align	2
 635              	.L46:
 636 0024 400D0300 		.word	200000
ARM GAS  /tmp/ccrTWjYe.s 			page 38


 637              		.cfi_endproc
 638              	.LFE136:
 640              		.section	.text.USB_FlushRxFifo,"ax",%progbits
 641              		.align	1
 642              		.global	USB_FlushRxFifo
 643              		.syntax unified
 644              		.thumb
 645              		.thumb_func
 646              		.fpu fpv4-sp-d16
 648              	USB_FlushRxFifo:
 649              	.LVL57:
 650              	.LFB137:
 486:Drivers/STM32F4xx_HAL_Driver/Src/stm32f4xx_ll_usb.c ****   uint32_t count = 0;
 651              		.loc 1 486 1 is_stmt 1 view -0
 652              		.cfi_startproc
 653              		@ args = 0, pretend = 0, frame = 0
 654              		@ frame_needed = 0, uses_anonymous_args = 0
 655              		@ link register save eliminated.
 487:Drivers/STM32F4xx_HAL_Driver/Src/stm32f4xx_ll_usb.c **** 
 656              		.loc 1 487 3 view .LVU175
 489:Drivers/STM32F4xx_HAL_Driver/Src/stm32f4xx_ll_usb.c **** 
 657              		.loc 1 489 3 view .LVU176
 489:Drivers/STM32F4xx_HAL_Driver/Src/stm32f4xx_ll_usb.c **** 
 658              		.loc 1 489 17 is_stmt 0 view .LVU177
 659 0000 1023     		movs	r3, #16
 660 0002 0361     		str	r3, [r0, #16]
 487:Drivers/STM32F4xx_HAL_Driver/Src/stm32f4xx_ll_usb.c **** 
 661              		.loc 1 487 12 view .LVU178
 662 0004 0023     		movs	r3, #0
 663              	.LVL58:
 664              	.L50:
 491:Drivers/STM32F4xx_HAL_Driver/Src/stm32f4xx_ll_usb.c ****   {
 665              		.loc 1 491 3 is_stmt 1 view .LVU179
 493:Drivers/STM32F4xx_HAL_Driver/Src/stm32f4xx_ll_usb.c ****     {
 666              		.loc 1 493 5 view .LVU180
 493:Drivers/STM32F4xx_HAL_Driver/Src/stm32f4xx_ll_usb.c ****     {
 667              		.loc 1 493 8 is_stmt 0 view .LVU181
 668 0006 0133     		adds	r3, r3, #1
 669              	.LVL59:
 493:Drivers/STM32F4xx_HAL_Driver/Src/stm32f4xx_ll_usb.c ****     {
 670              		.loc 1 493 8 view .LVU182
 671 0008 054A     		ldr	r2, .L52
 672 000a 9342     		cmp	r3, r2
 673 000c 05D8     		bhi	.L51
 498:Drivers/STM32F4xx_HAL_Driver/Src/stm32f4xx_ll_usb.c **** 
 674              		.loc 1 498 15 view .LVU183
 675 000e 0269     		ldr	r2, [r0, #16]
 498:Drivers/STM32F4xx_HAL_Driver/Src/stm32f4xx_ll_usb.c **** 
 676              		.loc 1 498 3 view .LVU184
 677 0010 12F0100F 		tst	r2, #16
 678 0014 F7D1     		bne	.L50
 500:Drivers/STM32F4xx_HAL_Driver/Src/stm32f4xx_ll_usb.c **** }
 679              		.loc 1 500 10 view .LVU185
 680 0016 0020     		movs	r0, #0
 681              	.LVL60:
 500:Drivers/STM32F4xx_HAL_Driver/Src/stm32f4xx_ll_usb.c **** }
 682              		.loc 1 500 10 view .LVU186
ARM GAS  /tmp/ccrTWjYe.s 			page 39


 683 0018 7047     		bx	lr
 684              	.LVL61:
 685              	.L51:
 495:Drivers/STM32F4xx_HAL_Driver/Src/stm32f4xx_ll_usb.c ****     }
 686              		.loc 1 495 14 view .LVU187
 687 001a 0320     		movs	r0, #3
 688              	.LVL62:
 501:Drivers/STM32F4xx_HAL_Driver/Src/stm32f4xx_ll_usb.c **** 
 689              		.loc 1 501 1 view .LVU188
 690 001c 7047     		bx	lr
 691              	.L53:
 692 001e 00BF     		.align	2
 693              	.L52:
 694 0020 400D0300 		.word	200000
 695              		.cfi_endproc
 696              	.LFE137:
 698              		.section	.text.USB_SetDevSpeed,"ax",%progbits
 699              		.align	1
 700              		.global	USB_SetDevSpeed
 701              		.syntax unified
 702              		.thumb
 703              		.thumb_func
 704              		.fpu fpv4-sp-d16
 706              	USB_SetDevSpeed:
 707              	.LVL63:
 708              	.LFB138:
 515:Drivers/STM32F4xx_HAL_Driver/Src/stm32f4xx_ll_usb.c ****   uint32_t USBx_BASE = (uint32_t)USBx;
 709              		.loc 1 515 1 is_stmt 1 view -0
 710              		.cfi_startproc
 711              		@ args = 0, pretend = 0, frame = 0
 712              		@ frame_needed = 0, uses_anonymous_args = 0
 713              		@ link register save eliminated.
 516:Drivers/STM32F4xx_HAL_Driver/Src/stm32f4xx_ll_usb.c **** 
 714              		.loc 1 516 3 view .LVU190
 518:Drivers/STM32F4xx_HAL_Driver/Src/stm32f4xx_ll_usb.c ****   return HAL_OK;
 715              		.loc 1 518 3 view .LVU191
 518:Drivers/STM32F4xx_HAL_Driver/Src/stm32f4xx_ll_usb.c ****   return HAL_OK;
 716              		.loc 1 518 21 is_stmt 0 view .LVU192
 717 0000 D0F80038 		ldr	r3, [r0, #2048]
 718 0004 1943     		orrs	r1, r1, r3
 719              	.LVL64:
 518:Drivers/STM32F4xx_HAL_Driver/Src/stm32f4xx_ll_usb.c ****   return HAL_OK;
 720              		.loc 1 518 21 view .LVU193
 721 0006 C0F80018 		str	r1, [r0, #2048]
 519:Drivers/STM32F4xx_HAL_Driver/Src/stm32f4xx_ll_usb.c **** }
 722              		.loc 1 519 3 is_stmt 1 view .LVU194
 520:Drivers/STM32F4xx_HAL_Driver/Src/stm32f4xx_ll_usb.c **** 
 723              		.loc 1 520 1 is_stmt 0 view .LVU195
 724 000a 0020     		movs	r0, #0
 725              	.LVL65:
 520:Drivers/STM32F4xx_HAL_Driver/Src/stm32f4xx_ll_usb.c **** 
 726              		.loc 1 520 1 view .LVU196
 727 000c 7047     		bx	lr
 728              		.cfi_endproc
 729              	.LFE138:
 731              		.section	.text.USB_DevInit,"ax",%progbits
 732              		.align	1
ARM GAS  /tmp/ccrTWjYe.s 			page 40


 733              		.global	USB_DevInit
 734              		.syntax unified
 735              		.thumb
 736              		.thumb_func
 737              		.fpu fpv4-sp-d16
 739              	USB_DevInit:
 740              	.LVL66:
 741              	.LFB135:
 279:Drivers/STM32F4xx_HAL_Driver/Src/stm32f4xx_ll_usb.c ****   HAL_StatusTypeDef ret = HAL_OK;
 742              		.loc 1 279 1 is_stmt 1 view -0
 743              		.cfi_startproc
 744              		@ args = 56, pretend = 16, frame = 0
 745              		@ frame_needed = 0, uses_anonymous_args = 0
 279:Drivers/STM32F4xx_HAL_Driver/Src/stm32f4xx_ll_usb.c ****   HAL_StatusTypeDef ret = HAL_OK;
 746              		.loc 1 279 1 is_stmt 0 view .LVU198
 747 0000 84B0     		sub	sp, sp, #16
 748              	.LCFI6:
 749              		.cfi_def_cfa_offset 16
 750 0002 F8B5     		push	{r3, r4, r5, r6, r7, lr}
 751              	.LCFI7:
 752              		.cfi_def_cfa_offset 40
 753              		.cfi_offset 3, -40
 754              		.cfi_offset 4, -36
 755              		.cfi_offset 5, -32
 756              		.cfi_offset 6, -28
 757              		.cfi_offset 7, -24
 758              		.cfi_offset 14, -20
 759 0004 0446     		mov	r4, r0
 760 0006 07A8     		add	r0, sp, #28
 761              	.LVL67:
 279:Drivers/STM32F4xx_HAL_Driver/Src/stm32f4xx_ll_usb.c ****   HAL_StatusTypeDef ret = HAL_OK;
 762              		.loc 1 279 1 view .LVU199
 763 0008 80E80E00 		stm	r0, {r1, r2, r3}
 280:Drivers/STM32F4xx_HAL_Driver/Src/stm32f4xx_ll_usb.c ****   uint32_t USBx_BASE = (uint32_t)USBx;
 764              		.loc 1 280 3 is_stmt 1 view .LVU200
 765              	.LVL68:
 281:Drivers/STM32F4xx_HAL_Driver/Src/stm32f4xx_ll_usb.c ****   uint32_t i;
 766              		.loc 1 281 3 view .LVU201
 281:Drivers/STM32F4xx_HAL_Driver/Src/stm32f4xx_ll_usb.c ****   uint32_t i;
 767              		.loc 1 281 12 is_stmt 0 view .LVU202
 768 000c 2546     		mov	r5, r4
 769              	.LVL69:
 282:Drivers/STM32F4xx_HAL_Driver/Src/stm32f4xx_ll_usb.c **** 
 770              		.loc 1 282 3 is_stmt 1 view .LVU203
 284:Drivers/STM32F4xx_HAL_Driver/Src/stm32f4xx_ll_usb.c ****   {
 771              		.loc 1 284 3 view .LVU204
 284:Drivers/STM32F4xx_HAL_Driver/Src/stm32f4xx_ll_usb.c ****   {
 772              		.loc 1 284 10 is_stmt 0 view .LVU205
 773 000e 0023     		movs	r3, #0
 774              	.LVL70:
 775              	.L56:
 284:Drivers/STM32F4xx_HAL_Driver/Src/stm32f4xx_ll_usb.c ****   {
 776              		.loc 1 284 3 discriminator 1 view .LVU206
 777 0010 0E2B     		cmp	r3, #14
 778 0012 07D8     		bhi	.L82
 286:Drivers/STM32F4xx_HAL_Driver/Src/stm32f4xx_ll_usb.c ****   }
 779              		.loc 1 286 5 is_stmt 1 discriminator 3 view .LVU207
ARM GAS  /tmp/ccrTWjYe.s 			page 41


 286:Drivers/STM32F4xx_HAL_Driver/Src/stm32f4xx_ll_usb.c ****   }
 780              		.loc 1 286 22 is_stmt 0 discriminator 3 view .LVU208
 781 0014 03F14002 		add	r2, r3, #64
 782 0018 04EB8202 		add	r2, r4, r2, lsl #2
 783 001c 0021     		movs	r1, #0
 784 001e 5160     		str	r1, [r2, #4]
 284:Drivers/STM32F4xx_HAL_Driver/Src/stm32f4xx_ll_usb.c ****   {
 785              		.loc 1 284 26 discriminator 3 view .LVU209
 786 0020 0133     		adds	r3, r3, #1
 787              	.LVL71:
 284:Drivers/STM32F4xx_HAL_Driver/Src/stm32f4xx_ll_usb.c ****   {
 788              		.loc 1 284 26 discriminator 3 view .LVU210
 789 0022 F5E7     		b	.L56
 790              	.L82:
 307:Drivers/STM32F4xx_HAL_Driver/Src/stm32f4xx_ll_usb.c ****   {
 791              		.loc 1 307 3 is_stmt 1 view .LVU211
 307:Drivers/STM32F4xx_HAL_Driver/Src/stm32f4xx_ll_usb.c ****   {
 792              		.loc 1 307 10 is_stmt 0 view .LVU212
 793 0024 119B     		ldr	r3, [sp, #68]
 794              	.LVL72:
 307:Drivers/STM32F4xx_HAL_Driver/Src/stm32f4xx_ll_usb.c ****   {
 795              		.loc 1 307 6 view .LVU213
 796 0026 F3B9     		cbnz	r3, .L58
 313:Drivers/STM32F4xx_HAL_Driver/Src/stm32f4xx_ll_usb.c ****     USBx->GCCFG &= ~USB_OTG_GCCFG_VBUSBSEN;
 797              		.loc 1 313 5 is_stmt 1 view .LVU214
 313:Drivers/STM32F4xx_HAL_Driver/Src/stm32f4xx_ll_usb.c ****     USBx->GCCFG &= ~USB_OTG_GCCFG_VBUSBSEN;
 798              		.loc 1 313 17 is_stmt 0 view .LVU215
 799 0028 A36B     		ldr	r3, [r4, #56]
 800 002a 43F40013 		orr	r3, r3, #2097152
 801 002e A363     		str	r3, [r4, #56]
 314:Drivers/STM32F4xx_HAL_Driver/Src/stm32f4xx_ll_usb.c ****     USBx->GCCFG &= ~USB_OTG_GCCFG_VBUSASEN;
 802              		.loc 1 314 5 is_stmt 1 view .LVU216
 314:Drivers/STM32F4xx_HAL_Driver/Src/stm32f4xx_ll_usb.c ****     USBx->GCCFG &= ~USB_OTG_GCCFG_VBUSASEN;
 803              		.loc 1 314 17 is_stmt 0 view .LVU217
 804 0030 A36B     		ldr	r3, [r4, #56]
 805 0032 23F40023 		bic	r3, r3, #524288
 806 0036 A363     		str	r3, [r4, #56]
 315:Drivers/STM32F4xx_HAL_Driver/Src/stm32f4xx_ll_usb.c ****   }
 807              		.loc 1 315 5 is_stmt 1 view .LVU218
 315:Drivers/STM32F4xx_HAL_Driver/Src/stm32f4xx_ll_usb.c ****   }
 808              		.loc 1 315 17 is_stmt 0 view .LVU219
 809 0038 A36B     		ldr	r3, [r4, #56]
 810 003a 23F48023 		bic	r3, r3, #262144
 811 003e A363     		str	r3, [r4, #56]
 812              	.L59:
 326:Drivers/STM32F4xx_HAL_Driver/Src/stm32f4xx_ll_usb.c **** 
 813              		.loc 1 326 3 is_stmt 1 view .LVU220
 326:Drivers/STM32F4xx_HAL_Driver/Src/stm32f4xx_ll_usb.c **** 
 814              		.loc 1 326 16 is_stmt 0 view .LVU221
 815 0040 0023     		movs	r3, #0
 816 0042 C4F8003E 		str	r3, [r4, #3584]
 329:Drivers/STM32F4xx_HAL_Driver/Src/stm32f4xx_ll_usb.c **** 
 817              		.loc 1 329 3 is_stmt 1 view .LVU222
 329:Drivers/STM32F4xx_HAL_Driver/Src/stm32f4xx_ll_usb.c **** 
 818              		.loc 1 329 21 is_stmt 0 view .LVU223
 819 0046 04F50066 		add	r6, r4, #2048
 820 004a D4F80038 		ldr	r3, [r4, #2048]
ARM GAS  /tmp/ccrTWjYe.s 			page 42


 821 004e C4F80038 		str	r3, [r4, #2048]
 331:Drivers/STM32F4xx_HAL_Driver/Src/stm32f4xx_ll_usb.c ****   {
 822              		.loc 1 331 3 is_stmt 1 view .LVU224
 331:Drivers/STM32F4xx_HAL_Driver/Src/stm32f4xx_ll_usb.c ****   {
 823              		.loc 1 331 10 is_stmt 0 view .LVU225
 824 0052 0C9B     		ldr	r3, [sp, #48]
 331:Drivers/STM32F4xx_HAL_Driver/Src/stm32f4xx_ll_usb.c ****   {
 825              		.loc 1 331 6 view .LVU226
 826 0054 012B     		cmp	r3, #1
 827 0056 14D1     		bne	.L60
 333:Drivers/STM32F4xx_HAL_Driver/Src/stm32f4xx_ll_usb.c ****     {
 828              		.loc 1 333 5 is_stmt 1 view .LVU227
 333:Drivers/STM32F4xx_HAL_Driver/Src/stm32f4xx_ll_usb.c ****     {
 829              		.loc 1 333 12 is_stmt 0 view .LVU228
 830 0058 099B     		ldr	r3, [sp, #36]
 333:Drivers/STM32F4xx_HAL_Driver/Src/stm32f4xx_ll_usb.c ****     {
 831              		.loc 1 333 8 view .LVU229
 832 005a 6BB9     		cbnz	r3, .L61
 336:Drivers/STM32F4xx_HAL_Driver/Src/stm32f4xx_ll_usb.c ****     }
 833              		.loc 1 336 7 is_stmt 1 view .LVU230
 336:Drivers/STM32F4xx_HAL_Driver/Src/stm32f4xx_ll_usb.c ****     }
 834              		.loc 1 336 13 is_stmt 0 view .LVU231
 835 005c 0021     		movs	r1, #0
 836 005e 2046     		mov	r0, r4
 837 0060 FFF7FEFF 		bl	USB_SetDevSpeed
 838              	.LVL73:
 839 0064 11E0     		b	.L62
 840              	.L58:
 320:Drivers/STM32F4xx_HAL_Driver/Src/stm32f4xx_ll_usb.c ****     USBx->GCCFG |= USB_OTG_GCCFG_VBUSBSEN;
 841              		.loc 1 320 5 is_stmt 1 view .LVU232
 320:Drivers/STM32F4xx_HAL_Driver/Src/stm32f4xx_ll_usb.c ****     USBx->GCCFG |= USB_OTG_GCCFG_VBUSBSEN;
 842              		.loc 1 320 19 is_stmt 0 view .LVU233
 843 0066 2368     		ldr	r3, [r4]
 844 0068 23F40013 		bic	r3, r3, #2097152
 845 006c 2360     		str	r3, [r4]
 321:Drivers/STM32F4xx_HAL_Driver/Src/stm32f4xx_ll_usb.c ****   }
 846              		.loc 1 321 5 is_stmt 1 view .LVU234
 321:Drivers/STM32F4xx_HAL_Driver/Src/stm32f4xx_ll_usb.c ****   }
 847              		.loc 1 321 17 is_stmt 0 view .LVU235
 848 006e A36B     		ldr	r3, [r4, #56]
 849 0070 43F40023 		orr	r3, r3, #524288
 850 0074 A363     		str	r3, [r4, #56]
 851 0076 E3E7     		b	.L59
 852              	.L61:
 341:Drivers/STM32F4xx_HAL_Driver/Src/stm32f4xx_ll_usb.c ****     }
 853              		.loc 1 341 7 is_stmt 1 view .LVU236
 341:Drivers/STM32F4xx_HAL_Driver/Src/stm32f4xx_ll_usb.c ****     }
 854              		.loc 1 341 13 is_stmt 0 view .LVU237
 855 0078 0121     		movs	r1, #1
 856 007a 2046     		mov	r0, r4
 857 007c FFF7FEFF 		bl	USB_SetDevSpeed
 858              	.LVL74:
 859 0080 03E0     		b	.L62
 860              	.L60:
 347:Drivers/STM32F4xx_HAL_Driver/Src/stm32f4xx_ll_usb.c ****   }
 861              		.loc 1 347 5 is_stmt 1 view .LVU238
 347:Drivers/STM32F4xx_HAL_Driver/Src/stm32f4xx_ll_usb.c ****   }
ARM GAS  /tmp/ccrTWjYe.s 			page 43


 862              		.loc 1 347 11 is_stmt 0 view .LVU239
 863 0082 0321     		movs	r1, #3
 864 0084 2046     		mov	r0, r4
 865 0086 FFF7FEFF 		bl	USB_SetDevSpeed
 866              	.LVL75:
 867              	.L62:
 351:Drivers/STM32F4xx_HAL_Driver/Src/stm32f4xx_ll_usb.c ****   {
 868              		.loc 1 351 3 is_stmt 1 view .LVU240
 351:Drivers/STM32F4xx_HAL_Driver/Src/stm32f4xx_ll_usb.c ****   {
 869              		.loc 1 351 7 is_stmt 0 view .LVU241
 870 008a 1021     		movs	r1, #16
 871 008c 2046     		mov	r0, r4
 872 008e FFF7FEFF 		bl	USB_FlushTxFifo
 873              	.LVL76:
 351:Drivers/STM32F4xx_HAL_Driver/Src/stm32f4xx_ll_usb.c ****   {
 874              		.loc 1 351 6 view .LVU242
 875 0092 0746     		mov	r7, r0
 876 0094 00B1     		cbz	r0, .L63
 353:Drivers/STM32F4xx_HAL_Driver/Src/stm32f4xx_ll_usb.c ****   }
 877              		.loc 1 353 9 view .LVU243
 878 0096 0127     		movs	r7, #1
 879              	.L63:
 880              	.LVL77:
 356:Drivers/STM32F4xx_HAL_Driver/Src/stm32f4xx_ll_usb.c ****   {
 881              		.loc 1 356 3 is_stmt 1 view .LVU244
 356:Drivers/STM32F4xx_HAL_Driver/Src/stm32f4xx_ll_usb.c ****   {
 882              		.loc 1 356 7 is_stmt 0 view .LVU245
 883 0098 2046     		mov	r0, r4
 884 009a FFF7FEFF 		bl	USB_FlushRxFifo
 885              	.LVL78:
 356:Drivers/STM32F4xx_HAL_Driver/Src/stm32f4xx_ll_usb.c ****   {
 886              		.loc 1 356 6 view .LVU246
 887 009e 00B1     		cbz	r0, .L64
 358:Drivers/STM32F4xx_HAL_Driver/Src/stm32f4xx_ll_usb.c ****   }
 888              		.loc 1 358 9 view .LVU247
 889 00a0 0127     		movs	r7, #1
 890              	.LVL79:
 891              	.L64:
 362:Drivers/STM32F4xx_HAL_Driver/Src/stm32f4xx_ll_usb.c ****   USBx_DEVICE->DOEPMSK = 0U;
 892              		.loc 1 362 3 is_stmt 1 view .LVU248
 362:Drivers/STM32F4xx_HAL_Driver/Src/stm32f4xx_ll_usb.c ****   USBx_DEVICE->DOEPMSK = 0U;
 893              		.loc 1 362 24 is_stmt 0 view .LVU249
 894 00a2 0023     		movs	r3, #0
 895 00a4 3361     		str	r3, [r6, #16]
 363:Drivers/STM32F4xx_HAL_Driver/Src/stm32f4xx_ll_usb.c ****   USBx_DEVICE->DAINTMSK = 0U;
 896              		.loc 1 363 3 is_stmt 1 view .LVU250
 363:Drivers/STM32F4xx_HAL_Driver/Src/stm32f4xx_ll_usb.c ****   USBx_DEVICE->DAINTMSK = 0U;
 897              		.loc 1 363 24 is_stmt 0 view .LVU251
 898 00a6 7361     		str	r3, [r6, #20]
 364:Drivers/STM32F4xx_HAL_Driver/Src/stm32f4xx_ll_usb.c **** 
 899              		.loc 1 364 3 is_stmt 1 view .LVU252
 364:Drivers/STM32F4xx_HAL_Driver/Src/stm32f4xx_ll_usb.c **** 
 900              		.loc 1 364 25 is_stmt 0 view .LVU253
 901 00a8 F361     		str	r3, [r6, #28]
 366:Drivers/STM32F4xx_HAL_Driver/Src/stm32f4xx_ll_usb.c ****   {
 902              		.loc 1 366 3 is_stmt 1 view .LVU254
 903              	.LVL80:
ARM GAS  /tmp/ccrTWjYe.s 			page 44


 366:Drivers/STM32F4xx_HAL_Driver/Src/stm32f4xx_ll_usb.c ****   {
 904              		.loc 1 366 3 is_stmt 0 view .LVU255
 905 00aa 0AE0     		b	.L65
 906              	.LVL81:
 907              	.L84:
 370:Drivers/STM32F4xx_HAL_Driver/Src/stm32f4xx_ll_usb.c ****       {
 908              		.loc 1 370 7 is_stmt 1 view .LVU256
 370:Drivers/STM32F4xx_HAL_Driver/Src/stm32f4xx_ll_usb.c ****       {
 909              		.loc 1 370 10 is_stmt 0 view .LVU257
 910 00ac C3B9     		cbnz	r3, .L67
 372:Drivers/STM32F4xx_HAL_Driver/Src/stm32f4xx_ll_usb.c ****       }
 911              		.loc 1 372 9 is_stmt 1 view .LVU258
 372:Drivers/STM32F4xx_HAL_Driver/Src/stm32f4xx_ll_usb.c ****       }
 912              		.loc 1 372 31 is_stmt 0 view .LVU259
 913 00ae 4FF00060 		mov	r0, #134217728
 914 00b2 C2F80009 		str	r0, [r2, #2304]
 915              	.L68:
 384:Drivers/STM32F4xx_HAL_Driver/Src/stm32f4xx_ll_usb.c ****     USBx_INEP(i)->DIEPINT  = 0xFB7FU;
 916              		.loc 1 384 5 is_stmt 1 discriminator 2 view .LVU260
 384:Drivers/STM32F4xx_HAL_Driver/Src/stm32f4xx_ll_usb.c ****     USBx_INEP(i)->DIEPINT  = 0xFB7FU;
 917              		.loc 1 384 28 is_stmt 0 discriminator 2 view .LVU261
 918 00b6 0022     		movs	r2, #0
 919 00b8 0A61     		str	r2, [r1, #16]
 385:Drivers/STM32F4xx_HAL_Driver/Src/stm32f4xx_ll_usb.c ****   }
 920              		.loc 1 385 5 is_stmt 1 discriminator 2 view .LVU262
 385:Drivers/STM32F4xx_HAL_Driver/Src/stm32f4xx_ll_usb.c ****   }
 921              		.loc 1 385 28 is_stmt 0 discriminator 2 view .LVU263
 922 00ba 4FF67F32 		movw	r2, #64383
 923 00be 8A60     		str	r2, [r1, #8]
 366:Drivers/STM32F4xx_HAL_Driver/Src/stm32f4xx_ll_usb.c ****   {
 924              		.loc 1 366 40 discriminator 2 view .LVU264
 925 00c0 0133     		adds	r3, r3, #1
 926              	.LVL82:
 927              	.L65:
 366:Drivers/STM32F4xx_HAL_Driver/Src/stm32f4xx_ll_usb.c ****   {
 928              		.loc 1 366 23 discriminator 1 view .LVU265
 929 00c2 079A     		ldr	r2, [sp, #28]
 366:Drivers/STM32F4xx_HAL_Driver/Src/stm32f4xx_ll_usb.c ****   {
 930              		.loc 1 366 3 discriminator 1 view .LVU266
 931 00c4 9A42     		cmp	r2, r3
 932 00c6 10D9     		bls	.L83
 368:Drivers/STM32F4xx_HAL_Driver/Src/stm32f4xx_ll_usb.c ****     {
 933              		.loc 1 368 5 is_stmt 1 view .LVU267
 368:Drivers/STM32F4xx_HAL_Driver/Src/stm32f4xx_ll_usb.c ****     {
 934              		.loc 1 368 10 is_stmt 0 view .LVU268
 935 00c8 05EB4312 		add	r2, r5, r3, lsl #5
 936 00cc 02F51061 		add	r1, r2, #2304
 368:Drivers/STM32F4xx_HAL_Driver/Src/stm32f4xx_ll_usb.c ****     {
 937              		.loc 1 368 22 view .LVU269
 938 00d0 D2F80009 		ldr	r0, [r2, #2304]
 368:Drivers/STM32F4xx_HAL_Driver/Src/stm32f4xx_ll_usb.c ****     {
 939              		.loc 1 368 8 view .LVU270
 940 00d4 0028     		cmp	r0, #0
 941 00d6 E9DB     		blt	.L84
 381:Drivers/STM32F4xx_HAL_Driver/Src/stm32f4xx_ll_usb.c ****     }
 942              		.loc 1 381 7 is_stmt 1 view .LVU271
 381:Drivers/STM32F4xx_HAL_Driver/Src/stm32f4xx_ll_usb.c ****     }
ARM GAS  /tmp/ccrTWjYe.s 			page 45


 943              		.loc 1 381 29 is_stmt 0 view .LVU272
 944 00d8 0020     		movs	r0, #0
 945 00da C2F80009 		str	r0, [r2, #2304]
 946 00de EAE7     		b	.L68
 947              	.L67:
 376:Drivers/STM32F4xx_HAL_Driver/Src/stm32f4xx_ll_usb.c ****       }
 948              		.loc 1 376 9 is_stmt 1 view .LVU273
 376:Drivers/STM32F4xx_HAL_Driver/Src/stm32f4xx_ll_usb.c ****       }
 949              		.loc 1 376 31 is_stmt 0 view .LVU274
 950 00e0 4FF09040 		mov	r0, #1207959552
 951 00e4 C2F80009 		str	r0, [r2, #2304]
 952 00e8 E5E7     		b	.L68
 953              	.L83:
 388:Drivers/STM32F4xx_HAL_Driver/Src/stm32f4xx_ll_usb.c ****   {
 954              		.loc 1 388 10 view .LVU275
 955 00ea 0023     		movs	r3, #0
 956              	.LVL83:
 388:Drivers/STM32F4xx_HAL_Driver/Src/stm32f4xx_ll_usb.c ****   {
 957              		.loc 1 388 10 view .LVU276
 958 00ec 0AE0     		b	.L70
 959              	.LVL84:
 960              	.L86:
 392:Drivers/STM32F4xx_HAL_Driver/Src/stm32f4xx_ll_usb.c ****       {
 961              		.loc 1 392 7 is_stmt 1 view .LVU277
 392:Drivers/STM32F4xx_HAL_Driver/Src/stm32f4xx_ll_usb.c ****       {
 962              		.loc 1 392 10 is_stmt 0 view .LVU278
 963 00ee C3B9     		cbnz	r3, .L72
 394:Drivers/STM32F4xx_HAL_Driver/Src/stm32f4xx_ll_usb.c ****       }
 964              		.loc 1 394 9 is_stmt 1 view .LVU279
 394:Drivers/STM32F4xx_HAL_Driver/Src/stm32f4xx_ll_usb.c ****       }
 965              		.loc 1 394 32 is_stmt 0 view .LVU280
 966 00f0 4FF00060 		mov	r0, #134217728
 967 00f4 C2F8000B 		str	r0, [r2, #2816]
 968              	.L73:
 406:Drivers/STM32F4xx_HAL_Driver/Src/stm32f4xx_ll_usb.c ****     USBx_OUTEP(i)->DOEPINT  = 0xFB7FU;
 969              		.loc 1 406 5 is_stmt 1 discriminator 2 view .LVU281
 406:Drivers/STM32F4xx_HAL_Driver/Src/stm32f4xx_ll_usb.c ****     USBx_OUTEP(i)->DOEPINT  = 0xFB7FU;
 970              		.loc 1 406 29 is_stmt 0 discriminator 2 view .LVU282
 971 00f8 0022     		movs	r2, #0
 972 00fa 0A61     		str	r2, [r1, #16]
 407:Drivers/STM32F4xx_HAL_Driver/Src/stm32f4xx_ll_usb.c ****   }
 973              		.loc 1 407 5 is_stmt 1 discriminator 2 view .LVU283
 407:Drivers/STM32F4xx_HAL_Driver/Src/stm32f4xx_ll_usb.c ****   }
 974              		.loc 1 407 29 is_stmt 0 discriminator 2 view .LVU284
 975 00fc 4FF67F32 		movw	r2, #64383
 976 0100 8A60     		str	r2, [r1, #8]
 388:Drivers/STM32F4xx_HAL_Driver/Src/stm32f4xx_ll_usb.c ****   {
 977              		.loc 1 388 40 discriminator 2 view .LVU285
 978 0102 0133     		adds	r3, r3, #1
 979              	.LVL85:
 980              	.L70:
 388:Drivers/STM32F4xx_HAL_Driver/Src/stm32f4xx_ll_usb.c ****   {
 981              		.loc 1 388 23 discriminator 1 view .LVU286
 982 0104 079A     		ldr	r2, [sp, #28]
 388:Drivers/STM32F4xx_HAL_Driver/Src/stm32f4xx_ll_usb.c ****   {
 983              		.loc 1 388 3 discriminator 1 view .LVU287
 984 0106 9A42     		cmp	r2, r3
ARM GAS  /tmp/ccrTWjYe.s 			page 46


 985 0108 10D9     		bls	.L85
 390:Drivers/STM32F4xx_HAL_Driver/Src/stm32f4xx_ll_usb.c ****     {
 986              		.loc 1 390 5 is_stmt 1 view .LVU288
 390:Drivers/STM32F4xx_HAL_Driver/Src/stm32f4xx_ll_usb.c ****     {
 987              		.loc 1 390 10 is_stmt 0 view .LVU289
 988 010a 05EB4312 		add	r2, r5, r3, lsl #5
 989 010e 02F53061 		add	r1, r2, #2816
 390:Drivers/STM32F4xx_HAL_Driver/Src/stm32f4xx_ll_usb.c ****     {
 990              		.loc 1 390 23 view .LVU290
 991 0112 D2F8000B 		ldr	r0, [r2, #2816]
 390:Drivers/STM32F4xx_HAL_Driver/Src/stm32f4xx_ll_usb.c ****     {
 992              		.loc 1 390 8 view .LVU291
 993 0116 0028     		cmp	r0, #0
 994 0118 E9DB     		blt	.L86
 403:Drivers/STM32F4xx_HAL_Driver/Src/stm32f4xx_ll_usb.c ****     }
 995              		.loc 1 403 7 is_stmt 1 view .LVU292
 403:Drivers/STM32F4xx_HAL_Driver/Src/stm32f4xx_ll_usb.c ****     }
 996              		.loc 1 403 30 is_stmt 0 view .LVU293
 997 011a 0020     		movs	r0, #0
 998 011c C2F8000B 		str	r0, [r2, #2816]
 999 0120 EAE7     		b	.L73
 1000              	.L72:
 398:Drivers/STM32F4xx_HAL_Driver/Src/stm32f4xx_ll_usb.c ****       }
 1001              		.loc 1 398 9 is_stmt 1 view .LVU294
 398:Drivers/STM32F4xx_HAL_Driver/Src/stm32f4xx_ll_usb.c ****       }
 1002              		.loc 1 398 32 is_stmt 0 view .LVU295
 1003 0122 4FF09040 		mov	r0, #1207959552
 1004 0126 C2F8000B 		str	r0, [r2, #2816]
 1005 012a E5E7     		b	.L73
 1006              	.L85:
 410:Drivers/STM32F4xx_HAL_Driver/Src/stm32f4xx_ll_usb.c **** 
 1007              		.loc 1 410 3 is_stmt 1 view .LVU296
 410:Drivers/STM32F4xx_HAL_Driver/Src/stm32f4xx_ll_usb.c **** 
 1008              		.loc 1 410 24 is_stmt 0 view .LVU297
 1009 012c 3369     		ldr	r3, [r6, #16]
 1010              	.LVL86:
 410:Drivers/STM32F4xx_HAL_Driver/Src/stm32f4xx_ll_usb.c **** 
 1011              		.loc 1 410 24 view .LVU298
 1012 012e 23F48073 		bic	r3, r3, #256
 1013 0132 3361     		str	r3, [r6, #16]
 412:Drivers/STM32F4xx_HAL_Driver/Src/stm32f4xx_ll_usb.c ****   {
 1014              		.loc 1 412 3 is_stmt 1 view .LVU299
 412:Drivers/STM32F4xx_HAL_Driver/Src/stm32f4xx_ll_usb.c ****   {
 1015              		.loc 1 412 10 is_stmt 0 view .LVU300
 1016 0134 0A9B     		ldr	r3, [sp, #40]
 412:Drivers/STM32F4xx_HAL_Driver/Src/stm32f4xx_ll_usb.c ****   {
 1017              		.loc 1 412 6 view .LVU301
 1018 0136 012B     		cmp	r3, #1
 1019 0138 1BD0     		beq	.L87
 1020              	.L75:
 424:Drivers/STM32F4xx_HAL_Driver/Src/stm32f4xx_ll_usb.c **** 
 1021              		.loc 1 424 3 is_stmt 1 view .LVU302
 424:Drivers/STM32F4xx_HAL_Driver/Src/stm32f4xx_ll_usb.c **** 
 1022              		.loc 1 424 17 is_stmt 0 view .LVU303
 1023 013a 0022     		movs	r2, #0
 1024 013c A261     		str	r2, [r4, #24]
 427:Drivers/STM32F4xx_HAL_Driver/Src/stm32f4xx_ll_usb.c **** 
ARM GAS  /tmp/ccrTWjYe.s 			page 47


 1025              		.loc 1 427 3 is_stmt 1 view .LVU304
 427:Drivers/STM32F4xx_HAL_Driver/Src/stm32f4xx_ll_usb.c **** 
 1026              		.loc 1 427 17 is_stmt 0 view .LVU305
 1027 013e 6FF08042 		mvn	r2, #1073741824
 1028 0142 6261     		str	r2, [r4, #20]
 430:Drivers/STM32F4xx_HAL_Driver/Src/stm32f4xx_ll_usb.c ****   {
 1029              		.loc 1 430 3 is_stmt 1 view .LVU306
 430:Drivers/STM32F4xx_HAL_Driver/Src/stm32f4xx_ll_usb.c ****   {
 1030              		.loc 1 430 6 is_stmt 0 view .LVU307
 1031 0144 1BB9     		cbnz	r3, .L76
 432:Drivers/STM32F4xx_HAL_Driver/Src/stm32f4xx_ll_usb.c ****   }
 1032              		.loc 1 432 5 is_stmt 1 view .LVU308
 432:Drivers/STM32F4xx_HAL_Driver/Src/stm32f4xx_ll_usb.c ****   }
 1033              		.loc 1 432 19 is_stmt 0 view .LVU309
 1034 0146 A369     		ldr	r3, [r4, #24]
 1035 0148 43F01003 		orr	r3, r3, #16
 1036 014c A361     		str	r3, [r4, #24]
 1037              	.L76:
 436:Drivers/STM32F4xx_HAL_Driver/Src/stm32f4xx_ll_usb.c ****                    USB_OTG_GINTMSK_ENUMDNEM | USB_OTG_GINTMSK_IEPINT |
 1038              		.loc 1 436 3 is_stmt 1 view .LVU310
 436:Drivers/STM32F4xx_HAL_Driver/Src/stm32f4xx_ll_usb.c ****                    USB_OTG_GINTMSK_ENUMDNEM | USB_OTG_GINTMSK_IEPINT |
 1039              		.loc 1 436 17 is_stmt 0 view .LVU311
 1040 014e A269     		ldr	r2, [r4, #24]
 1041 0150 104B     		ldr	r3, .L89
 1042 0152 1343     		orrs	r3, r3, r2
 1043 0154 A361     		str	r3, [r4, #24]
 441:Drivers/STM32F4xx_HAL_Driver/Src/stm32f4xx_ll_usb.c ****   {
 1044              		.loc 1 441 3 is_stmt 1 view .LVU312
 441:Drivers/STM32F4xx_HAL_Driver/Src/stm32f4xx_ll_usb.c ****   {
 1045              		.loc 1 441 10 is_stmt 0 view .LVU313
 1046 0156 0D9B     		ldr	r3, [sp, #52]
 441:Drivers/STM32F4xx_HAL_Driver/Src/stm32f4xx_ll_usb.c ****   {
 1047              		.loc 1 441 6 view .LVU314
 1048 0158 1BB1     		cbz	r3, .L77
 443:Drivers/STM32F4xx_HAL_Driver/Src/stm32f4xx_ll_usb.c ****   }
 1049              		.loc 1 443 5 is_stmt 1 view .LVU315
 443:Drivers/STM32F4xx_HAL_Driver/Src/stm32f4xx_ll_usb.c ****   }
 1050              		.loc 1 443 19 is_stmt 0 view .LVU316
 1051 015a A369     		ldr	r3, [r4, #24]
 1052 015c 43F00803 		orr	r3, r3, #8
 1053 0160 A361     		str	r3, [r4, #24]
 1054              	.L77:
 446:Drivers/STM32F4xx_HAL_Driver/Src/stm32f4xx_ll_usb.c ****   {
 1055              		.loc 1 446 3 is_stmt 1 view .LVU317
 446:Drivers/STM32F4xx_HAL_Driver/Src/stm32f4xx_ll_usb.c ****   {
 1056              		.loc 1 446 10 is_stmt 0 view .LVU318
 1057 0162 119B     		ldr	r3, [sp, #68]
 446:Drivers/STM32F4xx_HAL_Driver/Src/stm32f4xx_ll_usb.c ****   {
 1058              		.loc 1 446 6 view .LVU319
 1059 0164 012B     		cmp	r3, #1
 1060 0166 0DD0     		beq	.L88
 1061              	.L78:
 451:Drivers/STM32F4xx_HAL_Driver/Src/stm32f4xx_ll_usb.c **** }
 1062              		.loc 1 451 3 is_stmt 1 view .LVU320
 452:Drivers/STM32F4xx_HAL_Driver/Src/stm32f4xx_ll_usb.c **** 
 1063              		.loc 1 452 1 is_stmt 0 view .LVU321
 1064 0168 3846     		mov	r0, r7
ARM GAS  /tmp/ccrTWjYe.s 			page 48


 1065 016a BDE8F840 		pop	{r3, r4, r5, r6, r7, lr}
 1066              	.LCFI8:
 1067              		.cfi_remember_state
 1068              		.cfi_restore 14
 1069              		.cfi_restore 7
 1070              		.cfi_restore 6
 1071              		.cfi_restore 5
 1072              		.cfi_restore 4
 1073              		.cfi_restore 3
 1074              		.cfi_def_cfa_offset 16
 1075              	.LVL87:
 452:Drivers/STM32F4xx_HAL_Driver/Src/stm32f4xx_ll_usb.c **** 
 1076              		.loc 1 452 1 view .LVU322
 1077 016e 04B0     		add	sp, sp, #16
 1078              	.LCFI9:
 1079              		.cfi_def_cfa_offset 0
 1080 0170 7047     		bx	lr
 1081              	.LVL88:
 1082              	.L87:
 1083              	.LCFI10:
 1084              		.cfi_restore_state
 415:Drivers/STM32F4xx_HAL_Driver/Src/stm32f4xx_ll_usb.c ****                            USB_OTG_DTHRCTL_RXTHRLEN_6;
 1085              		.loc 1 415 5 is_stmt 1 view .LVU323
 415:Drivers/STM32F4xx_HAL_Driver/Src/stm32f4xx_ll_usb.c ****                            USB_OTG_DTHRCTL_RXTHRLEN_6;
 1086              		.loc 1 415 26 is_stmt 0 view .LVU324
 1087 0172 094A     		ldr	r2, .L89+4
 1088 0174 3263     		str	r2, [r6, #48]
 418:Drivers/STM32F4xx_HAL_Driver/Src/stm32f4xx_ll_usb.c ****                             USB_OTG_DTHRCTL_ISOTHREN |
 1089              		.loc 1 418 5 is_stmt 1 view .LVU325
 418:Drivers/STM32F4xx_HAL_Driver/Src/stm32f4xx_ll_usb.c ****                             USB_OTG_DTHRCTL_ISOTHREN |
 1090              		.loc 1 418 26 is_stmt 0 view .LVU326
 1091 0176 326B     		ldr	r2, [r6, #48]
 1092 0178 42F48032 		orr	r2, r2, #65536
 1093 017c 42F00302 		orr	r2, r2, #3
 1094 0180 3263     		str	r2, [r6, #48]
 1095 0182 DAE7     		b	.L75
 1096              	.L88:
 448:Drivers/STM32F4xx_HAL_Driver/Src/stm32f4xx_ll_usb.c ****   }
 1097              		.loc 1 448 5 is_stmt 1 view .LVU327
 448:Drivers/STM32F4xx_HAL_Driver/Src/stm32f4xx_ll_usb.c ****   }
 1098              		.loc 1 448 19 is_stmt 0 view .LVU328
 1099 0184 A369     		ldr	r3, [r4, #24]
 1100 0186 43F08043 		orr	r3, r3, #1073741824
 1101 018a 43F00403 		orr	r3, r3, #4
 1102 018e A361     		str	r3, [r4, #24]
 1103 0190 EAE7     		b	.L78
 1104              	.L90:
 1105 0192 00BF     		.align	2
 1106              	.L89:
 1107 0194 00383C80 		.word	-2143537152
 1108 0198 00018000 		.word	8388864
 1109              		.cfi_endproc
 1110              	.LFE135:
 1112              		.section	.text.USB_GetDevSpeed,"ax",%progbits
 1113              		.align	1
 1114              		.global	USB_GetDevSpeed
 1115              		.syntax unified
ARM GAS  /tmp/ccrTWjYe.s 			page 49


 1116              		.thumb
 1117              		.thumb_func
 1118              		.fpu fpv4-sp-d16
 1120              	USB_GetDevSpeed:
 1121              	.LVL89:
 1122              	.LFB139:
 531:Drivers/STM32F4xx_HAL_Driver/Src/stm32f4xx_ll_usb.c ****   uint32_t USBx_BASE = (uint32_t)USBx;
 1123              		.loc 1 531 1 is_stmt 1 view -0
 1124              		.cfi_startproc
 1125              		@ args = 0, pretend = 0, frame = 0
 1126              		@ frame_needed = 0, uses_anonymous_args = 0
 1127              		@ link register save eliminated.
 532:Drivers/STM32F4xx_HAL_Driver/Src/stm32f4xx_ll_usb.c ****   uint8_t speed;
 1128              		.loc 1 532 3 view .LVU330
 533:Drivers/STM32F4xx_HAL_Driver/Src/stm32f4xx_ll_usb.c ****   uint32_t DevEnumSpeed = USBx_DEVICE->DSTS & USB_OTG_DSTS_ENUMSPD;
 1129              		.loc 1 533 3 view .LVU331
 534:Drivers/STM32F4xx_HAL_Driver/Src/stm32f4xx_ll_usb.c **** 
 1130              		.loc 1 534 3 view .LVU332
 534:Drivers/STM32F4xx_HAL_Driver/Src/stm32f4xx_ll_usb.c **** 
 1131              		.loc 1 534 38 is_stmt 0 view .LVU333
 1132 0000 D0F80838 		ldr	r3, [r0, #2056]
 1133              	.LVL90:
 536:Drivers/STM32F4xx_HAL_Driver/Src/stm32f4xx_ll_usb.c ****   {
 1134              		.loc 1 536 3 is_stmt 1 view .LVU334
 536:Drivers/STM32F4xx_HAL_Driver/Src/stm32f4xx_ll_usb.c ****   {
 1135              		.loc 1 536 6 is_stmt 0 view .LVU335
 1136 0004 13F00603 		ands	r3, r3, #6
 1137              	.LVL91:
 536:Drivers/STM32F4xx_HAL_Driver/Src/stm32f4xx_ll_usb.c ****   {
 1138              		.loc 1 536 6 view .LVU336
 1139 0008 07D0     		beq	.L93
 540:Drivers/STM32F4xx_HAL_Driver/Src/stm32f4xx_ll_usb.c ****            (DevEnumSpeed == DSTS_ENUMSPD_FS_PHY_48MHZ))
 1140              		.loc 1 540 8 is_stmt 1 view .LVU337
 540:Drivers/STM32F4xx_HAL_Driver/Src/stm32f4xx_ll_usb.c ****            (DevEnumSpeed == DSTS_ENUMSPD_FS_PHY_48MHZ))
 1141              		.loc 1 540 11 is_stmt 0 view .LVU338
 1142 000a 022B     		cmp	r3, #2
 1143 000c 07D0     		beq	.L94
 540:Drivers/STM32F4xx_HAL_Driver/Src/stm32f4xx_ll_usb.c ****            (DevEnumSpeed == DSTS_ENUMSPD_FS_PHY_48MHZ))
 1144              		.loc 1 540 65 discriminator 1 view .LVU339
 1145 000e 062B     		cmp	r3, #6
 1146 0010 01D0     		beq	.L96
 547:Drivers/STM32F4xx_HAL_Driver/Src/stm32f4xx_ll_usb.c ****   }
 1147              		.loc 1 547 11 view .LVU340
 1148 0012 0F20     		movs	r0, #15
 1149              	.LVL92:
 550:Drivers/STM32F4xx_HAL_Driver/Src/stm32f4xx_ll_usb.c **** }
 1150              		.loc 1 550 3 is_stmt 1 view .LVU341
 551:Drivers/STM32F4xx_HAL_Driver/Src/stm32f4xx_ll_usb.c **** 
 1151              		.loc 1 551 1 is_stmt 0 view .LVU342
 1152 0014 7047     		bx	lr
 1153              	.LVL93:
 1154              	.L96:
 543:Drivers/STM32F4xx_HAL_Driver/Src/stm32f4xx_ll_usb.c ****   }
 1155              		.loc 1 543 11 view .LVU343
 1156 0016 0220     		movs	r0, #2
 1157              	.LVL94:
 543:Drivers/STM32F4xx_HAL_Driver/Src/stm32f4xx_ll_usb.c ****   }
ARM GAS  /tmp/ccrTWjYe.s 			page 50


 1158              		.loc 1 543 11 view .LVU344
 1159 0018 7047     		bx	lr
 1160              	.LVL95:
 1161              	.L93:
 538:Drivers/STM32F4xx_HAL_Driver/Src/stm32f4xx_ll_usb.c ****   }
 1162              		.loc 1 538 11 view .LVU345
 1163 001a 0020     		movs	r0, #0
 1164              	.LVL96:
 538:Drivers/STM32F4xx_HAL_Driver/Src/stm32f4xx_ll_usb.c ****   }
 1165              		.loc 1 538 11 view .LVU346
 1166 001c 7047     		bx	lr
 1167              	.LVL97:
 1168              	.L94:
 543:Drivers/STM32F4xx_HAL_Driver/Src/stm32f4xx_ll_usb.c ****   }
 1169              		.loc 1 543 11 view .LVU347
 1170 001e 0220     		movs	r0, #2
 1171              	.LVL98:
 543:Drivers/STM32F4xx_HAL_Driver/Src/stm32f4xx_ll_usb.c ****   }
 1172              		.loc 1 543 11 view .LVU348
 1173 0020 7047     		bx	lr
 1174              		.cfi_endproc
 1175              	.LFE139:
 1177              		.section	.text.USB_ActivateEndpoint,"ax",%progbits
 1178              		.align	1
 1179              		.global	USB_ActivateEndpoint
 1180              		.syntax unified
 1181              		.thumb
 1182              		.thumb_func
 1183              		.fpu fpv4-sp-d16
 1185              	USB_ActivateEndpoint:
 1186              	.LVL99:
 1187              	.LFB140:
 560:Drivers/STM32F4xx_HAL_Driver/Src/stm32f4xx_ll_usb.c ****   uint32_t USBx_BASE = (uint32_t)USBx;
 1188              		.loc 1 560 1 is_stmt 1 view -0
 1189              		.cfi_startproc
 1190              		@ args = 0, pretend = 0, frame = 0
 1191              		@ frame_needed = 0, uses_anonymous_args = 0
 1192              		@ link register save eliminated.
 560:Drivers/STM32F4xx_HAL_Driver/Src/stm32f4xx_ll_usb.c ****   uint32_t USBx_BASE = (uint32_t)USBx;
 1193              		.loc 1 560 1 is_stmt 0 view .LVU350
 1194 0000 70B4     		push	{r4, r5, r6}
 1195              	.LCFI11:
 1196              		.cfi_def_cfa_offset 12
 1197              		.cfi_offset 4, -12
 1198              		.cfi_offset 5, -8
 1199              		.cfi_offset 6, -4
 561:Drivers/STM32F4xx_HAL_Driver/Src/stm32f4xx_ll_usb.c ****   uint32_t epnum = (uint32_t)ep->num;
 1200              		.loc 1 561 3 is_stmt 1 view .LVU351
 1201              	.LVL100:
 562:Drivers/STM32F4xx_HAL_Driver/Src/stm32f4xx_ll_usb.c **** 
 1202              		.loc 1 562 3 view .LVU352
 562:Drivers/STM32F4xx_HAL_Driver/Src/stm32f4xx_ll_usb.c **** 
 1203              		.loc 1 562 32 is_stmt 0 view .LVU353
 1204 0002 0B78     		ldrb	r3, [r1]	@ zero_extendqisi2
 1205              	.LVL101:
 564:Drivers/STM32F4xx_HAL_Driver/Src/stm32f4xx_ll_usb.c ****   {
 1206              		.loc 1 564 3 is_stmt 1 view .LVU354
ARM GAS  /tmp/ccrTWjYe.s 			page 51


 564:Drivers/STM32F4xx_HAL_Driver/Src/stm32f4xx_ll_usb.c ****   {
 1207              		.loc 1 564 9 is_stmt 0 view .LVU355
 1208 0004 4A78     		ldrb	r2, [r1, #1]	@ zero_extendqisi2
 564:Drivers/STM32F4xx_HAL_Driver/Src/stm32f4xx_ll_usb.c ****   {
 1209              		.loc 1 564 6 view .LVU356
 1210 0006 012A     		cmp	r2, #1
 1211 0008 22D0     		beq	.L101
 578:Drivers/STM32F4xx_HAL_Driver/Src/stm32f4xx_ll_usb.c **** 
 1212              		.loc 1 578 5 is_stmt 1 view .LVU357
 578:Drivers/STM32F4xx_HAL_Driver/Src/stm32f4xx_ll_usb.c **** 
 1213              		.loc 1 578 27 is_stmt 0 view .LVU358
 1214 000a D0F81C28 		ldr	r2, [r0, #2076]
 578:Drivers/STM32F4xx_HAL_Driver/Src/stm32f4xx_ll_usb.c **** 
 1215              		.loc 1 578 82 view .LVU359
 1216 000e 03F00F06 		and	r6, r3, #15
 578:Drivers/STM32F4xx_HAL_Driver/Src/stm32f4xx_ll_usb.c **** 
 1217              		.loc 1 578 55 view .LVU360
 1218 0012 0124     		movs	r4, #1
 1219 0014 B440     		lsls	r4, r4, r6
 578:Drivers/STM32F4xx_HAL_Driver/Src/stm32f4xx_ll_usb.c **** 
 1220              		.loc 1 578 27 view .LVU361
 1221 0016 42EA0442 		orr	r2, r2, r4, lsl #16
 1222 001a C0F81C28 		str	r2, [r0, #2076]
 580:Drivers/STM32F4xx_HAL_Driver/Src/stm32f4xx_ll_usb.c ****     {
 1223              		.loc 1 580 5 is_stmt 1 view .LVU362
 580:Drivers/STM32F4xx_HAL_Driver/Src/stm32f4xx_ll_usb.c ****     {
 1224              		.loc 1 580 11 is_stmt 0 view .LVU363
 1225 001e 00EB4310 		add	r0, r0, r3, lsl #5
 1226              	.LVL102:
 580:Drivers/STM32F4xx_HAL_Driver/Src/stm32f4xx_ll_usb.c ****     {
 1227              		.loc 1 580 28 view .LVU364
 1228 0022 D0F8003B 		ldr	r3, [r0, #2816]
 1229              	.LVL103:
 580:Drivers/STM32F4xx_HAL_Driver/Src/stm32f4xx_ll_usb.c ****     {
 1230              		.loc 1 580 8 view .LVU365
 1231 0026 13F4004F 		tst	r3, #32768
 1232 002a 0ED1     		bne	.L99
 582:Drivers/STM32F4xx_HAL_Driver/Src/stm32f4xx_ll_usb.c ****                                     ((uint32_t)ep->type << 18) |
 1233              		.loc 1 582 7 is_stmt 1 view .LVU366
 582:Drivers/STM32F4xx_HAL_Driver/Src/stm32f4xx_ll_usb.c ****                                     ((uint32_t)ep->type << 18) |
 1234              		.loc 1 582 34 is_stmt 0 view .LVU367
 1235 002c D0F8003B 		ldr	r3, [r0, #2816]
 582:Drivers/STM32F4xx_HAL_Driver/Src/stm32f4xx_ll_usb.c ****                                     ((uint32_t)ep->type << 18) |
 1236              		.loc 1 582 40 view .LVU368
 1237 0030 8A68     		ldr	r2, [r1, #8]
 582:Drivers/STM32F4xx_HAL_Driver/Src/stm32f4xx_ll_usb.c ****                                     ((uint32_t)ep->type << 18) |
 1238              		.loc 1 582 52 view .LVU369
 1239 0032 C2F30A02 		ubfx	r2, r2, #0, #11
 583:Drivers/STM32F4xx_HAL_Driver/Src/stm32f4xx_ll_usb.c ****                                     USB_OTG_DIEPCTL_SD0PID_SEVNFRM |
 1240              		.loc 1 583 50 view .LVU370
 1241 0036 C978     		ldrb	r1, [r1, #3]	@ zero_extendqisi2
 1242              	.LVL104:
 582:Drivers/STM32F4xx_HAL_Driver/Src/stm32f4xx_ll_usb.c ****                                     ((uint32_t)ep->type << 18) |
 1243              		.loc 1 582 77 view .LVU371
 1244 0038 42EA8142 		orr	r2, r2, r1, lsl #18
 582:Drivers/STM32F4xx_HAL_Driver/Src/stm32f4xx_ll_usb.c ****                                     ((uint32_t)ep->type << 18) |
 1245              		.loc 1 582 34 view .LVU372
ARM GAS  /tmp/ccrTWjYe.s 			page 52


 1246 003c 1343     		orrs	r3, r3, r2
 1247 003e 43F08053 		orr	r3, r3, #268435456
 1248 0042 43F40043 		orr	r3, r3, #32768
 1249 0046 C0F8003B 		str	r3, [r0, #2816]
 1250              	.L99:
 588:Drivers/STM32F4xx_HAL_Driver/Src/stm32f4xx_ll_usb.c **** }
 1251              		.loc 1 588 3 is_stmt 1 view .LVU373
 589:Drivers/STM32F4xx_HAL_Driver/Src/stm32f4xx_ll_usb.c **** 
 1252              		.loc 1 589 1 is_stmt 0 view .LVU374
 1253 004a 0020     		movs	r0, #0
 1254 004c 70BC     		pop	{r4, r5, r6}
 1255              	.LCFI12:
 1256              		.cfi_remember_state
 1257              		.cfi_restore 6
 1258              		.cfi_restore 5
 1259              		.cfi_restore 4
 1260              		.cfi_def_cfa_offset 0
 1261 004e 7047     		bx	lr
 1262              	.LVL105:
 1263              	.L101:
 1264              	.LCFI13:
 1265              		.cfi_restore_state
 566:Drivers/STM32F4xx_HAL_Driver/Src/stm32f4xx_ll_usb.c **** 
 1266              		.loc 1 566 5 is_stmt 1 view .LVU375
 566:Drivers/STM32F4xx_HAL_Driver/Src/stm32f4xx_ll_usb.c **** 
 1267              		.loc 1 566 27 is_stmt 0 view .LVU376
 1268 0050 D0F81C48 		ldr	r4, [r0, #2076]
 566:Drivers/STM32F4xx_HAL_Driver/Src/stm32f4xx_ll_usb.c **** 
 1269              		.loc 1 566 81 view .LVU377
 1270 0054 03F00F06 		and	r6, r3, #15
 566:Drivers/STM32F4xx_HAL_Driver/Src/stm32f4xx_ll_usb.c **** 
 1271              		.loc 1 566 54 view .LVU378
 1272 0058 B240     		lsls	r2, r2, r6
 566:Drivers/STM32F4xx_HAL_Driver/Src/stm32f4xx_ll_usb.c **** 
 1273              		.loc 1 566 52 view .LVU379
 1274 005a 92B2     		uxth	r2, r2
 566:Drivers/STM32F4xx_HAL_Driver/Src/stm32f4xx_ll_usb.c **** 
 1275              		.loc 1 566 27 view .LVU380
 1276 005c 2243     		orrs	r2, r2, r4
 1277 005e C0F81C28 		str	r2, [r0, #2076]
 568:Drivers/STM32F4xx_HAL_Driver/Src/stm32f4xx_ll_usb.c ****     {
 1278              		.loc 1 568 5 is_stmt 1 view .LVU381
 568:Drivers/STM32F4xx_HAL_Driver/Src/stm32f4xx_ll_usb.c ****     {
 1279              		.loc 1 568 10 is_stmt 0 view .LVU382
 1280 0062 00EB4310 		add	r0, r0, r3, lsl #5
 1281              	.LVL106:
 568:Drivers/STM32F4xx_HAL_Driver/Src/stm32f4xx_ll_usb.c ****     {
 1282              		.loc 1 568 26 view .LVU383
 1283 0066 D0F80029 		ldr	r2, [r0, #2304]
 568:Drivers/STM32F4xx_HAL_Driver/Src/stm32f4xx_ll_usb.c ****     {
 1284              		.loc 1 568 8 view .LVU384
 1285 006a 12F4004F 		tst	r2, #32768
 1286 006e ECD1     		bne	.L99
 570:Drivers/STM32F4xx_HAL_Driver/Src/stm32f4xx_ll_usb.c ****                                    ((uint32_t)ep->type << 18) | (epnum << 22) |
 1287              		.loc 1 570 7 is_stmt 1 view .LVU385
 570:Drivers/STM32F4xx_HAL_Driver/Src/stm32f4xx_ll_usb.c ****                                    ((uint32_t)ep->type << 18) | (epnum << 22) |
 1288              		.loc 1 570 33 is_stmt 0 view .LVU386
ARM GAS  /tmp/ccrTWjYe.s 			page 53


 1289 0070 D0F80029 		ldr	r2, [r0, #2304]
 570:Drivers/STM32F4xx_HAL_Driver/Src/stm32f4xx_ll_usb.c ****                                    ((uint32_t)ep->type << 18) | (epnum << 22) |
 1290              		.loc 1 570 39 view .LVU387
 1291 0074 8C68     		ldr	r4, [r1, #8]
 570:Drivers/STM32F4xx_HAL_Driver/Src/stm32f4xx_ll_usb.c ****                                    ((uint32_t)ep->type << 18) | (epnum << 22) |
 1292              		.loc 1 570 51 view .LVU388
 1293 0076 C4F30A04 		ubfx	r4, r4, #0, #11
 571:Drivers/STM32F4xx_HAL_Driver/Src/stm32f4xx_ll_usb.c ****                                    USB_OTG_DIEPCTL_SD0PID_SEVNFRM |
 1294              		.loc 1 571 49 view .LVU389
 1295 007a C978     		ldrb	r1, [r1, #3]	@ zero_extendqisi2
 1296              	.LVL107:
 570:Drivers/STM32F4xx_HAL_Driver/Src/stm32f4xx_ll_usb.c ****                                    ((uint32_t)ep->type << 18) | (epnum << 22) |
 1297              		.loc 1 570 76 view .LVU390
 1298 007c 44EA8144 		orr	r4, r4, r1, lsl #18
 571:Drivers/STM32F4xx_HAL_Driver/Src/stm32f4xx_ll_usb.c ****                                    USB_OTG_DIEPCTL_SD0PID_SEVNFRM |
 1299              		.loc 1 571 63 view .LVU391
 1300 0080 44EA8353 		orr	r3, r4, r3, lsl #22
 1301              	.LVL108:
 570:Drivers/STM32F4xx_HAL_Driver/Src/stm32f4xx_ll_usb.c ****                                    ((uint32_t)ep->type << 18) | (epnum << 22) |
 1302              		.loc 1 570 33 view .LVU392
 1303 0084 1343     		orrs	r3, r3, r2
 1304 0086 43F08053 		orr	r3, r3, #268435456
 1305 008a 43F40043 		orr	r3, r3, #32768
 1306 008e C0F80039 		str	r3, [r0, #2304]
 1307 0092 DAE7     		b	.L99
 1308              		.cfi_endproc
 1309              	.LFE140:
 1311              		.section	.text.USB_ActivateDedicatedEndpoint,"ax",%progbits
 1312              		.align	1
 1313              		.global	USB_ActivateDedicatedEndpoint
 1314              		.syntax unified
 1315              		.thumb
 1316              		.thumb_func
 1317              		.fpu fpv4-sp-d16
 1319              	USB_ActivateDedicatedEndpoint:
 1320              	.LVL109:
 1321              	.LFB141:
 598:Drivers/STM32F4xx_HAL_Driver/Src/stm32f4xx_ll_usb.c ****   uint32_t USBx_BASE = (uint32_t)USBx;
 1322              		.loc 1 598 1 is_stmt 1 view -0
 1323              		.cfi_startproc
 1324              		@ args = 0, pretend = 0, frame = 0
 1325              		@ frame_needed = 0, uses_anonymous_args = 0
 1326              		@ link register save eliminated.
 598:Drivers/STM32F4xx_HAL_Driver/Src/stm32f4xx_ll_usb.c ****   uint32_t USBx_BASE = (uint32_t)USBx;
 1327              		.loc 1 598 1 is_stmt 0 view .LVU394
 1328 0000 70B4     		push	{r4, r5, r6}
 1329              	.LCFI14:
 1330              		.cfi_def_cfa_offset 12
 1331              		.cfi_offset 4, -12
 1332              		.cfi_offset 5, -8
 1333              		.cfi_offset 6, -4
 599:Drivers/STM32F4xx_HAL_Driver/Src/stm32f4xx_ll_usb.c ****   uint32_t epnum = (uint32_t)ep->num;
 1334              		.loc 1 599 3 is_stmt 1 view .LVU395
 1335              	.LVL110:
 600:Drivers/STM32F4xx_HAL_Driver/Src/stm32f4xx_ll_usb.c **** 
 1336              		.loc 1 600 3 view .LVU396
 600:Drivers/STM32F4xx_HAL_Driver/Src/stm32f4xx_ll_usb.c **** 
ARM GAS  /tmp/ccrTWjYe.s 			page 54


 1337              		.loc 1 600 32 is_stmt 0 view .LVU397
 1338 0002 0A78     		ldrb	r2, [r1]	@ zero_extendqisi2
 1339              	.LVL111:
 603:Drivers/STM32F4xx_HAL_Driver/Src/stm32f4xx_ll_usb.c ****   {
 1340              		.loc 1 603 3 is_stmt 1 view .LVU398
 603:Drivers/STM32F4xx_HAL_Driver/Src/stm32f4xx_ll_usb.c ****   {
 1341              		.loc 1 603 9 is_stmt 0 view .LVU399
 1342 0004 4B78     		ldrb	r3, [r1, #1]	@ zero_extendqisi2
 603:Drivers/STM32F4xx_HAL_Driver/Src/stm32f4xx_ll_usb.c ****   {
 1343              		.loc 1 603 6 view .LVU400
 1344 0006 012B     		cmp	r3, #1
 1345 0008 23D0     		beq	.L108
 617:Drivers/STM32F4xx_HAL_Driver/Src/stm32f4xx_ll_usb.c ****     {
 1346              		.loc 1 617 5 is_stmt 1 view .LVU401
 617:Drivers/STM32F4xx_HAL_Driver/Src/stm32f4xx_ll_usb.c ****     {
 1347              		.loc 1 617 11 is_stmt 0 view .LVU402
 1348 000a 00EB4214 		add	r4, r0, r2, lsl #5
 617:Drivers/STM32F4xx_HAL_Driver/Src/stm32f4xx_ll_usb.c ****     {
 1349              		.loc 1 617 28 view .LVU403
 1350 000e D4F8003B 		ldr	r3, [r4, #2816]
 617:Drivers/STM32F4xx_HAL_Driver/Src/stm32f4xx_ll_usb.c ****     {
 1351              		.loc 1 617 8 view .LVU404
 1352 0012 13F4004F 		tst	r3, #32768
 1353 0016 0ED1     		bne	.L106
 619:Drivers/STM32F4xx_HAL_Driver/Src/stm32f4xx_ll_usb.c ****                                     ((uint32_t)ep->type << 18) | (epnum << 22) |
 1354              		.loc 1 619 7 is_stmt 1 view .LVU405
 619:Drivers/STM32F4xx_HAL_Driver/Src/stm32f4xx_ll_usb.c ****                                     ((uint32_t)ep->type << 18) | (epnum << 22) |
 1355              		.loc 1 619 34 is_stmt 0 view .LVU406
 1356 0018 D4F8005B 		ldr	r5, [r4, #2816]
 619:Drivers/STM32F4xx_HAL_Driver/Src/stm32f4xx_ll_usb.c ****                                     ((uint32_t)ep->type << 18) | (epnum << 22) |
 1357              		.loc 1 619 40 view .LVU407
 1358 001c 8B68     		ldr	r3, [r1, #8]
 619:Drivers/STM32F4xx_HAL_Driver/Src/stm32f4xx_ll_usb.c ****                                     ((uint32_t)ep->type << 18) | (epnum << 22) |
 1359              		.loc 1 619 52 view .LVU408
 1360 001e C3F30A03 		ubfx	r3, r3, #0, #11
 620:Drivers/STM32F4xx_HAL_Driver/Src/stm32f4xx_ll_usb.c ****                                     USB_OTG_DOEPCTL_USBAEP;
 1361              		.loc 1 620 50 view .LVU409
 1362 0022 CE78     		ldrb	r6, [r1, #3]	@ zero_extendqisi2
 619:Drivers/STM32F4xx_HAL_Driver/Src/stm32f4xx_ll_usb.c ****                                     ((uint32_t)ep->type << 18) | (epnum << 22) |
 1363              		.loc 1 619 77 view .LVU410
 1364 0024 43EA8643 		orr	r3, r3, r6, lsl #18
 620:Drivers/STM32F4xx_HAL_Driver/Src/stm32f4xx_ll_usb.c ****                                     USB_OTG_DOEPCTL_USBAEP;
 1365              		.loc 1 620 64 view .LVU411
 1366 0028 43EA8253 		orr	r3, r3, r2, lsl #22
 619:Drivers/STM32F4xx_HAL_Driver/Src/stm32f4xx_ll_usb.c ****                                     ((uint32_t)ep->type << 18) | (epnum << 22) |
 1367              		.loc 1 619 34 view .LVU412
 1368 002c 2B43     		orrs	r3, r3, r5
 1369 002e 43F40043 		orr	r3, r3, #32768
 1370 0032 C4F8003B 		str	r3, [r4, #2816]
 1371              	.L106:
 624:Drivers/STM32F4xx_HAL_Driver/Src/stm32f4xx_ll_usb.c ****   }
 1372              		.loc 1 624 5 is_stmt 1 view .LVU413
 624:Drivers/STM32F4xx_HAL_Driver/Src/stm32f4xx_ll_usb.c ****   }
 1373              		.loc 1 624 27 is_stmt 0 view .LVU414
 1374 0036 D0F83C38 		ldr	r3, [r0, #2108]
 624:Drivers/STM32F4xx_HAL_Driver/Src/stm32f4xx_ll_usb.c ****   }
 1375              		.loc 1 624 76 view .LVU415
ARM GAS  /tmp/ccrTWjYe.s 			page 55


 1376 003a 0A78     		ldrb	r2, [r1]	@ zero_extendqisi2
 1377              	.LVL112:
 624:Drivers/STM32F4xx_HAL_Driver/Src/stm32f4xx_ll_usb.c ****   }
 1378              		.loc 1 624 82 view .LVU416
 1379 003c 02F00F01 		and	r1, r2, #15
 1380              	.LVL113:
 624:Drivers/STM32F4xx_HAL_Driver/Src/stm32f4xx_ll_usb.c ****   }
 1381              		.loc 1 624 55 view .LVU417
 1382 0040 0122     		movs	r2, #1
 1383 0042 8A40     		lsls	r2, r2, r1
 624:Drivers/STM32F4xx_HAL_Driver/Src/stm32f4xx_ll_usb.c ****   }
 1384              		.loc 1 624 27 view .LVU418
 1385 0044 43EA0243 		orr	r3, r3, r2, lsl #16
 1386 0048 C0F83C38 		str	r3, [r0, #2108]
 1387              	.L105:
 627:Drivers/STM32F4xx_HAL_Driver/Src/stm32f4xx_ll_usb.c **** }
 1388              		.loc 1 627 3 is_stmt 1 view .LVU419
 628:Drivers/STM32F4xx_HAL_Driver/Src/stm32f4xx_ll_usb.c **** 
 1389              		.loc 1 628 1 is_stmt 0 view .LVU420
 1390 004c 0020     		movs	r0, #0
 1391              	.LVL114:
 628:Drivers/STM32F4xx_HAL_Driver/Src/stm32f4xx_ll_usb.c **** 
 1392              		.loc 1 628 1 view .LVU421
 1393 004e 70BC     		pop	{r4, r5, r6}
 1394              	.LCFI15:
 1395              		.cfi_remember_state
 1396              		.cfi_restore 6
 1397              		.cfi_restore 5
 1398              		.cfi_restore 4
 1399              		.cfi_def_cfa_offset 0
 1400 0050 7047     		bx	lr
 1401              	.LVL115:
 1402              	.L108:
 1403              	.LCFI16:
 1404              		.cfi_restore_state
 605:Drivers/STM32F4xx_HAL_Driver/Src/stm32f4xx_ll_usb.c ****     {
 1405              		.loc 1 605 5 is_stmt 1 view .LVU422
 605:Drivers/STM32F4xx_HAL_Driver/Src/stm32f4xx_ll_usb.c ****     {
 1406              		.loc 1 605 11 is_stmt 0 view .LVU423
 1407 0052 00EB4215 		add	r5, r0, r2, lsl #5
 605:Drivers/STM32F4xx_HAL_Driver/Src/stm32f4xx_ll_usb.c ****     {
 1408              		.loc 1 605 27 view .LVU424
 1409 0056 D5F80039 		ldr	r3, [r5, #2304]
 605:Drivers/STM32F4xx_HAL_Driver/Src/stm32f4xx_ll_usb.c ****     {
 1410              		.loc 1 605 8 view .LVU425
 1411 005a 13F4004F 		tst	r3, #32768
 1412 005e 10D1     		bne	.L104
 607:Drivers/STM32F4xx_HAL_Driver/Src/stm32f4xx_ll_usb.c ****                                    ((uint32_t)ep->type << 18) | (epnum << 22) |
 1413              		.loc 1 607 7 is_stmt 1 view .LVU426
 607:Drivers/STM32F4xx_HAL_Driver/Src/stm32f4xx_ll_usb.c ****                                    ((uint32_t)ep->type << 18) | (epnum << 22) |
 1414              		.loc 1 607 33 is_stmt 0 view .LVU427
 1415 0060 D5F80039 		ldr	r3, [r5, #2304]
 607:Drivers/STM32F4xx_HAL_Driver/Src/stm32f4xx_ll_usb.c ****                                    ((uint32_t)ep->type << 18) | (epnum << 22) |
 1416              		.loc 1 607 39 view .LVU428
 1417 0064 8C68     		ldr	r4, [r1, #8]
 607:Drivers/STM32F4xx_HAL_Driver/Src/stm32f4xx_ll_usb.c ****                                    ((uint32_t)ep->type << 18) | (epnum << 22) |
 1418              		.loc 1 607 51 view .LVU429
ARM GAS  /tmp/ccrTWjYe.s 			page 56


 1419 0066 C4F30A04 		ubfx	r4, r4, #0, #11
 608:Drivers/STM32F4xx_HAL_Driver/Src/stm32f4xx_ll_usb.c ****                                    USB_OTG_DIEPCTL_SD0PID_SEVNFRM |
 1420              		.loc 1 608 49 view .LVU430
 1421 006a CE78     		ldrb	r6, [r1, #3]	@ zero_extendqisi2
 607:Drivers/STM32F4xx_HAL_Driver/Src/stm32f4xx_ll_usb.c ****                                    ((uint32_t)ep->type << 18) | (epnum << 22) |
 1422              		.loc 1 607 76 view .LVU431
 1423 006c 44EA8644 		orr	r4, r4, r6, lsl #18
 608:Drivers/STM32F4xx_HAL_Driver/Src/stm32f4xx_ll_usb.c ****                                    USB_OTG_DIEPCTL_SD0PID_SEVNFRM |
 1424              		.loc 1 608 63 view .LVU432
 1425 0070 44EA8252 		orr	r2, r4, r2, lsl #22
 1426              	.LVL116:
 607:Drivers/STM32F4xx_HAL_Driver/Src/stm32f4xx_ll_usb.c ****                                    ((uint32_t)ep->type << 18) | (epnum << 22) |
 1427              		.loc 1 607 33 view .LVU433
 1428 0074 1343     		orrs	r3, r3, r2
 1429 0076 43F08053 		orr	r3, r3, #268435456
 1430 007a 43F40043 		orr	r3, r3, #32768
 1431 007e C5F80039 		str	r3, [r5, #2304]
 1432              	.LVL117:
 1433              	.L104:
 613:Drivers/STM32F4xx_HAL_Driver/Src/stm32f4xx_ll_usb.c ****   }
 1434              		.loc 1 613 5 is_stmt 1 view .LVU434
 613:Drivers/STM32F4xx_HAL_Driver/Src/stm32f4xx_ll_usb.c ****   }
 1435              		.loc 1 613 27 is_stmt 0 view .LVU435
 1436 0082 D0F83C28 		ldr	r2, [r0, #2108]
 613:Drivers/STM32F4xx_HAL_Driver/Src/stm32f4xx_ll_usb.c ****   }
 1437              		.loc 1 613 75 view .LVU436
 1438 0086 0B78     		ldrb	r3, [r1]	@ zero_extendqisi2
 613:Drivers/STM32F4xx_HAL_Driver/Src/stm32f4xx_ll_usb.c ****   }
 1439              		.loc 1 613 81 view .LVU437
 1440 0088 03F00F01 		and	r1, r3, #15
 1441              	.LVL118:
 613:Drivers/STM32F4xx_HAL_Driver/Src/stm32f4xx_ll_usb.c ****   }
 1442              		.loc 1 613 54 view .LVU438
 1443 008c 0123     		movs	r3, #1
 1444 008e 8B40     		lsls	r3, r3, r1
 613:Drivers/STM32F4xx_HAL_Driver/Src/stm32f4xx_ll_usb.c ****   }
 1445              		.loc 1 613 52 view .LVU439
 1446 0090 9BB2     		uxth	r3, r3
 613:Drivers/STM32F4xx_HAL_Driver/Src/stm32f4xx_ll_usb.c ****   }
 1447              		.loc 1 613 27 view .LVU440
 1448 0092 1343     		orrs	r3, r3, r2
 1449 0094 C0F83C38 		str	r3, [r0, #2108]
 1450 0098 D8E7     		b	.L105
 1451              		.cfi_endproc
 1452              	.LFE141:
 1454              		.section	.text.USB_DeactivateEndpoint,"ax",%progbits
 1455              		.align	1
 1456              		.global	USB_DeactivateEndpoint
 1457              		.syntax unified
 1458              		.thumb
 1459              		.thumb_func
 1460              		.fpu fpv4-sp-d16
 1462              	USB_DeactivateEndpoint:
 1463              	.LVL119:
 1464              	.LFB142:
 637:Drivers/STM32F4xx_HAL_Driver/Src/stm32f4xx_ll_usb.c ****   uint32_t USBx_BASE = (uint32_t)USBx;
 1465              		.loc 1 637 1 is_stmt 1 view -0
ARM GAS  /tmp/ccrTWjYe.s 			page 57


 1466              		.cfi_startproc
 1467              		@ args = 0, pretend = 0, frame = 0
 1468              		@ frame_needed = 0, uses_anonymous_args = 0
 1469              		@ link register save eliminated.
 637:Drivers/STM32F4xx_HAL_Driver/Src/stm32f4xx_ll_usb.c ****   uint32_t USBx_BASE = (uint32_t)USBx;
 1470              		.loc 1 637 1 is_stmt 0 view .LVU442
 1471 0000 70B4     		push	{r4, r5, r6}
 1472              	.LCFI17:
 1473              		.cfi_def_cfa_offset 12
 1474              		.cfi_offset 4, -12
 1475              		.cfi_offset 5, -8
 1476              		.cfi_offset 6, -4
 638:Drivers/STM32F4xx_HAL_Driver/Src/stm32f4xx_ll_usb.c ****   uint32_t epnum = (uint32_t)ep->num;
 1477              		.loc 1 638 3 is_stmt 1 view .LVU443
 1478              	.LVL120:
 639:Drivers/STM32F4xx_HAL_Driver/Src/stm32f4xx_ll_usb.c **** 
 1479              		.loc 1 639 3 view .LVU444
 639:Drivers/STM32F4xx_HAL_Driver/Src/stm32f4xx_ll_usb.c **** 
 1480              		.loc 1 639 32 is_stmt 0 view .LVU445
 1481 0002 0B78     		ldrb	r3, [r1]	@ zero_extendqisi2
 1482              	.LVL121:
 642:Drivers/STM32F4xx_HAL_Driver/Src/stm32f4xx_ll_usb.c ****   {
 1483              		.loc 1 642 3 is_stmt 1 view .LVU446
 642:Drivers/STM32F4xx_HAL_Driver/Src/stm32f4xx_ll_usb.c ****   {
 1484              		.loc 1 642 9 is_stmt 0 view .LVU447
 1485 0004 4A78     		ldrb	r2, [r1, #1]	@ zero_extendqisi2
 642:Drivers/STM32F4xx_HAL_Driver/Src/stm32f4xx_ll_usb.c ****   {
 1486              		.loc 1 642 6 view .LVU448
 1487 0006 012A     		cmp	r2, #1
 1488 0008 1FD0     		beq	.L113
 654:Drivers/STM32F4xx_HAL_Driver/Src/stm32f4xx_ll_usb.c ****     USBx_DEVICE->DAINTMSK &= ~(USB_OTG_DAINTMSK_OEPM & ((uint32_t)(1UL << (ep->num & EP_ADDR_MSK)) 
 1489              		.loc 1 654 5 is_stmt 1 view .LVU449
 654:Drivers/STM32F4xx_HAL_Driver/Src/stm32f4xx_ll_usb.c ****     USBx_DEVICE->DAINTMSK &= ~(USB_OTG_DAINTMSK_OEPM & ((uint32_t)(1UL << (ep->num & EP_ADDR_MSK)) 
 1490              		.loc 1 654 27 is_stmt 0 view .LVU450
 1491 000a D0F83C58 		ldr	r5, [r0, #2108]
 654:Drivers/STM32F4xx_HAL_Driver/Src/stm32f4xx_ll_usb.c ****     USBx_DEVICE->DAINTMSK &= ~(USB_OTG_DAINTMSK_OEPM & ((uint32_t)(1UL << (ep->num & EP_ADDR_MSK)) 
 1492              		.loc 1 654 84 view .LVU451
 1493 000e 03F00F06 		and	r6, r3, #15
 654:Drivers/STM32F4xx_HAL_Driver/Src/stm32f4xx_ll_usb.c ****     USBx_DEVICE->DAINTMSK &= ~(USB_OTG_DAINTMSK_OEPM & ((uint32_t)(1UL << (ep->num & EP_ADDR_MSK)) 
 1494              		.loc 1 654 57 view .LVU452
 1495 0012 0124     		movs	r4, #1
 1496 0014 04FA06F6 		lsl	r6, r4, r6
 654:Drivers/STM32F4xx_HAL_Driver/Src/stm32f4xx_ll_usb.c ****     USBx_DEVICE->DAINTMSK &= ~(USB_OTG_DAINTMSK_OEPM & ((uint32_t)(1UL << (ep->num & EP_ADDR_MSK)) 
 1497              		.loc 1 654 27 view .LVU453
 1498 0018 25EA0645 		bic	r5, r5, r6, lsl #16
 1499 001c C0F83C58 		str	r5, [r0, #2108]
 655:Drivers/STM32F4xx_HAL_Driver/Src/stm32f4xx_ll_usb.c ****     USBx_OUTEP(epnum)->DOEPCTL &= ~(USB_OTG_DOEPCTL_USBAEP |
 1500              		.loc 1 655 5 is_stmt 1 view .LVU454
 655:Drivers/STM32F4xx_HAL_Driver/Src/stm32f4xx_ll_usb.c ****     USBx_OUTEP(epnum)->DOEPCTL &= ~(USB_OTG_DOEPCTL_USBAEP |
 1501              		.loc 1 655 27 is_stmt 0 view .LVU455
 1502 0020 D0F81C58 		ldr	r5, [r0, #2076]
 655:Drivers/STM32F4xx_HAL_Driver/Src/stm32f4xx_ll_usb.c ****     USBx_OUTEP(epnum)->DOEPCTL &= ~(USB_OTG_DOEPCTL_USBAEP |
 1503              		.loc 1 655 78 view .LVU456
 1504 0024 0978     		ldrb	r1, [r1]	@ zero_extendqisi2
 1505              	.LVL122:
 655:Drivers/STM32F4xx_HAL_Driver/Src/stm32f4xx_ll_usb.c ****     USBx_OUTEP(epnum)->DOEPCTL &= ~(USB_OTG_DOEPCTL_USBAEP |
 1506              		.loc 1 655 84 view .LVU457
ARM GAS  /tmp/ccrTWjYe.s 			page 58


 1507 0026 01F00F01 		and	r1, r1, #15
 655:Drivers/STM32F4xx_HAL_Driver/Src/stm32f4xx_ll_usb.c ****     USBx_OUTEP(epnum)->DOEPCTL &= ~(USB_OTG_DOEPCTL_USBAEP |
 1508              		.loc 1 655 57 view .LVU458
 1509 002a 8C40     		lsls	r4, r4, r1
 655:Drivers/STM32F4xx_HAL_Driver/Src/stm32f4xx_ll_usb.c ****     USBx_OUTEP(epnum)->DOEPCTL &= ~(USB_OTG_DOEPCTL_USBAEP |
 1510              		.loc 1 655 27 view .LVU459
 1511 002c 25EA0444 		bic	r4, r5, r4, lsl #16
 1512 0030 C0F81C48 		str	r4, [r0, #2076]
 656:Drivers/STM32F4xx_HAL_Driver/Src/stm32f4xx_ll_usb.c ****                                     USB_OTG_DOEPCTL_MPSIZ |
 1513              		.loc 1 656 5 is_stmt 1 view .LVU460
 656:Drivers/STM32F4xx_HAL_Driver/Src/stm32f4xx_ll_usb.c ****                                     USB_OTG_DOEPCTL_MPSIZ |
 1514              		.loc 1 656 32 is_stmt 0 view .LVU461
 1515 0034 00EB4310 		add	r0, r0, r3, lsl #5
 1516              	.LVL123:
 656:Drivers/STM32F4xx_HAL_Driver/Src/stm32f4xx_ll_usb.c ****                                     USB_OTG_DOEPCTL_MPSIZ |
 1517              		.loc 1 656 32 view .LVU462
 1518 0038 D0F8002B 		ldr	r2, [r0, #2816]
 1519 003c 124B     		ldr	r3, .L114
 1520              	.LVL124:
 656:Drivers/STM32F4xx_HAL_Driver/Src/stm32f4xx_ll_usb.c ****                                     USB_OTG_DOEPCTL_MPSIZ |
 1521              		.loc 1 656 32 view .LVU463
 1522 003e 1340     		ands	r3, r3, r2
 1523 0040 C0F8003B 		str	r3, [r0, #2816]
 1524              	.L111:
 662:Drivers/STM32F4xx_HAL_Driver/Src/stm32f4xx_ll_usb.c **** }
 1525              		.loc 1 662 3 is_stmt 1 view .LVU464
 663:Drivers/STM32F4xx_HAL_Driver/Src/stm32f4xx_ll_usb.c **** 
 1526              		.loc 1 663 1 is_stmt 0 view .LVU465
 1527 0044 0020     		movs	r0, #0
 1528 0046 70BC     		pop	{r4, r5, r6}
 1529              	.LCFI18:
 1530              		.cfi_remember_state
 1531              		.cfi_restore 6
 1532              		.cfi_restore 5
 1533              		.cfi_restore 4
 1534              		.cfi_def_cfa_offset 0
 1535 0048 7047     		bx	lr
 1536              	.LVL125:
 1537              	.L113:
 1538              	.LCFI19:
 1539              		.cfi_restore_state
 644:Drivers/STM32F4xx_HAL_Driver/Src/stm32f4xx_ll_usb.c ****     USBx_DEVICE->DAINTMSK &= ~(USB_OTG_DAINTMSK_IEPM & (uint32_t)(1UL << (ep->num & EP_ADDR_MSK)));
 1540              		.loc 1 644 5 is_stmt 1 view .LVU466
 644:Drivers/STM32F4xx_HAL_Driver/Src/stm32f4xx_ll_usb.c ****     USBx_DEVICE->DAINTMSK &= ~(USB_OTG_DAINTMSK_IEPM & (uint32_t)(1UL << (ep->num & EP_ADDR_MSK)));
 1541              		.loc 1 644 27 is_stmt 0 view .LVU467
 1542 004a D0F83C68 		ldr	r6, [r0, #2108]
 644:Drivers/STM32F4xx_HAL_Driver/Src/stm32f4xx_ll_usb.c ****     USBx_DEVICE->DAINTMSK &= ~(USB_OTG_DAINTMSK_IEPM & (uint32_t)(1UL << (ep->num & EP_ADDR_MSK)));
 1543              		.loc 1 644 83 view .LVU468
 1544 004e 03F00F04 		and	r4, r3, #15
 644:Drivers/STM32F4xx_HAL_Driver/Src/stm32f4xx_ll_usb.c ****     USBx_DEVICE->DAINTMSK &= ~(USB_OTG_DAINTMSK_IEPM & (uint32_t)(1UL << (ep->num & EP_ADDR_MSK)));
 1545              		.loc 1 644 56 view .LVU469
 1546 0052 02FA04F4 		lsl	r4, r2, r4
 644:Drivers/STM32F4xx_HAL_Driver/Src/stm32f4xx_ll_usb.c ****     USBx_DEVICE->DAINTMSK &= ~(USB_OTG_DAINTMSK_IEPM & (uint32_t)(1UL << (ep->num & EP_ADDR_MSK)));
 1547              		.loc 1 644 54 view .LVU470
 1548 0056 A4B2     		uxth	r4, r4
 644:Drivers/STM32F4xx_HAL_Driver/Src/stm32f4xx_ll_usb.c ****     USBx_DEVICE->DAINTMSK &= ~(USB_OTG_DAINTMSK_IEPM & (uint32_t)(1UL << (ep->num & EP_ADDR_MSK)));
 1549              		.loc 1 644 27 view .LVU471
ARM GAS  /tmp/ccrTWjYe.s 			page 59


 1550 0058 26EA0404 		bic	r4, r6, r4
 1551 005c C0F83C48 		str	r4, [r0, #2108]
 645:Drivers/STM32F4xx_HAL_Driver/Src/stm32f4xx_ll_usb.c ****     USBx_INEP(epnum)->DIEPCTL &= ~(USB_OTG_DIEPCTL_USBAEP |
 1552              		.loc 1 645 5 is_stmt 1 view .LVU472
 645:Drivers/STM32F4xx_HAL_Driver/Src/stm32f4xx_ll_usb.c ****     USBx_INEP(epnum)->DIEPCTL &= ~(USB_OTG_DIEPCTL_USBAEP |
 1553              		.loc 1 645 27 is_stmt 0 view .LVU473
 1554 0060 D0F81C48 		ldr	r4, [r0, #2076]
 645:Drivers/STM32F4xx_HAL_Driver/Src/stm32f4xx_ll_usb.c ****     USBx_INEP(epnum)->DIEPCTL &= ~(USB_OTG_DIEPCTL_USBAEP |
 1555              		.loc 1 645 77 view .LVU474
 1556 0064 0978     		ldrb	r1, [r1]	@ zero_extendqisi2
 1557              	.LVL126:
 645:Drivers/STM32F4xx_HAL_Driver/Src/stm32f4xx_ll_usb.c ****     USBx_INEP(epnum)->DIEPCTL &= ~(USB_OTG_DIEPCTL_USBAEP |
 1558              		.loc 1 645 83 view .LVU475
 1559 0066 01F00F01 		and	r1, r1, #15
 645:Drivers/STM32F4xx_HAL_Driver/Src/stm32f4xx_ll_usb.c ****     USBx_INEP(epnum)->DIEPCTL &= ~(USB_OTG_DIEPCTL_USBAEP |
 1560              		.loc 1 645 56 view .LVU476
 1561 006a 8A40     		lsls	r2, r2, r1
 645:Drivers/STM32F4xx_HAL_Driver/Src/stm32f4xx_ll_usb.c ****     USBx_INEP(epnum)->DIEPCTL &= ~(USB_OTG_DIEPCTL_USBAEP |
 1562              		.loc 1 645 54 view .LVU477
 1563 006c 92B2     		uxth	r2, r2
 645:Drivers/STM32F4xx_HAL_Driver/Src/stm32f4xx_ll_usb.c ****     USBx_INEP(epnum)->DIEPCTL &= ~(USB_OTG_DIEPCTL_USBAEP |
 1564              		.loc 1 645 27 view .LVU478
 1565 006e 24EA0202 		bic	r2, r4, r2
 1566 0072 C0F81C28 		str	r2, [r0, #2076]
 646:Drivers/STM32F4xx_HAL_Driver/Src/stm32f4xx_ll_usb.c ****                                    USB_OTG_DIEPCTL_MPSIZ |
 1567              		.loc 1 646 5 is_stmt 1 view .LVU479
 646:Drivers/STM32F4xx_HAL_Driver/Src/stm32f4xx_ll_usb.c ****                                    USB_OTG_DIEPCTL_MPSIZ |
 1568              		.loc 1 646 31 is_stmt 0 view .LVU480
 1569 0076 00EB4310 		add	r0, r0, r3, lsl #5
 1570              	.LVL127:
 646:Drivers/STM32F4xx_HAL_Driver/Src/stm32f4xx_ll_usb.c ****                                    USB_OTG_DIEPCTL_MPSIZ |
 1571              		.loc 1 646 31 view .LVU481
 1572 007a D0F80039 		ldr	r3, [r0, #2304]
 1573              	.LVL128:
 646:Drivers/STM32F4xx_HAL_Driver/Src/stm32f4xx_ll_usb.c ****                                    USB_OTG_DIEPCTL_MPSIZ |
 1574              		.loc 1 646 31 view .LVU482
 1575 007e 034A     		ldr	r2, .L114+4
 1576 0080 1A40     		ands	r2, r2, r3
 1577 0082 C0F80029 		str	r2, [r0, #2304]
 1578 0086 DDE7     		b	.L111
 1579              	.L115:
 1580              		.align	2
 1581              	.L114:
 1582 0088 0078F3EF 		.word	-269256704
 1583 008c 007833EC 		.word	-332171264
 1584              		.cfi_endproc
 1585              	.LFE142:
 1587              		.section	.text.USB_DeactivateDedicatedEndpoint,"ax",%progbits
 1588              		.align	1
 1589              		.global	USB_DeactivateDedicatedEndpoint
 1590              		.syntax unified
 1591              		.thumb
 1592              		.thumb_func
 1593              		.fpu fpv4-sp-d16
 1595              	USB_DeactivateDedicatedEndpoint:
 1596              	.LVL129:
 1597              	.LFB143:
ARM GAS  /tmp/ccrTWjYe.s 			page 60


 672:Drivers/STM32F4xx_HAL_Driver/Src/stm32f4xx_ll_usb.c ****   uint32_t USBx_BASE = (uint32_t)USBx;
 1598              		.loc 1 672 1 is_stmt 1 view -0
 1599              		.cfi_startproc
 1600              		@ args = 0, pretend = 0, frame = 0
 1601              		@ frame_needed = 0, uses_anonymous_args = 0
 1602              		@ link register save eliminated.
 673:Drivers/STM32F4xx_HAL_Driver/Src/stm32f4xx_ll_usb.c ****   uint32_t epnum = (uint32_t)ep->num;
 1603              		.loc 1 673 3 view .LVU484
 674:Drivers/STM32F4xx_HAL_Driver/Src/stm32f4xx_ll_usb.c **** 
 1604              		.loc 1 674 3 view .LVU485
 674:Drivers/STM32F4xx_HAL_Driver/Src/stm32f4xx_ll_usb.c **** 
 1605              		.loc 1 674 32 is_stmt 0 view .LVU486
 1606 0000 0B78     		ldrb	r3, [r1]	@ zero_extendqisi2
 1607              	.LVL130:
 677:Drivers/STM32F4xx_HAL_Driver/Src/stm32f4xx_ll_usb.c ****   {
 1608              		.loc 1 677 3 is_stmt 1 view .LVU487
 677:Drivers/STM32F4xx_HAL_Driver/Src/stm32f4xx_ll_usb.c ****   {
 1609              		.loc 1 677 9 is_stmt 0 view .LVU488
 1610 0002 4A78     		ldrb	r2, [r1, #1]	@ zero_extendqisi2
 677:Drivers/STM32F4xx_HAL_Driver/Src/stm32f4xx_ll_usb.c ****   {
 1611              		.loc 1 677 6 view .LVU489
 1612 0004 012A     		cmp	r2, #1
 1613 0006 14D0     		beq	.L119
 684:Drivers/STM32F4xx_HAL_Driver/Src/stm32f4xx_ll_usb.c ****     USBx_DEVICE->DAINTMSK &= ~(USB_OTG_DAINTMSK_OEPM & ((uint32_t)(1UL << (ep->num & EP_ADDR_MSK)) 
 1614              		.loc 1 684 5 is_stmt 1 view .LVU490
 684:Drivers/STM32F4xx_HAL_Driver/Src/stm32f4xx_ll_usb.c ****     USBx_DEVICE->DAINTMSK &= ~(USB_OTG_DAINTMSK_OEPM & ((uint32_t)(1UL << (ep->num & EP_ADDR_MSK)) 
 1615              		.loc 1 684 32 is_stmt 0 view .LVU491
 1616 0008 00EB4313 		add	r3, r0, r3, lsl #5
 1617              	.LVL131:
 684:Drivers/STM32F4xx_HAL_Driver/Src/stm32f4xx_ll_usb.c ****     USBx_DEVICE->DAINTMSK &= ~(USB_OTG_DAINTMSK_OEPM & ((uint32_t)(1UL << (ep->num & EP_ADDR_MSK)) 
 1618              		.loc 1 684 32 view .LVU492
 1619 000c D3F8002B 		ldr	r2, [r3, #2816]
 1620 0010 22F40042 		bic	r2, r2, #32768
 1621 0014 C3F8002B 		str	r2, [r3, #2816]
 1622              	.LVL132:
 685:Drivers/STM32F4xx_HAL_Driver/Src/stm32f4xx_ll_usb.c ****   }
 1623              		.loc 1 685 5 is_stmt 1 view .LVU493
 685:Drivers/STM32F4xx_HAL_Driver/Src/stm32f4xx_ll_usb.c ****   }
 1624              		.loc 1 685 27 is_stmt 0 view .LVU494
 1625 0018 D0F81C38 		ldr	r3, [r0, #2076]
 685:Drivers/STM32F4xx_HAL_Driver/Src/stm32f4xx_ll_usb.c ****   }
 1626              		.loc 1 685 78 view .LVU495
 1627 001c 0A78     		ldrb	r2, [r1]	@ zero_extendqisi2
 685:Drivers/STM32F4xx_HAL_Driver/Src/stm32f4xx_ll_usb.c ****   }
 1628              		.loc 1 685 84 view .LVU496
 1629 001e 02F00F01 		and	r1, r2, #15
 1630              	.LVL133:
 685:Drivers/STM32F4xx_HAL_Driver/Src/stm32f4xx_ll_usb.c ****   }
 1631              		.loc 1 685 57 view .LVU497
 1632 0022 0122     		movs	r2, #1
 1633 0024 8A40     		lsls	r2, r2, r1
 685:Drivers/STM32F4xx_HAL_Driver/Src/stm32f4xx_ll_usb.c ****   }
 1634              		.loc 1 685 27 view .LVU498
 1635 0026 23EA0243 		bic	r3, r3, r2, lsl #16
 1636 002a C0F81C38 		str	r3, [r0, #2076]
 1637              	.L118:
 688:Drivers/STM32F4xx_HAL_Driver/Src/stm32f4xx_ll_usb.c **** }
ARM GAS  /tmp/ccrTWjYe.s 			page 61


 1638              		.loc 1 688 3 is_stmt 1 view .LVU499
 689:Drivers/STM32F4xx_HAL_Driver/Src/stm32f4xx_ll_usb.c **** 
 1639              		.loc 1 689 1 is_stmt 0 view .LVU500
 1640 002e 0020     		movs	r0, #0
 1641              	.LVL134:
 689:Drivers/STM32F4xx_HAL_Driver/Src/stm32f4xx_ll_usb.c **** 
 1642              		.loc 1 689 1 view .LVU501
 1643 0030 7047     		bx	lr
 1644              	.LVL135:
 1645              	.L119:
 679:Drivers/STM32F4xx_HAL_Driver/Src/stm32f4xx_ll_usb.c ****     USBx_DEVICE->DAINTMSK &= ~(USB_OTG_DAINTMSK_IEPM & (uint32_t)(1UL << (ep->num & EP_ADDR_MSK)));
 1646              		.loc 1 679 5 is_stmt 1 view .LVU502
 679:Drivers/STM32F4xx_HAL_Driver/Src/stm32f4xx_ll_usb.c ****     USBx_DEVICE->DAINTMSK &= ~(USB_OTG_DAINTMSK_IEPM & (uint32_t)(1UL << (ep->num & EP_ADDR_MSK)));
 1647              		.loc 1 679 31 is_stmt 0 view .LVU503
 1648 0032 00EB4313 		add	r3, r0, r3, lsl #5
 1649              	.LVL136:
 679:Drivers/STM32F4xx_HAL_Driver/Src/stm32f4xx_ll_usb.c ****     USBx_DEVICE->DAINTMSK &= ~(USB_OTG_DAINTMSK_IEPM & (uint32_t)(1UL << (ep->num & EP_ADDR_MSK)));
 1650              		.loc 1 679 31 view .LVU504
 1651 0036 D3F80029 		ldr	r2, [r3, #2304]
 1652 003a 22F40042 		bic	r2, r2, #32768
 1653 003e C3F80029 		str	r2, [r3, #2304]
 1654              	.LVL137:
 680:Drivers/STM32F4xx_HAL_Driver/Src/stm32f4xx_ll_usb.c ****   }
 1655              		.loc 1 680 5 is_stmt 1 view .LVU505
 680:Drivers/STM32F4xx_HAL_Driver/Src/stm32f4xx_ll_usb.c ****   }
 1656              		.loc 1 680 27 is_stmt 0 view .LVU506
 1657 0042 D0F81C28 		ldr	r2, [r0, #2076]
 680:Drivers/STM32F4xx_HAL_Driver/Src/stm32f4xx_ll_usb.c ****   }
 1658              		.loc 1 680 77 view .LVU507
 1659 0046 0B78     		ldrb	r3, [r1]	@ zero_extendqisi2
 680:Drivers/STM32F4xx_HAL_Driver/Src/stm32f4xx_ll_usb.c ****   }
 1660              		.loc 1 680 83 view .LVU508
 1661 0048 03F00F01 		and	r1, r3, #15
 1662              	.LVL138:
 680:Drivers/STM32F4xx_HAL_Driver/Src/stm32f4xx_ll_usb.c ****   }
 1663              		.loc 1 680 56 view .LVU509
 1664 004c 0123     		movs	r3, #1
 1665 004e 8B40     		lsls	r3, r3, r1
 680:Drivers/STM32F4xx_HAL_Driver/Src/stm32f4xx_ll_usb.c ****   }
 1666              		.loc 1 680 54 view .LVU510
 1667 0050 9BB2     		uxth	r3, r3
 680:Drivers/STM32F4xx_HAL_Driver/Src/stm32f4xx_ll_usb.c ****   }
 1668              		.loc 1 680 27 view .LVU511
 1669 0052 22EA0303 		bic	r3, r2, r3
 1670 0056 C0F81C38 		str	r3, [r0, #2076]
 1671 005a E8E7     		b	.L118
 1672              		.cfi_endproc
 1673              	.LFE143:
 1675              		.section	.text.USB_EP0StartXfer,"ax",%progbits
 1676              		.align	1
 1677              		.global	USB_EP0StartXfer
 1678              		.syntax unified
 1679              		.thumb
 1680              		.thumb_func
 1681              		.fpu fpv4-sp-d16
 1683              	USB_EP0StartXfer:
 1684              	.LVL139:
ARM GAS  /tmp/ccrTWjYe.s 			page 62


 1685              	.LFB145:
 844:Drivers/STM32F4xx_HAL_Driver/Src/stm32f4xx_ll_usb.c ****   uint32_t USBx_BASE = (uint32_t)USBx;
 1686              		.loc 1 844 1 is_stmt 1 view -0
 1687              		.cfi_startproc
 1688              		@ args = 0, pretend = 0, frame = 0
 1689              		@ frame_needed = 0, uses_anonymous_args = 0
 1690              		@ link register save eliminated.
 844:Drivers/STM32F4xx_HAL_Driver/Src/stm32f4xx_ll_usb.c ****   uint32_t USBx_BASE = (uint32_t)USBx;
 1691              		.loc 1 844 1 is_stmt 0 view .LVU513
 1692 0000 70B4     		push	{r4, r5, r6}
 1693              	.LCFI20:
 1694              		.cfi_def_cfa_offset 12
 1695              		.cfi_offset 4, -12
 1696              		.cfi_offset 5, -8
 1697              		.cfi_offset 6, -4
 845:Drivers/STM32F4xx_HAL_Driver/Src/stm32f4xx_ll_usb.c ****   uint32_t epnum = (uint32_t)ep->num;
 1698              		.loc 1 845 3 is_stmt 1 view .LVU514
 1699              	.LVL140:
 846:Drivers/STM32F4xx_HAL_Driver/Src/stm32f4xx_ll_usb.c **** 
 1700              		.loc 1 846 3 view .LVU515
 846:Drivers/STM32F4xx_HAL_Driver/Src/stm32f4xx_ll_usb.c **** 
 1701              		.loc 1 846 32 is_stmt 0 view .LVU516
 1702 0002 0B78     		ldrb	r3, [r1]	@ zero_extendqisi2
 1703              	.LVL141:
 849:Drivers/STM32F4xx_HAL_Driver/Src/stm32f4xx_ll_usb.c ****   {
 1704              		.loc 1 849 3 is_stmt 1 view .LVU517
 849:Drivers/STM32F4xx_HAL_Driver/Src/stm32f4xx_ll_usb.c ****   {
 1705              		.loc 1 849 9 is_stmt 0 view .LVU518
 1706 0004 4C78     		ldrb	r4, [r1, #1]	@ zero_extendqisi2
 849:Drivers/STM32F4xx_HAL_Driver/Src/stm32f4xx_ll_usb.c ****   {
 1707              		.loc 1 849 6 view .LVU519
 1708 0006 012C     		cmp	r4, #1
 1709 0008 26D0     		beq	.L131
 904:Drivers/STM32F4xx_HAL_Driver/Src/stm32f4xx_ll_usb.c ****     USBx_OUTEP(epnum)->DOEPTSIZ &= ~(USB_OTG_DOEPTSIZ_PKTCNT);
 1710              		.loc 1 904 5 is_stmt 1 view .LVU520
 904:Drivers/STM32F4xx_HAL_Driver/Src/stm32f4xx_ll_usb.c ****     USBx_OUTEP(epnum)->DOEPTSIZ &= ~(USB_OTG_DOEPTSIZ_PKTCNT);
 1711              		.loc 1 904 33 is_stmt 0 view .LVU521
 1712 000a 00EB4310 		add	r0, r0, r3, lsl #5
 1713              	.LVL142:
 904:Drivers/STM32F4xx_HAL_Driver/Src/stm32f4xx_ll_usb.c ****     USBx_OUTEP(epnum)->DOEPTSIZ &= ~(USB_OTG_DOEPTSIZ_PKTCNT);
 1714              		.loc 1 904 33 view .LVU522
 1715 000e 00F53063 		add	r3, r0, #2816
 1716              	.LVL143:
 904:Drivers/STM32F4xx_HAL_Driver/Src/stm32f4xx_ll_usb.c ****     USBx_OUTEP(epnum)->DOEPTSIZ &= ~(USB_OTG_DOEPTSIZ_PKTCNT);
 1717              		.loc 1 904 33 view .LVU523
 1718 0012 1C69     		ldr	r4, [r3, #16]
 1719 0014 E40C     		lsrs	r4, r4, #19
 1720 0016 E404     		lsls	r4, r4, #19
 1721 0018 1C61     		str	r4, [r3, #16]
 1722              	.LVL144:
 905:Drivers/STM32F4xx_HAL_Driver/Src/stm32f4xx_ll_usb.c **** 
 1723              		.loc 1 905 5 is_stmt 1 view .LVU524
 905:Drivers/STM32F4xx_HAL_Driver/Src/stm32f4xx_ll_usb.c **** 
 1724              		.loc 1 905 33 is_stmt 0 view .LVU525
 1725 001a 1C69     		ldr	r4, [r3, #16]
 1726 001c 24F0FF54 		bic	r4, r4, #534773760
 1727 0020 24F4C014 		bic	r4, r4, #1572864
ARM GAS  /tmp/ccrTWjYe.s 			page 63


 1728 0024 1C61     		str	r4, [r3, #16]
 907:Drivers/STM32F4xx_HAL_Driver/Src/stm32f4xx_ll_usb.c ****     {
 1729              		.loc 1 907 5 is_stmt 1 view .LVU526
 907:Drivers/STM32F4xx_HAL_Driver/Src/stm32f4xx_ll_usb.c ****     {
 1730              		.loc 1 907 11 is_stmt 0 view .LVU527
 1731 0026 4C69     		ldr	r4, [r1, #20]
 907:Drivers/STM32F4xx_HAL_Driver/Src/stm32f4xx_ll_usb.c ****     {
 1732              		.loc 1 907 8 view .LVU528
 1733 0028 0CB1     		cbz	r4, .L128
 909:Drivers/STM32F4xx_HAL_Driver/Src/stm32f4xx_ll_usb.c ****     }
 1734              		.loc 1 909 7 is_stmt 1 view .LVU529
 909:Drivers/STM32F4xx_HAL_Driver/Src/stm32f4xx_ll_usb.c ****     }
 1735              		.loc 1 909 24 is_stmt 0 view .LVU530
 1736 002a 8C68     		ldr	r4, [r1, #8]
 909:Drivers/STM32F4xx_HAL_Driver/Src/stm32f4xx_ll_usb.c ****     }
 1737              		.loc 1 909 20 view .LVU531
 1738 002c 4C61     		str	r4, [r1, #20]
 1739              	.L128:
 912:Drivers/STM32F4xx_HAL_Driver/Src/stm32f4xx_ll_usb.c ****     USBx_OUTEP(epnum)->DOEPTSIZ |= (USB_OTG_DOEPTSIZ_XFRSIZ & (ep->maxpacket));
 1740              		.loc 1 912 5 is_stmt 1 view .LVU532
 912:Drivers/STM32F4xx_HAL_Driver/Src/stm32f4xx_ll_usb.c ****     USBx_OUTEP(epnum)->DOEPTSIZ |= (USB_OTG_DOEPTSIZ_XFRSIZ & (ep->maxpacket));
 1741              		.loc 1 912 33 is_stmt 0 view .LVU533
 1742 002e 1C69     		ldr	r4, [r3, #16]
 1743 0030 44F40024 		orr	r4, r4, #524288
 1744 0034 1C61     		str	r4, [r3, #16]
 913:Drivers/STM32F4xx_HAL_Driver/Src/stm32f4xx_ll_usb.c **** 
 1745              		.loc 1 913 5 is_stmt 1 view .LVU534
 913:Drivers/STM32F4xx_HAL_Driver/Src/stm32f4xx_ll_usb.c **** 
 1746              		.loc 1 913 33 is_stmt 0 view .LVU535
 1747 0036 1C69     		ldr	r4, [r3, #16]
 913:Drivers/STM32F4xx_HAL_Driver/Src/stm32f4xx_ll_usb.c **** 
 1748              		.loc 1 913 66 view .LVU536
 1749 0038 8D68     		ldr	r5, [r1, #8]
 913:Drivers/STM32F4xx_HAL_Driver/Src/stm32f4xx_ll_usb.c **** 
 1750              		.loc 1 913 61 view .LVU537
 1751 003a C5F31205 		ubfx	r5, r5, #0, #19
 913:Drivers/STM32F4xx_HAL_Driver/Src/stm32f4xx_ll_usb.c **** 
 1752              		.loc 1 913 33 view .LVU538
 1753 003e 2C43     		orrs	r4, r4, r5
 1754 0040 1C61     		str	r4, [r3, #16]
 915:Drivers/STM32F4xx_HAL_Driver/Src/stm32f4xx_ll_usb.c ****     {
 1755              		.loc 1 915 5 is_stmt 1 view .LVU539
 915:Drivers/STM32F4xx_HAL_Driver/Src/stm32f4xx_ll_usb.c ****     {
 1756              		.loc 1 915 8 is_stmt 0 view .LVU540
 1757 0042 012A     		cmp	r2, #1
 1758 0044 65D0     		beq	.L132
 1759              	.LVL145:
 1760              	.L129:
 924:Drivers/STM32F4xx_HAL_Driver/Src/stm32f4xx_ll_usb.c ****   }
 1761              		.loc 1 924 5 is_stmt 1 view .LVU541
 924:Drivers/STM32F4xx_HAL_Driver/Src/stm32f4xx_ll_usb.c ****   }
 1762              		.loc 1 924 32 is_stmt 0 view .LVU542
 1763 0046 D0F8003B 		ldr	r3, [r0, #2816]
 1764 004a 43F00443 		orr	r3, r3, #-2080374784
 1765 004e C0F8003B 		str	r3, [r0, #2816]
 1766              	.LVL146:
 1767              	.L127:
ARM GAS  /tmp/ccrTWjYe.s 			page 64


 927:Drivers/STM32F4xx_HAL_Driver/Src/stm32f4xx_ll_usb.c **** }
 1768              		.loc 1 927 3 is_stmt 1 view .LVU543
 928:Drivers/STM32F4xx_HAL_Driver/Src/stm32f4xx_ll_usb.c **** 
 1769              		.loc 1 928 1 is_stmt 0 view .LVU544
 1770 0052 0020     		movs	r0, #0
 1771 0054 70BC     		pop	{r4, r5, r6}
 1772              	.LCFI21:
 1773              		.cfi_remember_state
 1774              		.cfi_restore 6
 1775              		.cfi_restore 5
 1776              		.cfi_restore 4
 1777              		.cfi_def_cfa_offset 0
 1778 0056 7047     		bx	lr
 1779              	.LVL147:
 1780              	.L131:
 1781              	.LCFI22:
 1782              		.cfi_restore_state
 852:Drivers/STM32F4xx_HAL_Driver/Src/stm32f4xx_ll_usb.c ****     {
 1783              		.loc 1 852 5 is_stmt 1 view .LVU545
 852:Drivers/STM32F4xx_HAL_Driver/Src/stm32f4xx_ll_usb.c ****     {
 1784              		.loc 1 852 11 is_stmt 0 view .LVU546
 1785 0058 4C69     		ldr	r4, [r1, #20]
 852:Drivers/STM32F4xx_HAL_Driver/Src/stm32f4xx_ll_usb.c ****     {
 1786              		.loc 1 852 8 view .LVU547
 1787 005a 6CBB     		cbnz	r4, .L122
 854:Drivers/STM32F4xx_HAL_Driver/Src/stm32f4xx_ll_usb.c ****       USBx_INEP(epnum)->DIEPTSIZ |= (USB_OTG_DIEPTSIZ_PKTCNT & (1U << 19));
 1788              		.loc 1 854 7 is_stmt 1 view .LVU548
 854:Drivers/STM32F4xx_HAL_Driver/Src/stm32f4xx_ll_usb.c ****       USBx_INEP(epnum)->DIEPTSIZ |= (USB_OTG_DIEPTSIZ_PKTCNT & (1U << 19));
 1789              		.loc 1 854 34 is_stmt 0 view .LVU549
 1790 005c 00EB4314 		add	r4, r0, r3, lsl #5
 1791 0060 D4F81059 		ldr	r5, [r4, #2320]
 1792 0064 25F0FF55 		bic	r5, r5, #534773760
 1793 0068 25F4C015 		bic	r5, r5, #1572864
 1794 006c C4F81059 		str	r5, [r4, #2320]
 855:Drivers/STM32F4xx_HAL_Driver/Src/stm32f4xx_ll_usb.c ****       USBx_INEP(epnum)->DIEPTSIZ &= ~(USB_OTG_DIEPTSIZ_XFRSIZ);
 1795              		.loc 1 855 7 is_stmt 1 view .LVU550
 855:Drivers/STM32F4xx_HAL_Driver/Src/stm32f4xx_ll_usb.c ****       USBx_INEP(epnum)->DIEPTSIZ &= ~(USB_OTG_DIEPTSIZ_XFRSIZ);
 1796              		.loc 1 855 34 is_stmt 0 view .LVU551
 1797 0070 D4F81059 		ldr	r5, [r4, #2320]
 1798 0074 45F40025 		orr	r5, r5, #524288
 1799 0078 C4F81059 		str	r5, [r4, #2320]
 856:Drivers/STM32F4xx_HAL_Driver/Src/stm32f4xx_ll_usb.c ****     }
 1800              		.loc 1 856 7 is_stmt 1 view .LVU552
 856:Drivers/STM32F4xx_HAL_Driver/Src/stm32f4xx_ll_usb.c ****     }
 1801              		.loc 1 856 34 is_stmt 0 view .LVU553
 1802 007c D4F81059 		ldr	r5, [r4, #2320]
 1803 0080 ED0C     		lsrs	r5, r5, #19
 1804 0082 ED04     		lsls	r5, r5, #19
 1805 0084 C4F81059 		str	r5, [r4, #2320]
 1806              	.L123:
 876:Drivers/STM32F4xx_HAL_Driver/Src/stm32f4xx_ll_usb.c ****     {
 1807              		.loc 1 876 5 is_stmt 1 view .LVU554
 876:Drivers/STM32F4xx_HAL_Driver/Src/stm32f4xx_ll_usb.c ****     {
 1808              		.loc 1 876 8 is_stmt 0 view .LVU555
 1809 0088 012A     		cmp	r2, #1
 1810 008a 33D0     		beq	.L133
 889:Drivers/STM32F4xx_HAL_Driver/Src/stm32f4xx_ll_usb.c **** 
ARM GAS  /tmp/ccrTWjYe.s 			page 65


 1811              		.loc 1 889 7 is_stmt 1 view .LVU556
 889:Drivers/STM32F4xx_HAL_Driver/Src/stm32f4xx_ll_usb.c **** 
 1812              		.loc 1 889 33 is_stmt 0 view .LVU557
 1813 008c 00EB4313 		add	r3, r0, r3, lsl #5
 1814              	.LVL148:
 889:Drivers/STM32F4xx_HAL_Driver/Src/stm32f4xx_ll_usb.c **** 
 1815              		.loc 1 889 33 view .LVU558
 1816 0090 D3F80029 		ldr	r2, [r3, #2304]
 1817              	.LVL149:
 889:Drivers/STM32F4xx_HAL_Driver/Src/stm32f4xx_ll_usb.c **** 
 1818              		.loc 1 889 33 view .LVU559
 1819 0094 42F00442 		orr	r2, r2, #-2080374784
 1820 0098 C3F80029 		str	r2, [r3, #2304]
 892:Drivers/STM32F4xx_HAL_Driver/Src/stm32f4xx_ll_usb.c ****       {
 1821              		.loc 1 892 7 is_stmt 1 view .LVU560
 892:Drivers/STM32F4xx_HAL_Driver/Src/stm32f4xx_ll_usb.c ****       {
 1822              		.loc 1 892 13 is_stmt 0 view .LVU561
 1823 009c 4B69     		ldr	r3, [r1, #20]
 892:Drivers/STM32F4xx_HAL_Driver/Src/stm32f4xx_ll_usb.c ****       {
 1824              		.loc 1 892 10 view .LVU562
 1825 009e 002B     		cmp	r3, #0
 1826 00a0 D7D0     		beq	.L127
 894:Drivers/STM32F4xx_HAL_Driver/Src/stm32f4xx_ll_usb.c ****       }
 1827              		.loc 1 894 9 is_stmt 1 view .LVU563
 894:Drivers/STM32F4xx_HAL_Driver/Src/stm32f4xx_ll_usb.c ****       }
 1828              		.loc 1 894 33 is_stmt 0 view .LVU564
 1829 00a2 D0F83428 		ldr	r2, [r0, #2100]
 894:Drivers/STM32F4xx_HAL_Driver/Src/stm32f4xx_ll_usb.c ****       }
 1830              		.loc 1 894 46 view .LVU565
 1831 00a6 0978     		ldrb	r1, [r1]	@ zero_extendqisi2
 1832              	.LVL150:
 894:Drivers/STM32F4xx_HAL_Driver/Src/stm32f4xx_ll_usb.c ****       }
 1833              		.loc 1 894 52 view .LVU566
 1834 00a8 01F00F04 		and	r4, r1, #15
 894:Drivers/STM32F4xx_HAL_Driver/Src/stm32f4xx_ll_usb.c ****       }
 1835              		.loc 1 894 40 view .LVU567
 1836 00ac 0121     		movs	r1, #1
 1837 00ae A140     		lsls	r1, r1, r4
 894:Drivers/STM32F4xx_HAL_Driver/Src/stm32f4xx_ll_usb.c ****       }
 1838              		.loc 1 894 33 view .LVU568
 1839 00b0 0A43     		orrs	r2, r2, r1
 1840 00b2 C0F83428 		str	r2, [r0, #2100]
 1841 00b6 CCE7     		b	.L127
 1842              	.LVL151:
 1843              	.L122:
 865:Drivers/STM32F4xx_HAL_Driver/Src/stm32f4xx_ll_usb.c ****       USBx_INEP(epnum)->DIEPTSIZ &= ~(USB_OTG_DIEPTSIZ_PKTCNT);
 1844              		.loc 1 865 7 is_stmt 1 view .LVU569
 865:Drivers/STM32F4xx_HAL_Driver/Src/stm32f4xx_ll_usb.c ****       USBx_INEP(epnum)->DIEPTSIZ &= ~(USB_OTG_DIEPTSIZ_PKTCNT);
 1845              		.loc 1 865 34 is_stmt 0 view .LVU570
 1846 00b8 00EB4314 		add	r4, r0, r3, lsl #5
 1847 00bc 04F51064 		add	r4, r4, #2304
 1848 00c0 2569     		ldr	r5, [r4, #16]
 1849 00c2 ED0C     		lsrs	r5, r5, #19
 1850 00c4 ED04     		lsls	r5, r5, #19
 1851 00c6 2561     		str	r5, [r4, #16]
 866:Drivers/STM32F4xx_HAL_Driver/Src/stm32f4xx_ll_usb.c **** 
 1852              		.loc 1 866 7 is_stmt 1 view .LVU571
ARM GAS  /tmp/ccrTWjYe.s 			page 66


 866:Drivers/STM32F4xx_HAL_Driver/Src/stm32f4xx_ll_usb.c **** 
 1853              		.loc 1 866 34 is_stmt 0 view .LVU572
 1854 00c8 2569     		ldr	r5, [r4, #16]
 1855 00ca 25F0FF55 		bic	r5, r5, #534773760
 1856 00ce 25F4C015 		bic	r5, r5, #1572864
 1857 00d2 2561     		str	r5, [r4, #16]
 868:Drivers/STM32F4xx_HAL_Driver/Src/stm32f4xx_ll_usb.c ****       {
 1858              		.loc 1 868 7 is_stmt 1 view .LVU573
 868:Drivers/STM32F4xx_HAL_Driver/Src/stm32f4xx_ll_usb.c ****       {
 1859              		.loc 1 868 13 is_stmt 0 view .LVU574
 1860 00d4 4E69     		ldr	r6, [r1, #20]
 868:Drivers/STM32F4xx_HAL_Driver/Src/stm32f4xx_ll_usb.c ****       {
 1861              		.loc 1 868 28 view .LVU575
 1862 00d6 8D68     		ldr	r5, [r1, #8]
 868:Drivers/STM32F4xx_HAL_Driver/Src/stm32f4xx_ll_usb.c ****       {
 1863              		.loc 1 868 10 view .LVU576
 1864 00d8 AE42     		cmp	r6, r5
 1865 00da 00D9     		bls	.L124
 870:Drivers/STM32F4xx_HAL_Driver/Src/stm32f4xx_ll_usb.c ****       }
 1866              		.loc 1 870 9 is_stmt 1 view .LVU577
 870:Drivers/STM32F4xx_HAL_Driver/Src/stm32f4xx_ll_usb.c ****       }
 1867              		.loc 1 870 22 is_stmt 0 view .LVU578
 1868 00dc 4D61     		str	r5, [r1, #20]
 1869              	.L124:
 872:Drivers/STM32F4xx_HAL_Driver/Src/stm32f4xx_ll_usb.c ****       USBx_INEP(epnum)->DIEPTSIZ |= (USB_OTG_DIEPTSIZ_XFRSIZ & ep->xfer_len);
 1870              		.loc 1 872 7 is_stmt 1 view .LVU579
 872:Drivers/STM32F4xx_HAL_Driver/Src/stm32f4xx_ll_usb.c ****       USBx_INEP(epnum)->DIEPTSIZ |= (USB_OTG_DIEPTSIZ_XFRSIZ & ep->xfer_len);
 1871              		.loc 1 872 34 is_stmt 0 view .LVU580
 1872 00de 2569     		ldr	r5, [r4, #16]
 1873 00e0 45F40025 		orr	r5, r5, #524288
 1874 00e4 2561     		str	r5, [r4, #16]
 873:Drivers/STM32F4xx_HAL_Driver/Src/stm32f4xx_ll_usb.c ****     }
 1875              		.loc 1 873 7 is_stmt 1 view .LVU581
 873:Drivers/STM32F4xx_HAL_Driver/Src/stm32f4xx_ll_usb.c ****     }
 1876              		.loc 1 873 34 is_stmt 0 view .LVU582
 1877 00e6 2569     		ldr	r5, [r4, #16]
 873:Drivers/STM32F4xx_HAL_Driver/Src/stm32f4xx_ll_usb.c ****     }
 1878              		.loc 1 873 66 view .LVU583
 1879 00e8 4E69     		ldr	r6, [r1, #20]
 873:Drivers/STM32F4xx_HAL_Driver/Src/stm32f4xx_ll_usb.c ****     }
 1880              		.loc 1 873 62 view .LVU584
 1881 00ea C6F31206 		ubfx	r6, r6, #0, #19
 873:Drivers/STM32F4xx_HAL_Driver/Src/stm32f4xx_ll_usb.c ****     }
 1882              		.loc 1 873 34 view .LVU585
 1883 00ee 3543     		orrs	r5, r5, r6
 1884 00f0 2561     		str	r5, [r4, #16]
 1885 00f2 C9E7     		b	.L123
 1886              	.L133:
 878:Drivers/STM32F4xx_HAL_Driver/Src/stm32f4xx_ll_usb.c ****       {
 1887              		.loc 1 878 7 is_stmt 1 view .LVU586
 878:Drivers/STM32F4xx_HAL_Driver/Src/stm32f4xx_ll_usb.c ****       {
 1888              		.loc 1 878 23 is_stmt 0 view .LVU587
 1889 00f4 0A69     		ldr	r2, [r1, #16]
 1890              	.LVL152:
 878:Drivers/STM32F4xx_HAL_Driver/Src/stm32f4xx_ll_usb.c ****       {
 1891              		.loc 1 878 10 view .LVU588
 1892 00f6 1AB1     		cbz	r2, .L126
ARM GAS  /tmp/ccrTWjYe.s 			page 67


 880:Drivers/STM32F4xx_HAL_Driver/Src/stm32f4xx_ll_usb.c ****       }
 1893              		.loc 1 880 9 is_stmt 1 view .LVU589
 1894 00f8 00EB4311 		add	r1, r0, r3, lsl #5
 1895              	.LVL153:
 880:Drivers/STM32F4xx_HAL_Driver/Src/stm32f4xx_ll_usb.c ****       }
 1896              		.loc 1 880 35 is_stmt 0 view .LVU590
 1897 00fc C1F81429 		str	r2, [r1, #2324]
 1898              	.L126:
 884:Drivers/STM32F4xx_HAL_Driver/Src/stm32f4xx_ll_usb.c ****     }
 1899              		.loc 1 884 7 is_stmt 1 view .LVU591
 884:Drivers/STM32F4xx_HAL_Driver/Src/stm32f4xx_ll_usb.c ****     }
 1900              		.loc 1 884 33 is_stmt 0 view .LVU592
 1901 0100 00EB4310 		add	r0, r0, r3, lsl #5
 1902              	.LVL154:
 884:Drivers/STM32F4xx_HAL_Driver/Src/stm32f4xx_ll_usb.c ****     }
 1903              		.loc 1 884 33 view .LVU593
 1904 0104 D0F80029 		ldr	r2, [r0, #2304]
 1905 0108 42F00442 		orr	r2, r2, #-2080374784
 1906 010c C0F80029 		str	r2, [r0, #2304]
 1907 0110 9FE7     		b	.L127
 1908              	.LVL155:
 1909              	.L132:
 917:Drivers/STM32F4xx_HAL_Driver/Src/stm32f4xx_ll_usb.c ****       {
 1910              		.loc 1 917 7 is_stmt 1 view .LVU594
 917:Drivers/STM32F4xx_HAL_Driver/Src/stm32f4xx_ll_usb.c ****       {
 1911              		.loc 1 917 23 is_stmt 0 view .LVU595
 1912 0112 CA68     		ldr	r2, [r1, #12]
 1913              	.LVL156:
 917:Drivers/STM32F4xx_HAL_Driver/Src/stm32f4xx_ll_usb.c ****       {
 1914              		.loc 1 917 10 view .LVU596
 1915 0114 002A     		cmp	r2, #0
 1916 0116 96D0     		beq	.L129
 919:Drivers/STM32F4xx_HAL_Driver/Src/stm32f4xx_ll_usb.c ****       }
 1917              		.loc 1 919 9 is_stmt 1 view .LVU597
 919:Drivers/STM32F4xx_HAL_Driver/Src/stm32f4xx_ll_usb.c ****       }
 1918              		.loc 1 919 36 is_stmt 0 view .LVU598
 1919 0118 5A61     		str	r2, [r3, #20]
 1920 011a 94E7     		b	.L129
 1921              		.cfi_endproc
 1922              	.LFE145:
 1924              		.section	.text.USB_WritePacket,"ax",%progbits
 1925              		.align	1
 1926              		.global	USB_WritePacket
 1927              		.syntax unified
 1928              		.thumb
 1929              		.thumb_func
 1930              		.fpu fpv4-sp-d16
 1932              	USB_WritePacket:
 1933              	.LVL157:
 1934              	.LFB146:
 944:Drivers/STM32F4xx_HAL_Driver/Src/stm32f4xx_ll_usb.c ****   uint32_t USBx_BASE = (uint32_t)USBx;
 1935              		.loc 1 944 1 is_stmt 1 view -0
 1936              		.cfi_startproc
 1937              		@ args = 4, pretend = 0, frame = 0
 1938              		@ frame_needed = 0, uses_anonymous_args = 0
 1939              		@ link register save eliminated.
 944:Drivers/STM32F4xx_HAL_Driver/Src/stm32f4xx_ll_usb.c ****   uint32_t USBx_BASE = (uint32_t)USBx;
ARM GAS  /tmp/ccrTWjYe.s 			page 68


 1940              		.loc 1 944 1 is_stmt 0 view .LVU600
 1941 0000 70B4     		push	{r4, r5, r6}
 1942              	.LCFI23:
 1943              		.cfi_def_cfa_offset 12
 1944              		.cfi_offset 4, -12
 1945              		.cfi_offset 5, -8
 1946              		.cfi_offset 6, -4
 1947 0002 9DF80C40 		ldrb	r4, [sp, #12]	@ zero_extendqisi2
 945:Drivers/STM32F4xx_HAL_Driver/Src/stm32f4xx_ll_usb.c ****   uint32_t *pSrc = (uint32_t *)src;
 1948              		.loc 1 945 3 is_stmt 1 view .LVU601
 1949              	.LVL158:
 946:Drivers/STM32F4xx_HAL_Driver/Src/stm32f4xx_ll_usb.c ****   uint32_t count32b, i;
 1950              		.loc 1 946 3 view .LVU602
 947:Drivers/STM32F4xx_HAL_Driver/Src/stm32f4xx_ll_usb.c **** 
 1951              		.loc 1 947 3 view .LVU603
 949:Drivers/STM32F4xx_HAL_Driver/Src/stm32f4xx_ll_usb.c ****   {
 1952              		.loc 1 949 3 view .LVU604
 949:Drivers/STM32F4xx_HAL_Driver/Src/stm32f4xx_ll_usb.c ****   {
 1953              		.loc 1 949 6 is_stmt 0 view .LVU605
 1954 0006 64B9     		cbnz	r4, .L135
 951:Drivers/STM32F4xx_HAL_Driver/Src/stm32f4xx_ll_usb.c ****     for (i = 0U; i < count32b; i++)
 1955              		.loc 1 951 5 is_stmt 1 view .LVU606
 951:Drivers/STM32F4xx_HAL_Driver/Src/stm32f4xx_ll_usb.c ****     for (i = 0U; i < count32b; i++)
 1956              		.loc 1 951 31 is_stmt 0 view .LVU607
 1957 0008 0333     		adds	r3, r3, #3
 1958              	.LVL159:
 951:Drivers/STM32F4xx_HAL_Driver/Src/stm32f4xx_ll_usb.c ****     for (i = 0U; i < count32b; i++)
 1959              		.loc 1 951 14 view .LVU608
 1960 000a 9E08     		lsrs	r6, r3, #2
 1961              	.LVL160:
 952:Drivers/STM32F4xx_HAL_Driver/Src/stm32f4xx_ll_usb.c ****     {
 1962              		.loc 1 952 5 is_stmt 1 view .LVU609
 1963              	.L136:
 952:Drivers/STM32F4xx_HAL_Driver/Src/stm32f4xx_ll_usb.c ****     {
 1964              		.loc 1 952 5 is_stmt 0 discriminator 1 view .LVU610
 1965 000c B442     		cmp	r4, r6
 1966 000e 08D2     		bcs	.L135
 954:Drivers/STM32F4xx_HAL_Driver/Src/stm32f4xx_ll_usb.c ****       pSrc++;
 1967              		.loc 1 954 7 is_stmt 1 discriminator 3 view .LVU611
 1968 0010 00EB0233 		add	r3, r0, r2, lsl #12
 1969 0014 03F58053 		add	r3, r3, #4096
 954:Drivers/STM32F4xx_HAL_Driver/Src/stm32f4xx_ll_usb.c ****       pSrc++;
 1970              		.loc 1 954 41 is_stmt 0 discriminator 3 view .LVU612
 1971 0018 51F8045B 		ldr	r5, [r1], #4	@ unaligned
 1972              	.LVL161:
 954:Drivers/STM32F4xx_HAL_Driver/Src/stm32f4xx_ll_usb.c ****       pSrc++;
 1973              		.loc 1 954 39 discriminator 3 view .LVU613
 1974 001c 1D60     		str	r5, [r3]
 955:Drivers/STM32F4xx_HAL_Driver/Src/stm32f4xx_ll_usb.c ****     }
 1975              		.loc 1 955 7 is_stmt 1 discriminator 3 view .LVU614
 1976              	.LVL162:
 952:Drivers/STM32F4xx_HAL_Driver/Src/stm32f4xx_ll_usb.c ****     {
 1977              		.loc 1 952 33 is_stmt 0 discriminator 3 view .LVU615
 1978 001e 0134     		adds	r4, r4, #1
 1979              	.LVL163:
 952:Drivers/STM32F4xx_HAL_Driver/Src/stm32f4xx_ll_usb.c ****     {
 1980              		.loc 1 952 33 discriminator 3 view .LVU616
ARM GAS  /tmp/ccrTWjYe.s 			page 69


 1981 0020 F4E7     		b	.L136
 1982              	.LVL164:
 1983              	.L135:
 959:Drivers/STM32F4xx_HAL_Driver/Src/stm32f4xx_ll_usb.c **** }
 1984              		.loc 1 959 3 is_stmt 1 view .LVU617
 960:Drivers/STM32F4xx_HAL_Driver/Src/stm32f4xx_ll_usb.c **** 
 1985              		.loc 1 960 1 is_stmt 0 view .LVU618
 1986 0022 0020     		movs	r0, #0
 1987              	.LVL165:
 960:Drivers/STM32F4xx_HAL_Driver/Src/stm32f4xx_ll_usb.c **** 
 1988              		.loc 1 960 1 view .LVU619
 1989 0024 70BC     		pop	{r4, r5, r6}
 1990              	.LCFI24:
 1991              		.cfi_restore 6
 1992              		.cfi_restore 5
 1993              		.cfi_restore 4
 1994              		.cfi_def_cfa_offset 0
 1995              	.LVL166:
 960:Drivers/STM32F4xx_HAL_Driver/Src/stm32f4xx_ll_usb.c **** 
 1996              		.loc 1 960 1 view .LVU620
 1997 0026 7047     		bx	lr
 1998              		.cfi_endproc
 1999              	.LFE146:
 2001              		.section	.text.USB_EPStartXfer,"ax",%progbits
 2002              		.align	1
 2003              		.global	USB_EPStartXfer
 2004              		.syntax unified
 2005              		.thumb
 2006              		.thumb_func
 2007              		.fpu fpv4-sp-d16
 2009              	USB_EPStartXfer:
 2010              	.LVL167:
 2011              	.LFB144:
 702:Drivers/STM32F4xx_HAL_Driver/Src/stm32f4xx_ll_usb.c ****   uint32_t USBx_BASE = (uint32_t)USBx;
 2012              		.loc 1 702 1 is_stmt 1 view -0
 2013              		.cfi_startproc
 2014              		@ args = 0, pretend = 0, frame = 0
 2015              		@ frame_needed = 0, uses_anonymous_args = 0
 702:Drivers/STM32F4xx_HAL_Driver/Src/stm32f4xx_ll_usb.c ****   uint32_t USBx_BASE = (uint32_t)USBx;
 2016              		.loc 1 702 1 is_stmt 0 view .LVU622
 2017 0000 F0B5     		push	{r4, r5, r6, r7, lr}
 2018              	.LCFI25:
 2019              		.cfi_def_cfa_offset 20
 2020              		.cfi_offset 4, -20
 2021              		.cfi_offset 5, -16
 2022              		.cfi_offset 6, -12
 2023              		.cfi_offset 7, -8
 2024              		.cfi_offset 14, -4
 2025 0002 83B0     		sub	sp, sp, #12
 2026              	.LCFI26:
 2027              		.cfi_def_cfa_offset 32
 703:Drivers/STM32F4xx_HAL_Driver/Src/stm32f4xx_ll_usb.c ****   uint32_t epnum = (uint32_t)ep->num;
 2028              		.loc 1 703 3 is_stmt 1 view .LVU623
 2029              	.LVL168:
 704:Drivers/STM32F4xx_HAL_Driver/Src/stm32f4xx_ll_usb.c ****   uint16_t pktcnt;
 2030              		.loc 1 704 3 view .LVU624
 704:Drivers/STM32F4xx_HAL_Driver/Src/stm32f4xx_ll_usb.c ****   uint16_t pktcnt;
ARM GAS  /tmp/ccrTWjYe.s 			page 70


 2031              		.loc 1 704 32 is_stmt 0 view .LVU625
 2032 0004 0B78     		ldrb	r3, [r1]	@ zero_extendqisi2
 2033              	.LVL169:
 705:Drivers/STM32F4xx_HAL_Driver/Src/stm32f4xx_ll_usb.c **** 
 2034              		.loc 1 705 3 is_stmt 1 view .LVU626
 708:Drivers/STM32F4xx_HAL_Driver/Src/stm32f4xx_ll_usb.c ****   {
 2035              		.loc 1 708 3 view .LVU627
 708:Drivers/STM32F4xx_HAL_Driver/Src/stm32f4xx_ll_usb.c ****   {
 2036              		.loc 1 708 9 is_stmt 0 view .LVU628
 2037 0006 4C78     		ldrb	r4, [r1, #1]	@ zero_extendqisi2
 708:Drivers/STM32F4xx_HAL_Driver/Src/stm32f4xx_ll_usb.c ****   {
 2038              		.loc 1 708 6 view .LVU629
 2039 0008 012C     		cmp	r4, #1
 2040 000a 2BD0     		beq	.L157
 792:Drivers/STM32F4xx_HAL_Driver/Src/stm32f4xx_ll_usb.c ****     USBx_OUTEP(epnum)->DOEPTSIZ &= ~(USB_OTG_DOEPTSIZ_PKTCNT);
 2041              		.loc 1 792 5 is_stmt 1 view .LVU630
 792:Drivers/STM32F4xx_HAL_Driver/Src/stm32f4xx_ll_usb.c ****     USBx_OUTEP(epnum)->DOEPTSIZ &= ~(USB_OTG_DOEPTSIZ_PKTCNT);
 2042              		.loc 1 792 33 is_stmt 0 view .LVU631
 2043 000c 00EB4313 		add	r3, r0, r3, lsl #5
 2044              	.LVL170:
 792:Drivers/STM32F4xx_HAL_Driver/Src/stm32f4xx_ll_usb.c ****     USBx_OUTEP(epnum)->DOEPTSIZ &= ~(USB_OTG_DOEPTSIZ_PKTCNT);
 2045              		.loc 1 792 33 view .LVU632
 2046 0010 03F53064 		add	r4, r3, #2816
 2047 0014 2569     		ldr	r5, [r4, #16]
 2048 0016 ED0C     		lsrs	r5, r5, #19
 2049 0018 ED04     		lsls	r5, r5, #19
 2050 001a 2561     		str	r5, [r4, #16]
 2051              	.LVL171:
 793:Drivers/STM32F4xx_HAL_Driver/Src/stm32f4xx_ll_usb.c **** 
 2052              		.loc 1 793 5 is_stmt 1 view .LVU633
 793:Drivers/STM32F4xx_HAL_Driver/Src/stm32f4xx_ll_usb.c **** 
 2053              		.loc 1 793 33 is_stmt 0 view .LVU634
 2054 001c 2569     		ldr	r5, [r4, #16]
 2055 001e 25F0FF55 		bic	r5, r5, #534773760
 2056 0022 25F4C015 		bic	r5, r5, #1572864
 2057 0026 2561     		str	r5, [r4, #16]
 795:Drivers/STM32F4xx_HAL_Driver/Src/stm32f4xx_ll_usb.c ****     {
 2058              		.loc 1 795 5 is_stmt 1 view .LVU635
 795:Drivers/STM32F4xx_HAL_Driver/Src/stm32f4xx_ll_usb.c ****     {
 2059              		.loc 1 795 11 is_stmt 0 view .LVU636
 2060 0028 4D69     		ldr	r5, [r1, #20]
 795:Drivers/STM32F4xx_HAL_Driver/Src/stm32f4xx_ll_usb.c ****     {
 2061              		.loc 1 795 8 view .LVU637
 2062 002a 002D     		cmp	r5, #0
 2063 002c 40F0C380 		bne	.L151
 797:Drivers/STM32F4xx_HAL_Driver/Src/stm32f4xx_ll_usb.c ****       USBx_OUTEP(epnum)->DOEPTSIZ |= (USB_OTG_DOEPTSIZ_PKTCNT & (1U << 19));
 2064              		.loc 1 797 7 is_stmt 1 view .LVU638
 797:Drivers/STM32F4xx_HAL_Driver/Src/stm32f4xx_ll_usb.c ****       USBx_OUTEP(epnum)->DOEPTSIZ |= (USB_OTG_DOEPTSIZ_PKTCNT & (1U << 19));
 2065              		.loc 1 797 35 is_stmt 0 view .LVU639
 2066 0030 2569     		ldr	r5, [r4, #16]
 797:Drivers/STM32F4xx_HAL_Driver/Src/stm32f4xx_ll_usb.c ****       USBx_OUTEP(epnum)->DOEPTSIZ |= (USB_OTG_DOEPTSIZ_PKTCNT & (1U << 19));
 2067              		.loc 1 797 67 view .LVU640
 2068 0032 8E68     		ldr	r6, [r1, #8]
 797:Drivers/STM32F4xx_HAL_Driver/Src/stm32f4xx_ll_usb.c ****       USBx_OUTEP(epnum)->DOEPTSIZ |= (USB_OTG_DOEPTSIZ_PKTCNT & (1U << 19));
 2069              		.loc 1 797 63 view .LVU641
 2070 0034 C6F31206 		ubfx	r6, r6, #0, #19
 797:Drivers/STM32F4xx_HAL_Driver/Src/stm32f4xx_ll_usb.c ****       USBx_OUTEP(epnum)->DOEPTSIZ |= (USB_OTG_DOEPTSIZ_PKTCNT & (1U << 19));
ARM GAS  /tmp/ccrTWjYe.s 			page 71


 2071              		.loc 1 797 35 view .LVU642
 2072 0038 3543     		orrs	r5, r5, r6
 2073 003a 2561     		str	r5, [r4, #16]
 798:Drivers/STM32F4xx_HAL_Driver/Src/stm32f4xx_ll_usb.c ****     }
 2074              		.loc 1 798 7 is_stmt 1 view .LVU643
 798:Drivers/STM32F4xx_HAL_Driver/Src/stm32f4xx_ll_usb.c ****     }
 2075              		.loc 1 798 35 is_stmt 0 view .LVU644
 2076 003c 2569     		ldr	r5, [r4, #16]
 2077 003e 45F40025 		orr	r5, r5, #524288
 2078 0042 2561     		str	r5, [r4, #16]
 2079              	.L152:
 807:Drivers/STM32F4xx_HAL_Driver/Src/stm32f4xx_ll_usb.c ****     {
 2080              		.loc 1 807 5 is_stmt 1 view .LVU645
 807:Drivers/STM32F4xx_HAL_Driver/Src/stm32f4xx_ll_usb.c ****     {
 2081              		.loc 1 807 8 is_stmt 0 view .LVU646
 2082 0044 012A     		cmp	r2, #1
 2083 0046 00F0CB80 		beq	.L158
 2084              	.LVL172:
 2085              	.L153:
 815:Drivers/STM32F4xx_HAL_Driver/Src/stm32f4xx_ll_usb.c ****     {
 2086              		.loc 1 815 5 is_stmt 1 view .LVU647
 815:Drivers/STM32F4xx_HAL_Driver/Src/stm32f4xx_ll_usb.c ****     {
 2087              		.loc 1 815 11 is_stmt 0 view .LVU648
 2088 004a CA78     		ldrb	r2, [r1, #3]	@ zero_extendqisi2
 815:Drivers/STM32F4xx_HAL_Driver/Src/stm32f4xx_ll_usb.c ****     {
 2089              		.loc 1 815 8 view .LVU649
 2090 004c 012A     		cmp	r2, #1
 2091 004e 00F0CD80 		beq	.L159
 2092              	.L154:
 827:Drivers/STM32F4xx_HAL_Driver/Src/stm32f4xx_ll_usb.c ****   }
 2093              		.loc 1 827 5 is_stmt 1 view .LVU650
 827:Drivers/STM32F4xx_HAL_Driver/Src/stm32f4xx_ll_usb.c ****   }
 2094              		.loc 1 827 32 is_stmt 0 view .LVU651
 2095 0052 D3F8002B 		ldr	r2, [r3, #2816]
 2096 0056 42F00442 		orr	r2, r2, #-2080374784
 2097 005a C3F8002B 		str	r2, [r3, #2816]
 2098              	.LVL173:
 2099              	.L147:
 830:Drivers/STM32F4xx_HAL_Driver/Src/stm32f4xx_ll_usb.c **** }
 2100              		.loc 1 830 3 is_stmt 1 view .LVU652
 831:Drivers/STM32F4xx_HAL_Driver/Src/stm32f4xx_ll_usb.c **** 
 2101              		.loc 1 831 1 is_stmt 0 view .LVU653
 2102 005e 0020     		movs	r0, #0
 2103 0060 03B0     		add	sp, sp, #12
 2104              	.LCFI27:
 2105              		.cfi_remember_state
 2106              		.cfi_def_cfa_offset 20
 2107              		@ sp needed
 2108 0062 F0BD     		pop	{r4, r5, r6, r7, pc}
 2109              	.LVL174:
 2110              	.L157:
 2111              	.LCFI28:
 2112              		.cfi_restore_state
 711:Drivers/STM32F4xx_HAL_Driver/Src/stm32f4xx_ll_usb.c ****     {
 2113              		.loc 1 711 5 is_stmt 1 view .LVU654
 711:Drivers/STM32F4xx_HAL_Driver/Src/stm32f4xx_ll_usb.c ****     {
 2114              		.loc 1 711 11 is_stmt 0 view .LVU655
ARM GAS  /tmp/ccrTWjYe.s 			page 72


 2115 0064 4C69     		ldr	r4, [r1, #20]
 711:Drivers/STM32F4xx_HAL_Driver/Src/stm32f4xx_ll_usb.c ****     {
 2116              		.loc 1 711 8 view .LVU656
 2117 0066 84BB     		cbnz	r4, .L141
 713:Drivers/STM32F4xx_HAL_Driver/Src/stm32f4xx_ll_usb.c ****       USBx_INEP(epnum)->DIEPTSIZ |= (USB_OTG_DIEPTSIZ_PKTCNT & (1U << 19));
 2118              		.loc 1 713 7 is_stmt 1 view .LVU657
 713:Drivers/STM32F4xx_HAL_Driver/Src/stm32f4xx_ll_usb.c ****       USBx_INEP(epnum)->DIEPTSIZ |= (USB_OTG_DIEPTSIZ_PKTCNT & (1U << 19));
 2119              		.loc 1 713 34 is_stmt 0 view .LVU658
 2120 0068 00EB4314 		add	r4, r0, r3, lsl #5
 2121 006c D4F81059 		ldr	r5, [r4, #2320]
 2122 0070 25F0FF55 		bic	r5, r5, #534773760
 2123 0074 25F4C015 		bic	r5, r5, #1572864
 2124 0078 C4F81059 		str	r5, [r4, #2320]
 714:Drivers/STM32F4xx_HAL_Driver/Src/stm32f4xx_ll_usb.c ****       USBx_INEP(epnum)->DIEPTSIZ &= ~(USB_OTG_DIEPTSIZ_XFRSIZ);
 2125              		.loc 1 714 7 is_stmt 1 view .LVU659
 714:Drivers/STM32F4xx_HAL_Driver/Src/stm32f4xx_ll_usb.c ****       USBx_INEP(epnum)->DIEPTSIZ &= ~(USB_OTG_DIEPTSIZ_XFRSIZ);
 2126              		.loc 1 714 34 is_stmt 0 view .LVU660
 2127 007c D4F81059 		ldr	r5, [r4, #2320]
 2128 0080 45F40025 		orr	r5, r5, #524288
 2129 0084 C4F81059 		str	r5, [r4, #2320]
 715:Drivers/STM32F4xx_HAL_Driver/Src/stm32f4xx_ll_usb.c ****     }
 2130              		.loc 1 715 7 is_stmt 1 view .LVU661
 715:Drivers/STM32F4xx_HAL_Driver/Src/stm32f4xx_ll_usb.c ****     }
 2131              		.loc 1 715 34 is_stmt 0 view .LVU662
 2132 0088 D4F81059 		ldr	r5, [r4, #2320]
 2133 008c ED0C     		lsrs	r5, r5, #19
 2134 008e ED04     		lsls	r5, r5, #19
 2135 0090 C4F81059 		str	r5, [r4, #2320]
 2136              	.L142:
 736:Drivers/STM32F4xx_HAL_Driver/Src/stm32f4xx_ll_usb.c ****     {
 2137              		.loc 1 736 5 is_stmt 1 view .LVU663
 736:Drivers/STM32F4xx_HAL_Driver/Src/stm32f4xx_ll_usb.c ****     {
 2138              		.loc 1 736 8 is_stmt 0 view .LVU664
 2139 0094 012A     		cmp	r2, #1
 2140 0096 4CD0     		beq	.L160
 761:Drivers/STM32F4xx_HAL_Driver/Src/stm32f4xx_ll_usb.c **** 
 2141              		.loc 1 761 7 is_stmt 1 view .LVU665
 761:Drivers/STM32F4xx_HAL_Driver/Src/stm32f4xx_ll_usb.c **** 
 2142              		.loc 1 761 33 is_stmt 0 view .LVU666
 2143 0098 00EB4313 		add	r3, r0, r3, lsl #5
 2144              	.LVL175:
 761:Drivers/STM32F4xx_HAL_Driver/Src/stm32f4xx_ll_usb.c **** 
 2145              		.loc 1 761 33 view .LVU667
 2146 009c D3F80049 		ldr	r4, [r3, #2304]
 2147 00a0 44F00444 		orr	r4, r4, #-2080374784
 2148 00a4 C3F80049 		str	r4, [r3, #2304]
 763:Drivers/STM32F4xx_HAL_Driver/Src/stm32f4xx_ll_usb.c ****       {
 2149              		.loc 1 763 7 is_stmt 1 view .LVU668
 763:Drivers/STM32F4xx_HAL_Driver/Src/stm32f4xx_ll_usb.c ****       {
 2150              		.loc 1 763 13 is_stmt 0 view .LVU669
 2151 00a8 CC78     		ldrb	r4, [r1, #3]	@ zero_extendqisi2
 763:Drivers/STM32F4xx_HAL_Driver/Src/stm32f4xx_ll_usb.c ****       {
 2152              		.loc 1 763 10 view .LVU670
 2153 00aa 012C     		cmp	r4, #1
 2154 00ac 6AD0     		beq	.L148
 766:Drivers/STM32F4xx_HAL_Driver/Src/stm32f4xx_ll_usb.c ****         {
 2155              		.loc 1 766 9 is_stmt 1 view .LVU671
ARM GAS  /tmp/ccrTWjYe.s 			page 73


 766:Drivers/STM32F4xx_HAL_Driver/Src/stm32f4xx_ll_usb.c ****         {
 2156              		.loc 1 766 15 is_stmt 0 view .LVU672
 2157 00ae 4B69     		ldr	r3, [r1, #20]
 766:Drivers/STM32F4xx_HAL_Driver/Src/stm32f4xx_ll_usb.c ****         {
 2158              		.loc 1 766 12 view .LVU673
 2159 00b0 002B     		cmp	r3, #0
 2160 00b2 D4D0     		beq	.L147
 768:Drivers/STM32F4xx_HAL_Driver/Src/stm32f4xx_ll_usb.c ****         }
 2161              		.loc 1 768 11 is_stmt 1 view .LVU674
 768:Drivers/STM32F4xx_HAL_Driver/Src/stm32f4xx_ll_usb.c ****         }
 2162              		.loc 1 768 35 is_stmt 0 view .LVU675
 2163 00b4 D0F83428 		ldr	r2, [r0, #2100]
 2164              	.LVL176:
 768:Drivers/STM32F4xx_HAL_Driver/Src/stm32f4xx_ll_usb.c ****         }
 2165              		.loc 1 768 48 view .LVU676
 2166 00b8 0978     		ldrb	r1, [r1]	@ zero_extendqisi2
 2167              	.LVL177:
 768:Drivers/STM32F4xx_HAL_Driver/Src/stm32f4xx_ll_usb.c ****         }
 2168              		.loc 1 768 54 view .LVU677
 2169 00ba 01F00F04 		and	r4, r1, #15
 768:Drivers/STM32F4xx_HAL_Driver/Src/stm32f4xx_ll_usb.c ****         }
 2170              		.loc 1 768 42 view .LVU678
 2171 00be 0121     		movs	r1, #1
 2172 00c0 A140     		lsls	r1, r1, r4
 768:Drivers/STM32F4xx_HAL_Driver/Src/stm32f4xx_ll_usb.c ****         }
 2173              		.loc 1 768 35 view .LVU679
 2174 00c2 0A43     		orrs	r2, r2, r1
 2175 00c4 C0F83428 		str	r2, [r0, #2100]
 2176 00c8 C9E7     		b	.L147
 2177              	.LVL178:
 2178              	.L141:
 724:Drivers/STM32F4xx_HAL_Driver/Src/stm32f4xx_ll_usb.c ****       USBx_INEP(epnum)->DIEPTSIZ &= ~(USB_OTG_DIEPTSIZ_PKTCNT);
 2179              		.loc 1 724 7 is_stmt 1 view .LVU680
 724:Drivers/STM32F4xx_HAL_Driver/Src/stm32f4xx_ll_usb.c ****       USBx_INEP(epnum)->DIEPTSIZ &= ~(USB_OTG_DIEPTSIZ_PKTCNT);
 2180              		.loc 1 724 34 is_stmt 0 view .LVU681
 2181 00ca 00EB4314 		add	r4, r0, r3, lsl #5
 2182 00ce D4F81059 		ldr	r5, [r4, #2320]
 2183 00d2 ED0C     		lsrs	r5, r5, #19
 2184 00d4 ED04     		lsls	r5, r5, #19
 2185 00d6 C4F81059 		str	r5, [r4, #2320]
 725:Drivers/STM32F4xx_HAL_Driver/Src/stm32f4xx_ll_usb.c ****       USBx_INEP(epnum)->DIEPTSIZ |= (USB_OTG_DIEPTSIZ_PKTCNT & (((ep->xfer_len + ep->maxpacket - 1U
 2186              		.loc 1 725 7 is_stmt 1 view .LVU682
 725:Drivers/STM32F4xx_HAL_Driver/Src/stm32f4xx_ll_usb.c ****       USBx_INEP(epnum)->DIEPTSIZ |= (USB_OTG_DIEPTSIZ_PKTCNT & (((ep->xfer_len + ep->maxpacket - 1U
 2187              		.loc 1 725 34 is_stmt 0 view .LVU683
 2188 00da D4F81059 		ldr	r5, [r4, #2320]
 2189 00de 25F0FF55 		bic	r5, r5, #534773760
 2190 00e2 25F4C015 		bic	r5, r5, #1572864
 2191 00e6 C4F81059 		str	r5, [r4, #2320]
 726:Drivers/STM32F4xx_HAL_Driver/Src/stm32f4xx_ll_usb.c ****       USBx_INEP(epnum)->DIEPTSIZ |= (USB_OTG_DIEPTSIZ_XFRSIZ & ep->xfer_len);
 2192              		.loc 1 726 7 is_stmt 1 view .LVU684
 726:Drivers/STM32F4xx_HAL_Driver/Src/stm32f4xx_ll_usb.c ****       USBx_INEP(epnum)->DIEPTSIZ |= (USB_OTG_DIEPTSIZ_XFRSIZ & ep->xfer_len);
 2193              		.loc 1 726 34 is_stmt 0 view .LVU685
 2194 00ea D4F81069 		ldr	r6, [r4, #2320]
 726:Drivers/STM32F4xx_HAL_Driver/Src/stm32f4xx_ll_usb.c ****       USBx_INEP(epnum)->DIEPTSIZ |= (USB_OTG_DIEPTSIZ_XFRSIZ & ep->xfer_len);
 2195              		.loc 1 726 69 view .LVU686
 2196 00ee 4D69     		ldr	r5, [r1, #20]
 726:Drivers/STM32F4xx_HAL_Driver/Src/stm32f4xx_ll_usb.c ****       USBx_INEP(epnum)->DIEPTSIZ |= (USB_OTG_DIEPTSIZ_XFRSIZ & ep->xfer_len);
ARM GAS  /tmp/ccrTWjYe.s 			page 74


 2197              		.loc 1 726 84 view .LVU687
 2198 00f0 8F68     		ldr	r7, [r1, #8]
 726:Drivers/STM32F4xx_HAL_Driver/Src/stm32f4xx_ll_usb.c ****       USBx_INEP(epnum)->DIEPTSIZ |= (USB_OTG_DIEPTSIZ_XFRSIZ & ep->xfer_len);
 2199              		.loc 1 726 80 view .LVU688
 2200 00f2 3D44     		add	r5, r5, r7
 726:Drivers/STM32F4xx_HAL_Driver/Src/stm32f4xx_ll_usb.c ****       USBx_INEP(epnum)->DIEPTSIZ |= (USB_OTG_DIEPTSIZ_XFRSIZ & ep->xfer_len);
 2201              		.loc 1 726 96 view .LVU689
 2202 00f4 013D     		subs	r5, r5, #1
 726:Drivers/STM32F4xx_HAL_Driver/Src/stm32f4xx_ll_usb.c ****       USBx_INEP(epnum)->DIEPTSIZ |= (USB_OTG_DIEPTSIZ_XFRSIZ & ep->xfer_len);
 2203              		.loc 1 726 102 view .LVU690
 2204 00f6 B5FBF7F5 		udiv	r5, r5, r7
 726:Drivers/STM32F4xx_HAL_Driver/Src/stm32f4xx_ll_usb.c ****       USBx_INEP(epnum)->DIEPTSIZ |= (USB_OTG_DIEPTSIZ_XFRSIZ & ep->xfer_len);
 2205              		.loc 1 726 62 view .LVU691
 2206 00fa 464F     		ldr	r7, .L162
 2207 00fc 07EAC545 		and	r5, r7, r5, lsl #19
 726:Drivers/STM32F4xx_HAL_Driver/Src/stm32f4xx_ll_usb.c ****       USBx_INEP(epnum)->DIEPTSIZ |= (USB_OTG_DIEPTSIZ_XFRSIZ & ep->xfer_len);
 2208              		.loc 1 726 34 view .LVU692
 2209 0100 3543     		orrs	r5, r5, r6
 2210 0102 C4F81059 		str	r5, [r4, #2320]
 727:Drivers/STM32F4xx_HAL_Driver/Src/stm32f4xx_ll_usb.c **** 
 2211              		.loc 1 727 7 is_stmt 1 view .LVU693
 727:Drivers/STM32F4xx_HAL_Driver/Src/stm32f4xx_ll_usb.c **** 
 2212              		.loc 1 727 34 is_stmt 0 view .LVU694
 2213 0106 D4F81059 		ldr	r5, [r4, #2320]
 727:Drivers/STM32F4xx_HAL_Driver/Src/stm32f4xx_ll_usb.c **** 
 2214              		.loc 1 727 66 view .LVU695
 2215 010a 4E69     		ldr	r6, [r1, #20]
 727:Drivers/STM32F4xx_HAL_Driver/Src/stm32f4xx_ll_usb.c **** 
 2216              		.loc 1 727 62 view .LVU696
 2217 010c C6F31206 		ubfx	r6, r6, #0, #19
 727:Drivers/STM32F4xx_HAL_Driver/Src/stm32f4xx_ll_usb.c **** 
 2218              		.loc 1 727 34 view .LVU697
 2219 0110 3543     		orrs	r5, r5, r6
 2220 0112 C4F81059 		str	r5, [r4, #2320]
 724:Drivers/STM32F4xx_HAL_Driver/Src/stm32f4xx_ll_usb.c ****       USBx_INEP(epnum)->DIEPTSIZ &= ~(USB_OTG_DIEPTSIZ_PKTCNT);
 2221              		.loc 1 724 34 view .LVU698
 2222 0116 04F51064 		add	r4, r4, #2304
 729:Drivers/STM32F4xx_HAL_Driver/Src/stm32f4xx_ll_usb.c ****       {
 2223              		.loc 1 729 7 is_stmt 1 view .LVU699
 729:Drivers/STM32F4xx_HAL_Driver/Src/stm32f4xx_ll_usb.c ****       {
 2224              		.loc 1 729 13 is_stmt 0 view .LVU700
 2225 011a CD78     		ldrb	r5, [r1, #3]	@ zero_extendqisi2
 729:Drivers/STM32F4xx_HAL_Driver/Src/stm32f4xx_ll_usb.c ****       {
 2226              		.loc 1 729 10 view .LVU701
 2227 011c 012D     		cmp	r5, #1
 2228 011e B9D1     		bne	.L142
 731:Drivers/STM32F4xx_HAL_Driver/Src/stm32f4xx_ll_usb.c ****         USBx_INEP(epnum)->DIEPTSIZ |= (USB_OTG_DIEPTSIZ_MULCNT & (1U << 29));
 2229              		.loc 1 731 9 is_stmt 1 view .LVU702
 731:Drivers/STM32F4xx_HAL_Driver/Src/stm32f4xx_ll_usb.c ****         USBx_INEP(epnum)->DIEPTSIZ |= (USB_OTG_DIEPTSIZ_MULCNT & (1U << 29));
 2230              		.loc 1 731 36 is_stmt 0 view .LVU703
 2231 0120 2569     		ldr	r5, [r4, #16]
 2232 0122 25F0C045 		bic	r5, r5, #1610612736
 2233 0126 2561     		str	r5, [r4, #16]
 732:Drivers/STM32F4xx_HAL_Driver/Src/stm32f4xx_ll_usb.c ****       }
 2234              		.loc 1 732 9 is_stmt 1 view .LVU704
 732:Drivers/STM32F4xx_HAL_Driver/Src/stm32f4xx_ll_usb.c ****       }
 2235              		.loc 1 732 36 is_stmt 0 view .LVU705
ARM GAS  /tmp/ccrTWjYe.s 			page 75


 2236 0128 2569     		ldr	r5, [r4, #16]
 2237 012a 45F00055 		orr	r5, r5, #536870912
 2238 012e 2561     		str	r5, [r4, #16]
 2239 0130 B0E7     		b	.L142
 2240              	.L160:
 738:Drivers/STM32F4xx_HAL_Driver/Src/stm32f4xx_ll_usb.c ****       {
 2241              		.loc 1 738 7 is_stmt 1 view .LVU706
 738:Drivers/STM32F4xx_HAL_Driver/Src/stm32f4xx_ll_usb.c ****       {
 2242              		.loc 1 738 23 is_stmt 0 view .LVU707
 2243 0132 0A69     		ldr	r2, [r1, #16]
 2244              	.LVL179:
 738:Drivers/STM32F4xx_HAL_Driver/Src/stm32f4xx_ll_usb.c ****       {
 2245              		.loc 1 738 10 view .LVU708
 2246 0134 1AB1     		cbz	r2, .L144
 740:Drivers/STM32F4xx_HAL_Driver/Src/stm32f4xx_ll_usb.c ****       }
 2247              		.loc 1 740 9 is_stmt 1 view .LVU709
 2248 0136 00EB4314 		add	r4, r0, r3, lsl #5
 740:Drivers/STM32F4xx_HAL_Driver/Src/stm32f4xx_ll_usb.c ****       }
 2249              		.loc 1 740 35 is_stmt 0 view .LVU710
 2250 013a C4F81429 		str	r2, [r4, #2324]
 2251              	.L144:
 743:Drivers/STM32F4xx_HAL_Driver/Src/stm32f4xx_ll_usb.c ****       {
 2252              		.loc 1 743 7 is_stmt 1 view .LVU711
 743:Drivers/STM32F4xx_HAL_Driver/Src/stm32f4xx_ll_usb.c ****       {
 2253              		.loc 1 743 13 is_stmt 0 view .LVU712
 2254 013e CA78     		ldrb	r2, [r1, #3]	@ zero_extendqisi2
 743:Drivers/STM32F4xx_HAL_Driver/Src/stm32f4xx_ll_usb.c ****       {
 2255              		.loc 1 743 10 view .LVU713
 2256 0140 012A     		cmp	r2, #1
 2257 0142 08D0     		beq	.L161
 2258              	.LVL180:
 2259              	.L145:
 756:Drivers/STM32F4xx_HAL_Driver/Src/stm32f4xx_ll_usb.c ****     }
 2260              		.loc 1 756 7 is_stmt 1 view .LVU714
 756:Drivers/STM32F4xx_HAL_Driver/Src/stm32f4xx_ll_usb.c ****     }
 2261              		.loc 1 756 33 is_stmt 0 view .LVU715
 2262 0144 00EB4313 		add	r3, r0, r3, lsl #5
 2263              	.LVL181:
 756:Drivers/STM32F4xx_HAL_Driver/Src/stm32f4xx_ll_usb.c ****     }
 2264              		.loc 1 756 33 view .LVU716
 2265 0148 D3F80029 		ldr	r2, [r3, #2304]
 2266 014c 42F00442 		orr	r2, r2, #-2080374784
 2267 0150 C3F80029 		str	r2, [r3, #2304]
 2268 0154 83E7     		b	.L147
 2269              	.LVL182:
 2270              	.L161:
 745:Drivers/STM32F4xx_HAL_Driver/Src/stm32f4xx_ll_usb.c ****         {
 2271              		.loc 1 745 9 is_stmt 1 view .LVU717
 745:Drivers/STM32F4xx_HAL_Driver/Src/stm32f4xx_ll_usb.c ****         {
 2272              		.loc 1 745 25 is_stmt 0 view .LVU718
 2273 0156 D0F80828 		ldr	r2, [r0, #2056]
 745:Drivers/STM32F4xx_HAL_Driver/Src/stm32f4xx_ll_usb.c ****         {
 2274              		.loc 1 745 12 view .LVU719
 2275 015a 12F4807F 		tst	r2, #256
 2276 015e 08D1     		bne	.L146
 747:Drivers/STM32F4xx_HAL_Driver/Src/stm32f4xx_ll_usb.c ****         }
 2277              		.loc 1 747 11 is_stmt 1 view .LVU720
ARM GAS  /tmp/ccrTWjYe.s 			page 76


 747:Drivers/STM32F4xx_HAL_Driver/Src/stm32f4xx_ll_usb.c ****         }
 2278              		.loc 1 747 37 is_stmt 0 view .LVU721
 2279 0160 00EB4311 		add	r1, r0, r3, lsl #5
 2280              	.LVL183:
 747:Drivers/STM32F4xx_HAL_Driver/Src/stm32f4xx_ll_usb.c ****         }
 2281              		.loc 1 747 37 view .LVU722
 2282 0164 D1F80029 		ldr	r2, [r1, #2304]
 2283 0168 42F00052 		orr	r2, r2, #536870912
 2284 016c C1F80029 		str	r2, [r1, #2304]
 2285 0170 E8E7     		b	.L145
 2286              	.LVL184:
 2287              	.L146:
 751:Drivers/STM32F4xx_HAL_Driver/Src/stm32f4xx_ll_usb.c ****         }
 2288              		.loc 1 751 11 is_stmt 1 view .LVU723
 751:Drivers/STM32F4xx_HAL_Driver/Src/stm32f4xx_ll_usb.c ****         }
 2289              		.loc 1 751 37 is_stmt 0 view .LVU724
 2290 0172 00EB4311 		add	r1, r0, r3, lsl #5
 2291              	.LVL185:
 751:Drivers/STM32F4xx_HAL_Driver/Src/stm32f4xx_ll_usb.c ****         }
 2292              		.loc 1 751 37 view .LVU725
 2293 0176 D1F80029 		ldr	r2, [r1, #2304]
 2294 017a 42F08052 		orr	r2, r2, #268435456
 2295 017e C1F80029 		str	r2, [r1, #2304]
 2296 0182 DFE7     		b	.L145
 2297              	.LVL186:
 2298              	.L148:
 773:Drivers/STM32F4xx_HAL_Driver/Src/stm32f4xx_ll_usb.c ****         {
 2299              		.loc 1 773 9 is_stmt 1 view .LVU726
 773:Drivers/STM32F4xx_HAL_Driver/Src/stm32f4xx_ll_usb.c ****         {
 2300              		.loc 1 773 25 is_stmt 0 view .LVU727
 2301 0184 D0F80848 		ldr	r4, [r0, #2056]
 773:Drivers/STM32F4xx_HAL_Driver/Src/stm32f4xx_ll_usb.c ****         {
 2302              		.loc 1 773 12 view .LVU728
 2303 0188 14F4807F 		tst	r4, #256
 2304 018c 0CD1     		bne	.L149
 775:Drivers/STM32F4xx_HAL_Driver/Src/stm32f4xx_ll_usb.c ****         }
 2305              		.loc 1 775 11 is_stmt 1 view .LVU729
 775:Drivers/STM32F4xx_HAL_Driver/Src/stm32f4xx_ll_usb.c ****         }
 2306              		.loc 1 775 37 is_stmt 0 view .LVU730
 2307 018e D3F80049 		ldr	r4, [r3, #2304]
 2308 0192 44F00054 		orr	r4, r4, #536870912
 2309 0196 C3F80049 		str	r4, [r3, #2304]
 2310              	.L150:
 782:Drivers/STM32F4xx_HAL_Driver/Src/stm32f4xx_ll_usb.c ****       }
 2311              		.loc 1 782 9 is_stmt 1 view .LVU731
 782:Drivers/STM32F4xx_HAL_Driver/Src/stm32f4xx_ll_usb.c ****       }
 2312              		.loc 1 782 15 is_stmt 0 view .LVU732
 2313 019a 0092     		str	r2, [sp]
 2314 019c 8B8A     		ldrh	r3, [r1, #20]
 2315 019e 0A78     		ldrb	r2, [r1]	@ zero_extendqisi2
 2316              	.LVL187:
 782:Drivers/STM32F4xx_HAL_Driver/Src/stm32f4xx_ll_usb.c ****       }
 2317              		.loc 1 782 15 view .LVU733
 2318 01a0 C968     		ldr	r1, [r1, #12]
 2319              	.LVL188:
 782:Drivers/STM32F4xx_HAL_Driver/Src/stm32f4xx_ll_usb.c ****       }
 2320              		.loc 1 782 15 view .LVU734
ARM GAS  /tmp/ccrTWjYe.s 			page 77


 2321 01a2 FFF7FEFF 		bl	USB_WritePacket
 2322              	.LVL189:
 782:Drivers/STM32F4xx_HAL_Driver/Src/stm32f4xx_ll_usb.c ****       }
 2323              		.loc 1 782 15 view .LVU735
 2324 01a6 5AE7     		b	.L147
 2325              	.LVL190:
 2326              	.L149:
 779:Drivers/STM32F4xx_HAL_Driver/Src/stm32f4xx_ll_usb.c ****         }
 2327              		.loc 1 779 11 is_stmt 1 view .LVU736
 779:Drivers/STM32F4xx_HAL_Driver/Src/stm32f4xx_ll_usb.c ****         }
 2328              		.loc 1 779 37 is_stmt 0 view .LVU737
 2329 01a8 D3F80049 		ldr	r4, [r3, #2304]
 2330 01ac 44F08054 		orr	r4, r4, #268435456
 2331 01b0 C3F80049 		str	r4, [r3, #2304]
 2332 01b4 F1E7     		b	.L150
 2333              	.L151:
 802:Drivers/STM32F4xx_HAL_Driver/Src/stm32f4xx_ll_usb.c ****       USBx_OUTEP(epnum)->DOEPTSIZ |= USB_OTG_DOEPTSIZ_PKTCNT & ((uint32_t)pktcnt << 19);
 2334              		.loc 1 802 7 is_stmt 1 view .LVU738
 802:Drivers/STM32F4xx_HAL_Driver/Src/stm32f4xx_ll_usb.c ****       USBx_OUTEP(epnum)->DOEPTSIZ |= USB_OTG_DOEPTSIZ_PKTCNT & ((uint32_t)pktcnt << 19);
 2335              		.loc 1 802 45 is_stmt 0 view .LVU739
 2336 01b6 8E68     		ldr	r6, [r1, #8]
 802:Drivers/STM32F4xx_HAL_Driver/Src/stm32f4xx_ll_usb.c ****       USBx_OUTEP(epnum)->DOEPTSIZ |= USB_OTG_DOEPTSIZ_PKTCNT & ((uint32_t)pktcnt << 19);
 2337              		.loc 1 802 41 view .LVU740
 2338 01b8 3544     		add	r5, r5, r6
 802:Drivers/STM32F4xx_HAL_Driver/Src/stm32f4xx_ll_usb.c ****       USBx_OUTEP(epnum)->DOEPTSIZ |= USB_OTG_DOEPTSIZ_PKTCNT & ((uint32_t)pktcnt << 19);
 2339              		.loc 1 802 57 view .LVU741
 2340 01ba 013D     		subs	r5, r5, #1
 802:Drivers/STM32F4xx_HAL_Driver/Src/stm32f4xx_ll_usb.c ****       USBx_OUTEP(epnum)->DOEPTSIZ |= USB_OTG_DOEPTSIZ_PKTCNT & ((uint32_t)pktcnt << 19);
 2341              		.loc 1 802 63 view .LVU742
 2342 01bc B5FBF6F5 		udiv	r5, r5, r6
 2343              	.LVL191:
 803:Drivers/STM32F4xx_HAL_Driver/Src/stm32f4xx_ll_usb.c ****       USBx_OUTEP(epnum)->DOEPTSIZ |= USB_OTG_DOEPTSIZ_XFRSIZ & (ep->maxpacket * pktcnt);
 2344              		.loc 1 803 7 is_stmt 1 view .LVU743
 803:Drivers/STM32F4xx_HAL_Driver/Src/stm32f4xx_ll_usb.c ****       USBx_OUTEP(epnum)->DOEPTSIZ |= USB_OTG_DOEPTSIZ_XFRSIZ & (ep->maxpacket * pktcnt);
 2345              		.loc 1 803 35 is_stmt 0 view .LVU744
 2346 01c0 2669     		ldr	r6, [r4, #16]
 803:Drivers/STM32F4xx_HAL_Driver/Src/stm32f4xx_ll_usb.c ****       USBx_OUTEP(epnum)->DOEPTSIZ |= USB_OTG_DOEPTSIZ_XFRSIZ & (ep->maxpacket * pktcnt);
 2347              		.loc 1 803 62 view .LVU745
 2348 01c2 144F     		ldr	r7, .L162
 2349 01c4 07EAC547 		and	r7, r7, r5, lsl #19
 803:Drivers/STM32F4xx_HAL_Driver/Src/stm32f4xx_ll_usb.c ****       USBx_OUTEP(epnum)->DOEPTSIZ |= USB_OTG_DOEPTSIZ_XFRSIZ & (ep->maxpacket * pktcnt);
 2350              		.loc 1 803 35 view .LVU746
 2351 01c8 3E43     		orrs	r6, r6, r7
 2352 01ca 2661     		str	r6, [r4, #16]
 804:Drivers/STM32F4xx_HAL_Driver/Src/stm32f4xx_ll_usb.c ****     }
 2353              		.loc 1 804 7 is_stmt 1 view .LVU747
 804:Drivers/STM32F4xx_HAL_Driver/Src/stm32f4xx_ll_usb.c ****     }
 2354              		.loc 1 804 35 is_stmt 0 view .LVU748
 2355 01cc 2769     		ldr	r7, [r4, #16]
 804:Drivers/STM32F4xx_HAL_Driver/Src/stm32f4xx_ll_usb.c ****     }
 2356              		.loc 1 804 67 view .LVU749
 2357 01ce 8E68     		ldr	r6, [r1, #8]
 804:Drivers/STM32F4xx_HAL_Driver/Src/stm32f4xx_ll_usb.c ****     }
 2358              		.loc 1 804 79 view .LVU750
 2359 01d0 ADB2     		uxth	r5, r5
 804:Drivers/STM32F4xx_HAL_Driver/Src/stm32f4xx_ll_usb.c ****     }
 2360              		.loc 1 804 79 view .LVU751
ARM GAS  /tmp/ccrTWjYe.s 			page 78


 2361 01d2 06FB05F5 		mul	r5, r6, r5
 2362              	.LVL192:
 804:Drivers/STM32F4xx_HAL_Driver/Src/stm32f4xx_ll_usb.c ****     }
 2363              		.loc 1 804 62 view .LVU752
 2364 01d6 C5F31205 		ubfx	r5, r5, #0, #19
 804:Drivers/STM32F4xx_HAL_Driver/Src/stm32f4xx_ll_usb.c ****     }
 2365              		.loc 1 804 35 view .LVU753
 2366 01da 3D43     		orrs	r5, r5, r7
 2367 01dc 2561     		str	r5, [r4, #16]
 2368 01de 31E7     		b	.L152
 2369              	.L158:
 809:Drivers/STM32F4xx_HAL_Driver/Src/stm32f4xx_ll_usb.c ****       {
 2370              		.loc 1 809 7 is_stmt 1 view .LVU754
 809:Drivers/STM32F4xx_HAL_Driver/Src/stm32f4xx_ll_usb.c ****       {
 2371              		.loc 1 809 23 is_stmt 0 view .LVU755
 2372 01e0 CA68     		ldr	r2, [r1, #12]
 2373              	.LVL193:
 809:Drivers/STM32F4xx_HAL_Driver/Src/stm32f4xx_ll_usb.c ****       {
 2374              		.loc 1 809 10 view .LVU756
 2375 01e2 002A     		cmp	r2, #0
 2376 01e4 3FF431AF 		beq	.L153
 811:Drivers/STM32F4xx_HAL_Driver/Src/stm32f4xx_ll_usb.c ****       }
 2377              		.loc 1 811 9 is_stmt 1 view .LVU757
 811:Drivers/STM32F4xx_HAL_Driver/Src/stm32f4xx_ll_usb.c ****       }
 2378              		.loc 1 811 36 is_stmt 0 view .LVU758
 2379 01e8 6261     		str	r2, [r4, #20]
 2380 01ea 2EE7     		b	.L153
 2381              	.L159:
 817:Drivers/STM32F4xx_HAL_Driver/Src/stm32f4xx_ll_usb.c ****       {
 2382              		.loc 1 817 7 is_stmt 1 view .LVU759
 817:Drivers/STM32F4xx_HAL_Driver/Src/stm32f4xx_ll_usb.c ****       {
 2383              		.loc 1 817 23 is_stmt 0 view .LVU760
 2384 01ec D0F80828 		ldr	r2, [r0, #2056]
 817:Drivers/STM32F4xx_HAL_Driver/Src/stm32f4xx_ll_usb.c ****       {
 2385              		.loc 1 817 10 view .LVU761
 2386 01f0 12F4807F 		tst	r2, #256
 2387 01f4 06D1     		bne	.L155
 819:Drivers/STM32F4xx_HAL_Driver/Src/stm32f4xx_ll_usb.c ****       }
 2388              		.loc 1 819 9 is_stmt 1 view .LVU762
 819:Drivers/STM32F4xx_HAL_Driver/Src/stm32f4xx_ll_usb.c ****       }
 2389              		.loc 1 819 36 is_stmt 0 view .LVU763
 2390 01f6 D3F8002B 		ldr	r2, [r3, #2816]
 2391 01fa 42F00052 		orr	r2, r2, #536870912
 2392 01fe C3F8002B 		str	r2, [r3, #2816]
 2393 0202 26E7     		b	.L154
 2394              	.L155:
 823:Drivers/STM32F4xx_HAL_Driver/Src/stm32f4xx_ll_usb.c ****       }
 2395              		.loc 1 823 9 is_stmt 1 view .LVU764
 823:Drivers/STM32F4xx_HAL_Driver/Src/stm32f4xx_ll_usb.c ****       }
 2396              		.loc 1 823 36 is_stmt 0 view .LVU765
 2397 0204 D3F8002B 		ldr	r2, [r3, #2816]
 2398 0208 42F08052 		orr	r2, r2, #268435456
 2399 020c C3F8002B 		str	r2, [r3, #2816]
 2400 0210 1FE7     		b	.L154
 2401              	.L163:
 2402 0212 00BF     		.align	2
 2403              	.L162:
ARM GAS  /tmp/ccrTWjYe.s 			page 79


 2404 0214 0000F81F 		.word	536346624
 2405              		.cfi_endproc
 2406              	.LFE144:
 2408              		.section	.text.USB_ReadPacket,"ax",%progbits
 2409              		.align	1
 2410              		.global	USB_ReadPacket
 2411              		.syntax unified
 2412              		.thumb
 2413              		.thumb_func
 2414              		.fpu fpv4-sp-d16
 2416              	USB_ReadPacket:
 2417              	.LVL194:
 2418              	.LFB147:
 970:Drivers/STM32F4xx_HAL_Driver/Src/stm32f4xx_ll_usb.c ****   uint32_t USBx_BASE = (uint32_t)USBx;
 2419              		.loc 1 970 1 is_stmt 1 view -0
 2420              		.cfi_startproc
 2421              		@ args = 0, pretend = 0, frame = 0
 2422              		@ frame_needed = 0, uses_anonymous_args = 0
 2423              		@ link register save eliminated.
 971:Drivers/STM32F4xx_HAL_Driver/Src/stm32f4xx_ll_usb.c ****   uint32_t *pDest = (uint32_t *)dest;
 2424              		.loc 1 971 3 view .LVU767
 972:Drivers/STM32F4xx_HAL_Driver/Src/stm32f4xx_ll_usb.c ****   uint32_t i;
 2425              		.loc 1 972 3 view .LVU768
 973:Drivers/STM32F4xx_HAL_Driver/Src/stm32f4xx_ll_usb.c ****   uint32_t count32b = ((uint32_t)len + 3U) / 4U;
 2426              		.loc 1 973 3 view .LVU769
 974:Drivers/STM32F4xx_HAL_Driver/Src/stm32f4xx_ll_usb.c **** 
 2427              		.loc 1 974 3 view .LVU770
 974:Drivers/STM32F4xx_HAL_Driver/Src/stm32f4xx_ll_usb.c **** 
 2428              		.loc 1 974 38 is_stmt 0 view .LVU771
 2429 0000 0332     		adds	r2, r2, #3
 2430              	.LVL195:
 974:Drivers/STM32F4xx_HAL_Driver/Src/stm32f4xx_ll_usb.c **** 
 2431              		.loc 1 974 12 view .LVU772
 2432 0002 9208     		lsrs	r2, r2, #2
 2433              	.LVL196:
 976:Drivers/STM32F4xx_HAL_Driver/Src/stm32f4xx_ll_usb.c ****   {
 2434              		.loc 1 976 3 is_stmt 1 view .LVU773
 976:Drivers/STM32F4xx_HAL_Driver/Src/stm32f4xx_ll_usb.c ****   {
 2435              		.loc 1 976 10 is_stmt 0 view .LVU774
 2436 0004 0023     		movs	r3, #0
 2437              	.LVL197:
 976:Drivers/STM32F4xx_HAL_Driver/Src/stm32f4xx_ll_usb.c ****   {
 2438              		.loc 1 976 3 view .LVU775
 2439 0006 9342     		cmp	r3, r2
 2440 0008 0CD2     		bcs	.L171
 970:Drivers/STM32F4xx_HAL_Driver/Src/stm32f4xx_ll_usb.c ****   uint32_t USBx_BASE = (uint32_t)USBx;
 2441              		.loc 1 970 1 view .LVU776
 2442 000a 10B4     		push	{r4}
 2443              	.LCFI29:
 2444              		.cfi_def_cfa_offset 4
 2445              		.cfi_offset 4, -4
 2446              	.LVL198:
 2447              	.L166:
 978:Drivers/STM32F4xx_HAL_Driver/Src/stm32f4xx_ll_usb.c ****     pDest++;
 2448              		.loc 1 978 5 is_stmt 1 discriminator 3 view .LVU777
 2449 000c 00F58054 		add	r4, r0, #4096
 2450 0010 2468     		ldr	r4, [r4]
ARM GAS  /tmp/ccrTWjYe.s 			page 80


 2451 0012 41F8044B 		str	r4, [r1], #4	@ unaligned
 2452              	.LVL199:
 979:Drivers/STM32F4xx_HAL_Driver/Src/stm32f4xx_ll_usb.c ****   }
 2453              		.loc 1 979 5 discriminator 3 view .LVU778
 976:Drivers/STM32F4xx_HAL_Driver/Src/stm32f4xx_ll_usb.c ****   {
 2454              		.loc 1 976 31 is_stmt 0 discriminator 3 view .LVU779
 2455 0016 0133     		adds	r3, r3, #1
 2456              	.LVL200:
 976:Drivers/STM32F4xx_HAL_Driver/Src/stm32f4xx_ll_usb.c ****   {
 2457              		.loc 1 976 3 discriminator 3 view .LVU780
 2458 0018 9342     		cmp	r3, r2
 2459 001a F7D3     		bcc	.L166
 982:Drivers/STM32F4xx_HAL_Driver/Src/stm32f4xx_ll_usb.c **** }
 2460              		.loc 1 982 3 is_stmt 1 view .LVU781
 983:Drivers/STM32F4xx_HAL_Driver/Src/stm32f4xx_ll_usb.c **** 
 2461              		.loc 1 983 1 is_stmt 0 view .LVU782
 2462 001c 0846     		mov	r0, r1
 2463              	.LVL201:
 983:Drivers/STM32F4xx_HAL_Driver/Src/stm32f4xx_ll_usb.c **** 
 2464              		.loc 1 983 1 view .LVU783
 2465 001e 5DF8044B 		ldr	r4, [sp], #4
 2466              	.LCFI30:
 2467              		.cfi_restore 4
 2468              		.cfi_def_cfa_offset 0
 2469 0022 7047     		bx	lr
 2470              	.LVL202:
 2471              	.L171:
 982:Drivers/STM32F4xx_HAL_Driver/Src/stm32f4xx_ll_usb.c **** }
 2472              		.loc 1 982 3 is_stmt 1 view .LVU784
 983:Drivers/STM32F4xx_HAL_Driver/Src/stm32f4xx_ll_usb.c **** 
 2473              		.loc 1 983 1 is_stmt 0 view .LVU785
 2474 0024 0846     		mov	r0, r1
 2475              	.LVL203:
 983:Drivers/STM32F4xx_HAL_Driver/Src/stm32f4xx_ll_usb.c **** 
 2476              		.loc 1 983 1 view .LVU786
 2477 0026 7047     		bx	lr
 2478              		.cfi_endproc
 2479              	.LFE147:
 2481              		.section	.text.USB_EPSetStall,"ax",%progbits
 2482              		.align	1
 2483              		.global	USB_EPSetStall
 2484              		.syntax unified
 2485              		.thumb
 2486              		.thumb_func
 2487              		.fpu fpv4-sp-d16
 2489              	USB_EPSetStall:
 2490              	.LVL204:
 2491              	.LFB148:
 992:Drivers/STM32F4xx_HAL_Driver/Src/stm32f4xx_ll_usb.c ****   uint32_t USBx_BASE = (uint32_t)USBx;
 2492              		.loc 1 992 1 is_stmt 1 view -0
 2493              		.cfi_startproc
 2494              		@ args = 0, pretend = 0, frame = 0
 2495              		@ frame_needed = 0, uses_anonymous_args = 0
 2496              		@ link register save eliminated.
 993:Drivers/STM32F4xx_HAL_Driver/Src/stm32f4xx_ll_usb.c ****   uint32_t epnum = (uint32_t)ep->num;
 2497              		.loc 1 993 3 view .LVU788
 994:Drivers/STM32F4xx_HAL_Driver/Src/stm32f4xx_ll_usb.c **** 
ARM GAS  /tmp/ccrTWjYe.s 			page 81


 2498              		.loc 1 994 3 view .LVU789
 994:Drivers/STM32F4xx_HAL_Driver/Src/stm32f4xx_ll_usb.c **** 
 2499              		.loc 1 994 32 is_stmt 0 view .LVU790
 2500 0000 0B78     		ldrb	r3, [r1]	@ zero_extendqisi2
 2501              	.LVL205:
 996:Drivers/STM32F4xx_HAL_Driver/Src/stm32f4xx_ll_usb.c ****   {
 2502              		.loc 1 996 3 is_stmt 1 view .LVU791
 996:Drivers/STM32F4xx_HAL_Driver/Src/stm32f4xx_ll_usb.c ****   {
 2503              		.loc 1 996 9 is_stmt 0 view .LVU792
 2504 0002 4A78     		ldrb	r2, [r1, #1]	@ zero_extendqisi2
 996:Drivers/STM32F4xx_HAL_Driver/Src/stm32f4xx_ll_usb.c ****   {
 2505              		.loc 1 996 6 view .LVU793
 2506 0004 012A     		cmp	r2, #1
 2507 0006 14D0     		beq	.L177
1006:Drivers/STM32F4xx_HAL_Driver/Src/stm32f4xx_ll_usb.c ****     {
 2508              		.loc 1 1006 5 is_stmt 1 view .LVU794
1006:Drivers/STM32F4xx_HAL_Driver/Src/stm32f4xx_ll_usb.c ****     {
 2509              		.loc 1 1006 11 is_stmt 0 view .LVU795
 2510 0008 00EB4310 		add	r0, r0, r3, lsl #5
 2511              	.LVL206:
1006:Drivers/STM32F4xx_HAL_Driver/Src/stm32f4xx_ll_usb.c ****     {
 2512              		.loc 1 1006 28 view .LVU796
 2513 000c D0F8002B 		ldr	r2, [r0, #2816]
1006:Drivers/STM32F4xx_HAL_Driver/Src/stm32f4xx_ll_usb.c ****     {
 2514              		.loc 1 1006 8 view .LVU797
 2515 0010 002A     		cmp	r2, #0
 2516 0012 06DB     		blt	.L176
1006:Drivers/STM32F4xx_HAL_Driver/Src/stm32f4xx_ll_usb.c ****     {
 2517              		.loc 1 1006 70 discriminator 1 view .LVU798
 2518 0014 2BB1     		cbz	r3, .L176
1008:Drivers/STM32F4xx_HAL_Driver/Src/stm32f4xx_ll_usb.c ****     }
 2519              		.loc 1 1008 7 is_stmt 1 view .LVU799
1008:Drivers/STM32F4xx_HAL_Driver/Src/stm32f4xx_ll_usb.c ****     }
 2520              		.loc 1 1008 34 is_stmt 0 view .LVU800
 2521 0016 D0F8003B 		ldr	r3, [r0, #2816]
 2522              	.LVL207:
1008:Drivers/STM32F4xx_HAL_Driver/Src/stm32f4xx_ll_usb.c ****     }
 2523              		.loc 1 1008 34 view .LVU801
 2524 001a 23F08043 		bic	r3, r3, #1073741824
 2525 001e C0F8003B 		str	r3, [r0, #2816]
 2526              	.LVL208:
 2527              	.L176:
1010:Drivers/STM32F4xx_HAL_Driver/Src/stm32f4xx_ll_usb.c ****   }
 2528              		.loc 1 1010 5 is_stmt 1 view .LVU802
1010:Drivers/STM32F4xx_HAL_Driver/Src/stm32f4xx_ll_usb.c ****   }
 2529              		.loc 1 1010 32 is_stmt 0 view .LVU803
 2530 0022 D0F8003B 		ldr	r3, [r0, #2816]
 2531 0026 43F40013 		orr	r3, r3, #2097152
 2532 002a C0F8003B 		str	r3, [r0, #2816]
 2533              	.L175:
1013:Drivers/STM32F4xx_HAL_Driver/Src/stm32f4xx_ll_usb.c **** }
 2534              		.loc 1 1013 3 is_stmt 1 view .LVU804
1014:Drivers/STM32F4xx_HAL_Driver/Src/stm32f4xx_ll_usb.c **** 
 2535              		.loc 1 1014 1 is_stmt 0 view .LVU805
 2536 002e 0020     		movs	r0, #0
 2537 0030 7047     		bx	lr
 2538              	.LVL209:
ARM GAS  /tmp/ccrTWjYe.s 			page 82


 2539              	.L177:
 998:Drivers/STM32F4xx_HAL_Driver/Src/stm32f4xx_ll_usb.c ****     {
 2540              		.loc 1 998 5 is_stmt 1 view .LVU806
 998:Drivers/STM32F4xx_HAL_Driver/Src/stm32f4xx_ll_usb.c ****     {
 2541              		.loc 1 998 11 is_stmt 0 view .LVU807
 2542 0032 00EB4310 		add	r0, r0, r3, lsl #5
 2543              	.LVL210:
 998:Drivers/STM32F4xx_HAL_Driver/Src/stm32f4xx_ll_usb.c ****     {
 2544              		.loc 1 998 27 view .LVU808
 2545 0036 D0F80029 		ldr	r2, [r0, #2304]
 998:Drivers/STM32F4xx_HAL_Driver/Src/stm32f4xx_ll_usb.c ****     {
 2546              		.loc 1 998 8 view .LVU809
 2547 003a 002A     		cmp	r2, #0
 2548 003c 06DB     		blt	.L174
 998:Drivers/STM32F4xx_HAL_Driver/Src/stm32f4xx_ll_usb.c ****     {
 2549              		.loc 1 998 69 discriminator 1 view .LVU810
 2550 003e 2BB1     		cbz	r3, .L174
1000:Drivers/STM32F4xx_HAL_Driver/Src/stm32f4xx_ll_usb.c ****     }
 2551              		.loc 1 1000 7 is_stmt 1 view .LVU811
1000:Drivers/STM32F4xx_HAL_Driver/Src/stm32f4xx_ll_usb.c ****     }
 2552              		.loc 1 1000 33 is_stmt 0 view .LVU812
 2553 0040 D0F80039 		ldr	r3, [r0, #2304]
 2554              	.LVL211:
1000:Drivers/STM32F4xx_HAL_Driver/Src/stm32f4xx_ll_usb.c ****     }
 2555              		.loc 1 1000 33 view .LVU813
 2556 0044 23F08043 		bic	r3, r3, #1073741824
 2557 0048 C0F80039 		str	r3, [r0, #2304]
 2558              	.LVL212:
 2559              	.L174:
1002:Drivers/STM32F4xx_HAL_Driver/Src/stm32f4xx_ll_usb.c ****   }
 2560              		.loc 1 1002 5 is_stmt 1 view .LVU814
1002:Drivers/STM32F4xx_HAL_Driver/Src/stm32f4xx_ll_usb.c ****   }
 2561              		.loc 1 1002 31 is_stmt 0 view .LVU815
 2562 004c D0F80039 		ldr	r3, [r0, #2304]
 2563 0050 43F40013 		orr	r3, r3, #2097152
 2564 0054 C0F80039 		str	r3, [r0, #2304]
 2565 0058 E9E7     		b	.L175
 2566              		.cfi_endproc
 2567              	.LFE148:
 2569              		.section	.text.USB_EPClearStall,"ax",%progbits
 2570              		.align	1
 2571              		.global	USB_EPClearStall
 2572              		.syntax unified
 2573              		.thumb
 2574              		.thumb_func
 2575              		.fpu fpv4-sp-d16
 2577              	USB_EPClearStall:
 2578              	.LVL213:
 2579              	.LFB149:
1023:Drivers/STM32F4xx_HAL_Driver/Src/stm32f4xx_ll_usb.c ****   uint32_t USBx_BASE = (uint32_t)USBx;
 2580              		.loc 1 1023 1 is_stmt 1 view -0
 2581              		.cfi_startproc
 2582              		@ args = 0, pretend = 0, frame = 0
 2583              		@ frame_needed = 0, uses_anonymous_args = 0
 2584              		@ link register save eliminated.
1024:Drivers/STM32F4xx_HAL_Driver/Src/stm32f4xx_ll_usb.c ****   uint32_t epnum = (uint32_t)ep->num;
 2585              		.loc 1 1024 3 view .LVU817
ARM GAS  /tmp/ccrTWjYe.s 			page 83


1025:Drivers/STM32F4xx_HAL_Driver/Src/stm32f4xx_ll_usb.c **** 
 2586              		.loc 1 1025 3 view .LVU818
1025:Drivers/STM32F4xx_HAL_Driver/Src/stm32f4xx_ll_usb.c **** 
 2587              		.loc 1 1025 32 is_stmt 0 view .LVU819
 2588 0000 0B78     		ldrb	r3, [r1]	@ zero_extendqisi2
 2589              	.LVL214:
1027:Drivers/STM32F4xx_HAL_Driver/Src/stm32f4xx_ll_usb.c ****   {
 2590              		.loc 1 1027 3 is_stmt 1 view .LVU820
1027:Drivers/STM32F4xx_HAL_Driver/Src/stm32f4xx_ll_usb.c ****   {
 2591              		.loc 1 1027 9 is_stmt 0 view .LVU821
 2592 0002 4A78     		ldrb	r2, [r1, #1]	@ zero_extendqisi2
1027:Drivers/STM32F4xx_HAL_Driver/Src/stm32f4xx_ll_usb.c ****   {
 2593              		.loc 1 1027 6 view .LVU822
 2594 0004 012A     		cmp	r2, #1
 2595 0006 0ED0     		beq	.L181
1037:Drivers/STM32F4xx_HAL_Driver/Src/stm32f4xx_ll_usb.c ****     if ((ep->type == EP_TYPE_INTR) || (ep->type == EP_TYPE_BULK))
 2596              		.loc 1 1037 5 is_stmt 1 view .LVU823
1037:Drivers/STM32F4xx_HAL_Driver/Src/stm32f4xx_ll_usb.c ****     if ((ep->type == EP_TYPE_INTR) || (ep->type == EP_TYPE_BULK))
 2597              		.loc 1 1037 32 is_stmt 0 view .LVU824
 2598 0008 00EB4310 		add	r0, r0, r3, lsl #5
 2599              	.LVL215:
1037:Drivers/STM32F4xx_HAL_Driver/Src/stm32f4xx_ll_usb.c ****     if ((ep->type == EP_TYPE_INTR) || (ep->type == EP_TYPE_BULK))
 2600              		.loc 1 1037 32 view .LVU825
 2601 000c D0F8003B 		ldr	r3, [r0, #2816]
 2602              	.LVL216:
1037:Drivers/STM32F4xx_HAL_Driver/Src/stm32f4xx_ll_usb.c ****     if ((ep->type == EP_TYPE_INTR) || (ep->type == EP_TYPE_BULK))
 2603              		.loc 1 1037 32 view .LVU826
 2604 0010 23F40013 		bic	r3, r3, #2097152
 2605 0014 C0F8003B 		str	r3, [r0, #2816]
 2606              	.LVL217:
1038:Drivers/STM32F4xx_HAL_Driver/Src/stm32f4xx_ll_usb.c ****     {
 2607              		.loc 1 1038 5 is_stmt 1 view .LVU827
1038:Drivers/STM32F4xx_HAL_Driver/Src/stm32f4xx_ll_usb.c ****     {
 2608              		.loc 1 1038 12 is_stmt 0 view .LVU828
 2609 0018 CB78     		ldrb	r3, [r1, #3]	@ zero_extendqisi2
1038:Drivers/STM32F4xx_HAL_Driver/Src/stm32f4xx_ll_usb.c ****     {
 2610              		.loc 1 1038 36 view .LVU829
 2611 001a 023B     		subs	r3, r3, #2
 2612 001c DBB2     		uxtb	r3, r3
1038:Drivers/STM32F4xx_HAL_Driver/Src/stm32f4xx_ll_usb.c ****     {
 2613              		.loc 1 1038 8 view .LVU830
 2614 001e 012B     		cmp	r3, #1
 2615 0020 15D9     		bls	.L182
 2616              	.L180:
1043:Drivers/STM32F4xx_HAL_Driver/Src/stm32f4xx_ll_usb.c **** }
 2617              		.loc 1 1043 3 is_stmt 1 view .LVU831
1044:Drivers/STM32F4xx_HAL_Driver/Src/stm32f4xx_ll_usb.c **** 
 2618              		.loc 1 1044 1 is_stmt 0 view .LVU832
 2619 0022 0020     		movs	r0, #0
 2620 0024 7047     		bx	lr
 2621              	.LVL218:
 2622              	.L181:
1029:Drivers/STM32F4xx_HAL_Driver/Src/stm32f4xx_ll_usb.c ****     if ((ep->type == EP_TYPE_INTR) || (ep->type == EP_TYPE_BULK))
 2623              		.loc 1 1029 5 is_stmt 1 view .LVU833
1029:Drivers/STM32F4xx_HAL_Driver/Src/stm32f4xx_ll_usb.c ****     if ((ep->type == EP_TYPE_INTR) || (ep->type == EP_TYPE_BULK))
 2624              		.loc 1 1029 31 is_stmt 0 view .LVU834
 2625 0026 00EB4310 		add	r0, r0, r3, lsl #5
ARM GAS  /tmp/ccrTWjYe.s 			page 84


 2626              	.LVL219:
1029:Drivers/STM32F4xx_HAL_Driver/Src/stm32f4xx_ll_usb.c ****     if ((ep->type == EP_TYPE_INTR) || (ep->type == EP_TYPE_BULK))
 2627              		.loc 1 1029 31 view .LVU835
 2628 002a D0F80039 		ldr	r3, [r0, #2304]
 2629              	.LVL220:
1029:Drivers/STM32F4xx_HAL_Driver/Src/stm32f4xx_ll_usb.c ****     if ((ep->type == EP_TYPE_INTR) || (ep->type == EP_TYPE_BULK))
 2630              		.loc 1 1029 31 view .LVU836
 2631 002e 23F40013 		bic	r3, r3, #2097152
 2632 0032 C0F80039 		str	r3, [r0, #2304]
 2633              	.LVL221:
1030:Drivers/STM32F4xx_HAL_Driver/Src/stm32f4xx_ll_usb.c ****     {
 2634              		.loc 1 1030 5 is_stmt 1 view .LVU837
1030:Drivers/STM32F4xx_HAL_Driver/Src/stm32f4xx_ll_usb.c ****     {
 2635              		.loc 1 1030 12 is_stmt 0 view .LVU838
 2636 0036 CB78     		ldrb	r3, [r1, #3]	@ zero_extendqisi2
1030:Drivers/STM32F4xx_HAL_Driver/Src/stm32f4xx_ll_usb.c ****     {
 2637              		.loc 1 1030 36 view .LVU839
 2638 0038 023B     		subs	r3, r3, #2
 2639 003a DBB2     		uxtb	r3, r3
1030:Drivers/STM32F4xx_HAL_Driver/Src/stm32f4xx_ll_usb.c ****     {
 2640              		.loc 1 1030 8 view .LVU840
 2641 003c 012B     		cmp	r3, #1
 2642 003e F0D8     		bhi	.L180
1032:Drivers/STM32F4xx_HAL_Driver/Src/stm32f4xx_ll_usb.c ****     }
 2643              		.loc 1 1032 7 is_stmt 1 view .LVU841
1032:Drivers/STM32F4xx_HAL_Driver/Src/stm32f4xx_ll_usb.c ****     }
 2644              		.loc 1 1032 33 is_stmt 0 view .LVU842
 2645 0040 D0F80039 		ldr	r3, [r0, #2304]
 2646 0044 43F08053 		orr	r3, r3, #268435456
 2647 0048 C0F80039 		str	r3, [r0, #2304]
 2648 004c E9E7     		b	.L180
 2649              	.L182:
1040:Drivers/STM32F4xx_HAL_Driver/Src/stm32f4xx_ll_usb.c ****     }
 2650              		.loc 1 1040 7 is_stmt 1 view .LVU843
1040:Drivers/STM32F4xx_HAL_Driver/Src/stm32f4xx_ll_usb.c ****     }
 2651              		.loc 1 1040 34 is_stmt 0 view .LVU844
 2652 004e D0F8003B 		ldr	r3, [r0, #2816]
 2653 0052 43F08053 		orr	r3, r3, #268435456
 2654 0056 C0F8003B 		str	r3, [r0, #2816]
 2655 005a E2E7     		b	.L180
 2656              		.cfi_endproc
 2657              	.LFE149:
 2659              		.section	.text.USB_StopDevice,"ax",%progbits
 2660              		.align	1
 2661              		.global	USB_StopDevice
 2662              		.syntax unified
 2663              		.thumb
 2664              		.thumb_func
 2665              		.fpu fpv4-sp-d16
 2667              	USB_StopDevice:
 2668              	.LVL222:
 2669              	.LFB150:
1052:Drivers/STM32F4xx_HAL_Driver/Src/stm32f4xx_ll_usb.c ****   HAL_StatusTypeDef ret;
 2670              		.loc 1 1052 1 is_stmt 1 view -0
 2671              		.cfi_startproc
 2672              		@ args = 0, pretend = 0, frame = 0
 2673              		@ frame_needed = 0, uses_anonymous_args = 0
ARM GAS  /tmp/ccrTWjYe.s 			page 85


1052:Drivers/STM32F4xx_HAL_Driver/Src/stm32f4xx_ll_usb.c ****   HAL_StatusTypeDef ret;
 2674              		.loc 1 1052 1 is_stmt 0 view .LVU846
 2675 0000 38B5     		push	{r3, r4, r5, lr}
 2676              	.LCFI31:
 2677              		.cfi_def_cfa_offset 16
 2678              		.cfi_offset 3, -16
 2679              		.cfi_offset 4, -12
 2680              		.cfi_offset 5, -8
 2681              		.cfi_offset 14, -4
 2682 0002 0546     		mov	r5, r0
1053:Drivers/STM32F4xx_HAL_Driver/Src/stm32f4xx_ll_usb.c ****   uint32_t USBx_BASE = (uint32_t)USBx;
 2683              		.loc 1 1053 3 is_stmt 1 view .LVU847
1054:Drivers/STM32F4xx_HAL_Driver/Src/stm32f4xx_ll_usb.c ****   uint32_t i;
 2684              		.loc 1 1054 3 view .LVU848
1054:Drivers/STM32F4xx_HAL_Driver/Src/stm32f4xx_ll_usb.c ****   uint32_t i;
 2685              		.loc 1 1054 12 is_stmt 0 view .LVU849
 2686 0004 0446     		mov	r4, r0
 2687              	.LVL223:
1055:Drivers/STM32F4xx_HAL_Driver/Src/stm32f4xx_ll_usb.c **** 
 2688              		.loc 1 1055 3 is_stmt 1 view .LVU850
1058:Drivers/STM32F4xx_HAL_Driver/Src/stm32f4xx_ll_usb.c ****   {
 2689              		.loc 1 1058 3 view .LVU851
1058:Drivers/STM32F4xx_HAL_Driver/Src/stm32f4xx_ll_usb.c ****   {
 2690              		.loc 1 1058 10 is_stmt 0 view .LVU852
 2691 0006 0022     		movs	r2, #0
 2692              	.LVL224:
 2693              	.L184:
1058:Drivers/STM32F4xx_HAL_Driver/Src/stm32f4xx_ll_usb.c ****   {
 2694              		.loc 1 1058 3 discriminator 1 view .LVU853
 2695 0008 0E2A     		cmp	r2, #14
 2696 000a 09D8     		bhi	.L188
1060:Drivers/STM32F4xx_HAL_Driver/Src/stm32f4xx_ll_usb.c ****     USBx_OUTEP(i)->DOEPINT = 0xFB7FU;
 2697              		.loc 1 1060 5 is_stmt 1 discriminator 3 view .LVU854
 2698 000c 04EB4213 		add	r3, r4, r2, lsl #5
1060:Drivers/STM32F4xx_HAL_Driver/Src/stm32f4xx_ll_usb.c ****     USBx_OUTEP(i)->DOEPINT = 0xFB7FU;
 2699              		.loc 1 1060 27 is_stmt 0 discriminator 3 view .LVU855
 2700 0010 4FF67F31 		movw	r1, #64383
 2701 0014 C3F80819 		str	r1, [r3, #2312]
1061:Drivers/STM32F4xx_HAL_Driver/Src/stm32f4xx_ll_usb.c ****   }
 2702              		.loc 1 1061 5 is_stmt 1 discriminator 3 view .LVU856
1061:Drivers/STM32F4xx_HAL_Driver/Src/stm32f4xx_ll_usb.c ****   }
 2703              		.loc 1 1061 28 is_stmt 0 discriminator 3 view .LVU857
 2704 0018 C3F8081B 		str	r1, [r3, #2824]
1058:Drivers/STM32F4xx_HAL_Driver/Src/stm32f4xx_ll_usb.c ****   {
 2705              		.loc 1 1058 26 discriminator 3 view .LVU858
 2706 001c 0132     		adds	r2, r2, #1
 2707              	.LVL225:
1058:Drivers/STM32F4xx_HAL_Driver/Src/stm32f4xx_ll_usb.c ****   {
 2708              		.loc 1 1058 26 discriminator 3 view .LVU859
 2709 001e F3E7     		b	.L184
 2710              	.L188:
1065:Drivers/STM32F4xx_HAL_Driver/Src/stm32f4xx_ll_usb.c ****   USBx_DEVICE->DOEPMSK  = 0U;
 2711              		.loc 1 1065 3 is_stmt 1 view .LVU860
1065:Drivers/STM32F4xx_HAL_Driver/Src/stm32f4xx_ll_usb.c ****   USBx_DEVICE->DOEPMSK  = 0U;
 2712              		.loc 1 1065 25 is_stmt 0 view .LVU861
 2713 0020 0022     		movs	r2, #0
 2714              	.LVL226:
ARM GAS  /tmp/ccrTWjYe.s 			page 86


1065:Drivers/STM32F4xx_HAL_Driver/Src/stm32f4xx_ll_usb.c ****   USBx_DEVICE->DOEPMSK  = 0U;
 2715              		.loc 1 1065 25 view .LVU862
 2716 0022 C5F81028 		str	r2, [r5, #2064]
1066:Drivers/STM32F4xx_HAL_Driver/Src/stm32f4xx_ll_usb.c ****   USBx_DEVICE->DAINTMSK = 0U;
 2717              		.loc 1 1066 3 is_stmt 1 view .LVU863
1066:Drivers/STM32F4xx_HAL_Driver/Src/stm32f4xx_ll_usb.c ****   USBx_DEVICE->DAINTMSK = 0U;
 2718              		.loc 1 1066 25 is_stmt 0 view .LVU864
 2719 0026 C5F81428 		str	r2, [r5, #2068]
1067:Drivers/STM32F4xx_HAL_Driver/Src/stm32f4xx_ll_usb.c **** 
 2720              		.loc 1 1067 3 is_stmt 1 view .LVU865
1067:Drivers/STM32F4xx_HAL_Driver/Src/stm32f4xx_ll_usb.c **** 
 2721              		.loc 1 1067 25 is_stmt 0 view .LVU866
 2722 002a C5F81C28 		str	r2, [r5, #2076]
1070:Drivers/STM32F4xx_HAL_Driver/Src/stm32f4xx_ll_usb.c ****   if (ret != HAL_OK)
 2723              		.loc 1 1070 3 is_stmt 1 view .LVU867
1070:Drivers/STM32F4xx_HAL_Driver/Src/stm32f4xx_ll_usb.c ****   if (ret != HAL_OK)
 2724              		.loc 1 1070 9 is_stmt 0 view .LVU868
 2725 002e 2846     		mov	r0, r5
 2726              	.LVL227:
1070:Drivers/STM32F4xx_HAL_Driver/Src/stm32f4xx_ll_usb.c ****   if (ret != HAL_OK)
 2727              		.loc 1 1070 9 view .LVU869
 2728 0030 FFF7FEFF 		bl	USB_FlushRxFifo
 2729              	.LVL228:
1071:Drivers/STM32F4xx_HAL_Driver/Src/stm32f4xx_ll_usb.c ****   {
 2730              		.loc 1 1071 3 is_stmt 1 view .LVU870
1071:Drivers/STM32F4xx_HAL_Driver/Src/stm32f4xx_ll_usb.c ****   {
 2731              		.loc 1 1071 6 is_stmt 0 view .LVU871
 2732 0034 0346     		mov	r3, r0
 2733 0036 08B1     		cbz	r0, .L189
 2734              	.LVL229:
 2735              	.L186:
1083:Drivers/STM32F4xx_HAL_Driver/Src/stm32f4xx_ll_usb.c **** 
 2736              		.loc 1 1083 1 view .LVU872
 2737 0038 1846     		mov	r0, r3
 2738 003a 38BD     		pop	{r3, r4, r5, pc}
 2739              	.LVL230:
 2740              	.L189:
1076:Drivers/STM32F4xx_HAL_Driver/Src/stm32f4xx_ll_usb.c ****   if (ret != HAL_OK)
 2741              		.loc 1 1076 3 is_stmt 1 view .LVU873
1076:Drivers/STM32F4xx_HAL_Driver/Src/stm32f4xx_ll_usb.c ****   if (ret != HAL_OK)
 2742              		.loc 1 1076 9 is_stmt 0 view .LVU874
 2743 003c 1021     		movs	r1, #16
 2744 003e 2846     		mov	r0, r5
 2745              	.LVL231:
1076:Drivers/STM32F4xx_HAL_Driver/Src/stm32f4xx_ll_usb.c ****   if (ret != HAL_OK)
 2746              		.loc 1 1076 9 view .LVU875
 2747 0040 FFF7FEFF 		bl	USB_FlushTxFifo
 2748              	.LVL232:
 2749 0044 0346     		mov	r3, r0
 2750              	.LVL233:
1077:Drivers/STM32F4xx_HAL_Driver/Src/stm32f4xx_ll_usb.c ****   {
 2751              		.loc 1 1077 3 is_stmt 1 view .LVU876
 2752 0046 F7E7     		b	.L186
 2753              		.cfi_endproc
 2754              	.LFE150:
 2756              		.section	.text.USB_SetDevAddress,"ax",%progbits
 2757              		.align	1
ARM GAS  /tmp/ccrTWjYe.s 			page 87


 2758              		.global	USB_SetDevAddress
 2759              		.syntax unified
 2760              		.thumb
 2761              		.thumb_func
 2762              		.fpu fpv4-sp-d16
 2764              	USB_SetDevAddress:
 2765              	.LVL234:
 2766              	.LFB151:
1093:Drivers/STM32F4xx_HAL_Driver/Src/stm32f4xx_ll_usb.c ****   uint32_t USBx_BASE = (uint32_t)USBx;
 2767              		.loc 1 1093 1 view -0
 2768              		.cfi_startproc
 2769              		@ args = 0, pretend = 0, frame = 0
 2770              		@ frame_needed = 0, uses_anonymous_args = 0
 2771              		@ link register save eliminated.
1094:Drivers/STM32F4xx_HAL_Driver/Src/stm32f4xx_ll_usb.c **** 
 2772              		.loc 1 1094 3 view .LVU878
1096:Drivers/STM32F4xx_HAL_Driver/Src/stm32f4xx_ll_usb.c ****   USBx_DEVICE->DCFG |= ((uint32_t)address << 4) & USB_OTG_DCFG_DAD;
 2773              		.loc 1 1096 3 view .LVU879
1096:Drivers/STM32F4xx_HAL_Driver/Src/stm32f4xx_ll_usb.c ****   USBx_DEVICE->DCFG |= ((uint32_t)address << 4) & USB_OTG_DCFG_DAD;
 2774              		.loc 1 1096 21 is_stmt 0 view .LVU880
 2775 0000 D0F80038 		ldr	r3, [r0, #2048]
 2776 0004 23F4FE63 		bic	r3, r3, #2032
 2777 0008 C0F80038 		str	r3, [r0, #2048]
1097:Drivers/STM32F4xx_HAL_Driver/Src/stm32f4xx_ll_usb.c **** 
 2778              		.loc 1 1097 3 is_stmt 1 view .LVU881
1097:Drivers/STM32F4xx_HAL_Driver/Src/stm32f4xx_ll_usb.c **** 
 2779              		.loc 1 1097 21 is_stmt 0 view .LVU882
 2780 000c D0F80038 		ldr	r3, [r0, #2048]
1097:Drivers/STM32F4xx_HAL_Driver/Src/stm32f4xx_ll_usb.c **** 
 2781              		.loc 1 1097 43 view .LVU883
 2782 0010 0901     		lsls	r1, r1, #4
 2783              	.LVL235:
1097:Drivers/STM32F4xx_HAL_Driver/Src/stm32f4xx_ll_usb.c **** 
 2784              		.loc 1 1097 49 view .LVU884
 2785 0012 01F4FE61 		and	r1, r1, #2032
1097:Drivers/STM32F4xx_HAL_Driver/Src/stm32f4xx_ll_usb.c **** 
 2786              		.loc 1 1097 21 view .LVU885
 2787 0016 0B43     		orrs	r3, r3, r1
 2788 0018 C0F80038 		str	r3, [r0, #2048]
1099:Drivers/STM32F4xx_HAL_Driver/Src/stm32f4xx_ll_usb.c **** }
 2789              		.loc 1 1099 3 is_stmt 1 view .LVU886
1100:Drivers/STM32F4xx_HAL_Driver/Src/stm32f4xx_ll_usb.c **** 
 2790              		.loc 1 1100 1 is_stmt 0 view .LVU887
 2791 001c 0020     		movs	r0, #0
 2792              	.LVL236:
1100:Drivers/STM32F4xx_HAL_Driver/Src/stm32f4xx_ll_usb.c **** 
 2793              		.loc 1 1100 1 view .LVU888
 2794 001e 7047     		bx	lr
 2795              		.cfi_endproc
 2796              	.LFE151:
 2798              		.section	.text.USB_DevConnect,"ax",%progbits
 2799              		.align	1
 2800              		.global	USB_DevConnect
 2801              		.syntax unified
 2802              		.thumb
 2803              		.thumb_func
 2804              		.fpu fpv4-sp-d16
ARM GAS  /tmp/ccrTWjYe.s 			page 88


 2806              	USB_DevConnect:
 2807              	.LVL237:
 2808              	.LFB152:
1108:Drivers/STM32F4xx_HAL_Driver/Src/stm32f4xx_ll_usb.c ****   uint32_t USBx_BASE = (uint32_t)USBx;
 2809              		.loc 1 1108 1 is_stmt 1 view -0
 2810              		.cfi_startproc
 2811              		@ args = 0, pretend = 0, frame = 0
 2812              		@ frame_needed = 0, uses_anonymous_args = 0
1108:Drivers/STM32F4xx_HAL_Driver/Src/stm32f4xx_ll_usb.c ****   uint32_t USBx_BASE = (uint32_t)USBx;
 2813              		.loc 1 1108 1 is_stmt 0 view .LVU890
 2814 0000 08B5     		push	{r3, lr}
 2815              	.LCFI32:
 2816              		.cfi_def_cfa_offset 8
 2817              		.cfi_offset 3, -8
 2818              		.cfi_offset 14, -4
1109:Drivers/STM32F4xx_HAL_Driver/Src/stm32f4xx_ll_usb.c **** 
 2819              		.loc 1 1109 3 is_stmt 1 view .LVU891
 2820              	.LVL238:
1111:Drivers/STM32F4xx_HAL_Driver/Src/stm32f4xx_ll_usb.c ****   HAL_Delay(3U);
 2821              		.loc 1 1111 3 view .LVU892
1111:Drivers/STM32F4xx_HAL_Driver/Src/stm32f4xx_ll_usb.c ****   HAL_Delay(3U);
 2822              		.loc 1 1111 21 is_stmt 0 view .LVU893
 2823 0002 D0F80438 		ldr	r3, [r0, #2052]
 2824 0006 23F00203 		bic	r3, r3, #2
 2825 000a C0F80438 		str	r3, [r0, #2052]
1112:Drivers/STM32F4xx_HAL_Driver/Src/stm32f4xx_ll_usb.c **** 
 2826              		.loc 1 1112 3 is_stmt 1 view .LVU894
 2827 000e 0320     		movs	r0, #3
 2828              	.LVL239:
1112:Drivers/STM32F4xx_HAL_Driver/Src/stm32f4xx_ll_usb.c **** 
 2829              		.loc 1 1112 3 is_stmt 0 view .LVU895
 2830 0010 FFF7FEFF 		bl	HAL_Delay
 2831              	.LVL240:
1114:Drivers/STM32F4xx_HAL_Driver/Src/stm32f4xx_ll_usb.c **** }
 2832              		.loc 1 1114 3 is_stmt 1 view .LVU896
1115:Drivers/STM32F4xx_HAL_Driver/Src/stm32f4xx_ll_usb.c **** 
 2833              		.loc 1 1115 1 is_stmt 0 view .LVU897
 2834 0014 0020     		movs	r0, #0
 2835 0016 08BD     		pop	{r3, pc}
 2836              		.cfi_endproc
 2837              	.LFE152:
 2839              		.section	.text.USB_DevDisconnect,"ax",%progbits
 2840              		.align	1
 2841              		.global	USB_DevDisconnect
 2842              		.syntax unified
 2843              		.thumb
 2844              		.thumb_func
 2845              		.fpu fpv4-sp-d16
 2847              	USB_DevDisconnect:
 2848              	.LVL241:
 2849              	.LFB153:
1123:Drivers/STM32F4xx_HAL_Driver/Src/stm32f4xx_ll_usb.c ****   uint32_t USBx_BASE = (uint32_t)USBx;
 2850              		.loc 1 1123 1 is_stmt 1 view -0
 2851              		.cfi_startproc
 2852              		@ args = 0, pretend = 0, frame = 0
 2853              		@ frame_needed = 0, uses_anonymous_args = 0
1123:Drivers/STM32F4xx_HAL_Driver/Src/stm32f4xx_ll_usb.c ****   uint32_t USBx_BASE = (uint32_t)USBx;
ARM GAS  /tmp/ccrTWjYe.s 			page 89


 2854              		.loc 1 1123 1 is_stmt 0 view .LVU899
 2855 0000 08B5     		push	{r3, lr}
 2856              	.LCFI33:
 2857              		.cfi_def_cfa_offset 8
 2858              		.cfi_offset 3, -8
 2859              		.cfi_offset 14, -4
1124:Drivers/STM32F4xx_HAL_Driver/Src/stm32f4xx_ll_usb.c **** 
 2860              		.loc 1 1124 3 is_stmt 1 view .LVU900
 2861              	.LVL242:
1126:Drivers/STM32F4xx_HAL_Driver/Src/stm32f4xx_ll_usb.c ****   HAL_Delay(3U);
 2862              		.loc 1 1126 3 view .LVU901
1126:Drivers/STM32F4xx_HAL_Driver/Src/stm32f4xx_ll_usb.c ****   HAL_Delay(3U);
 2863              		.loc 1 1126 21 is_stmt 0 view .LVU902
 2864 0002 D0F80438 		ldr	r3, [r0, #2052]
 2865 0006 43F00203 		orr	r3, r3, #2
 2866 000a C0F80438 		str	r3, [r0, #2052]
1127:Drivers/STM32F4xx_HAL_Driver/Src/stm32f4xx_ll_usb.c **** 
 2867              		.loc 1 1127 3 is_stmt 1 view .LVU903
 2868 000e 0320     		movs	r0, #3
 2869              	.LVL243:
1127:Drivers/STM32F4xx_HAL_Driver/Src/stm32f4xx_ll_usb.c **** 
 2870              		.loc 1 1127 3 is_stmt 0 view .LVU904
 2871 0010 FFF7FEFF 		bl	HAL_Delay
 2872              	.LVL244:
1129:Drivers/STM32F4xx_HAL_Driver/Src/stm32f4xx_ll_usb.c **** }
 2873              		.loc 1 1129 3 is_stmt 1 view .LVU905
1130:Drivers/STM32F4xx_HAL_Driver/Src/stm32f4xx_ll_usb.c **** 
 2874              		.loc 1 1130 1 is_stmt 0 view .LVU906
 2875 0014 0020     		movs	r0, #0
 2876 0016 08BD     		pop	{r3, pc}
 2877              		.cfi_endproc
 2878              	.LFE153:
 2880              		.section	.text.USB_ReadInterrupts,"ax",%progbits
 2881              		.align	1
 2882              		.global	USB_ReadInterrupts
 2883              		.syntax unified
 2884              		.thumb
 2885              		.thumb_func
 2886              		.fpu fpv4-sp-d16
 2888              	USB_ReadInterrupts:
 2889              	.LVL245:
 2890              	.LFB154:
1138:Drivers/STM32F4xx_HAL_Driver/Src/stm32f4xx_ll_usb.c ****   uint32_t tmpreg;
 2891              		.loc 1 1138 1 is_stmt 1 view -0
 2892              		.cfi_startproc
 2893              		@ args = 0, pretend = 0, frame = 0
 2894              		@ frame_needed = 0, uses_anonymous_args = 0
 2895              		@ link register save eliminated.
1139:Drivers/STM32F4xx_HAL_Driver/Src/stm32f4xx_ll_usb.c **** 
 2896              		.loc 1 1139 3 view .LVU908
1141:Drivers/STM32F4xx_HAL_Driver/Src/stm32f4xx_ll_usb.c ****   tmpreg &= USBx->GINTMSK;
 2897              		.loc 1 1141 3 view .LVU909
1141:Drivers/STM32F4xx_HAL_Driver/Src/stm32f4xx_ll_usb.c ****   tmpreg &= USBx->GINTMSK;
 2898              		.loc 1 1141 10 is_stmt 0 view .LVU910
 2899 0000 4269     		ldr	r2, [r0, #20]
 2900              	.LVL246:
1142:Drivers/STM32F4xx_HAL_Driver/Src/stm32f4xx_ll_usb.c **** 
ARM GAS  /tmp/ccrTWjYe.s 			page 90


 2901              		.loc 1 1142 3 is_stmt 1 view .LVU911
1142:Drivers/STM32F4xx_HAL_Driver/Src/stm32f4xx_ll_usb.c **** 
 2902              		.loc 1 1142 17 is_stmt 0 view .LVU912
 2903 0002 8069     		ldr	r0, [r0, #24]
 2904              	.LVL247:
1144:Drivers/STM32F4xx_HAL_Driver/Src/stm32f4xx_ll_usb.c **** }
 2905              		.loc 1 1144 3 is_stmt 1 view .LVU913
1145:Drivers/STM32F4xx_HAL_Driver/Src/stm32f4xx_ll_usb.c **** 
 2906              		.loc 1 1145 1 is_stmt 0 view .LVU914
 2907 0004 1040     		ands	r0, r0, r2
 2908              	.LVL248:
1145:Drivers/STM32F4xx_HAL_Driver/Src/stm32f4xx_ll_usb.c **** 
 2909              		.loc 1 1145 1 view .LVU915
 2910 0006 7047     		bx	lr
 2911              		.cfi_endproc
 2912              	.LFE154:
 2914              		.section	.text.USB_ReadDevAllOutEpInterrupt,"ax",%progbits
 2915              		.align	1
 2916              		.global	USB_ReadDevAllOutEpInterrupt
 2917              		.syntax unified
 2918              		.thumb
 2919              		.thumb_func
 2920              		.fpu fpv4-sp-d16
 2922              	USB_ReadDevAllOutEpInterrupt:
 2923              	.LVL249:
 2924              	.LFB155:
1153:Drivers/STM32F4xx_HAL_Driver/Src/stm32f4xx_ll_usb.c ****   uint32_t USBx_BASE = (uint32_t)USBx;
 2925              		.loc 1 1153 1 is_stmt 1 view -0
 2926              		.cfi_startproc
 2927              		@ args = 0, pretend = 0, frame = 0
 2928              		@ frame_needed = 0, uses_anonymous_args = 0
 2929              		@ link register save eliminated.
1154:Drivers/STM32F4xx_HAL_Driver/Src/stm32f4xx_ll_usb.c ****   uint32_t tmpreg;
 2930              		.loc 1 1154 3 view .LVU917
1155:Drivers/STM32F4xx_HAL_Driver/Src/stm32f4xx_ll_usb.c **** 
 2931              		.loc 1 1155 3 view .LVU918
1157:Drivers/STM32F4xx_HAL_Driver/Src/stm32f4xx_ll_usb.c ****   tmpreg &= USBx_DEVICE->DAINTMSK;
 2932              		.loc 1 1157 3 view .LVU919
1157:Drivers/STM32F4xx_HAL_Driver/Src/stm32f4xx_ll_usb.c ****   tmpreg &= USBx_DEVICE->DAINTMSK;
 2933              		.loc 1 1157 11 is_stmt 0 view .LVU920
 2934 0000 D0F81838 		ldr	r3, [r0, #2072]
1157:Drivers/STM32F4xx_HAL_Driver/Src/stm32f4xx_ll_usb.c ****   tmpreg &= USBx_DEVICE->DAINTMSK;
 2935              		.loc 1 1157 13 view .LVU921
 2936 0004 00F50060 		add	r0, r0, #2048
 2937              	.LVL250:
1158:Drivers/STM32F4xx_HAL_Driver/Src/stm32f4xx_ll_usb.c **** 
 2938              		.loc 1 1158 3 is_stmt 1 view .LVU922
1158:Drivers/STM32F4xx_HAL_Driver/Src/stm32f4xx_ll_usb.c **** 
 2939              		.loc 1 1158 24 is_stmt 0 view .LVU923
 2940 0008 C069     		ldr	r0, [r0, #28]
 2941              	.LVL251:
1158:Drivers/STM32F4xx_HAL_Driver/Src/stm32f4xx_ll_usb.c **** 
 2942              		.loc 1 1158 10 view .LVU924
 2943 000a 1840     		ands	r0, r0, r3
 2944              	.LVL252:
1160:Drivers/STM32F4xx_HAL_Driver/Src/stm32f4xx_ll_usb.c **** }
 2945              		.loc 1 1160 3 is_stmt 1 view .LVU925
ARM GAS  /tmp/ccrTWjYe.s 			page 91


1161:Drivers/STM32F4xx_HAL_Driver/Src/stm32f4xx_ll_usb.c **** 
 2946              		.loc 1 1161 1 is_stmt 0 view .LVU926
 2947 000c 000C     		lsrs	r0, r0, #16
 2948              	.LVL253:
1161:Drivers/STM32F4xx_HAL_Driver/Src/stm32f4xx_ll_usb.c **** 
 2949              		.loc 1 1161 1 view .LVU927
 2950 000e 7047     		bx	lr
 2951              		.cfi_endproc
 2952              	.LFE155:
 2954              		.section	.text.USB_ReadDevAllInEpInterrupt,"ax",%progbits
 2955              		.align	1
 2956              		.global	USB_ReadDevAllInEpInterrupt
 2957              		.syntax unified
 2958              		.thumb
 2959              		.thumb_func
 2960              		.fpu fpv4-sp-d16
 2962              	USB_ReadDevAllInEpInterrupt:
 2963              	.LVL254:
 2964              	.LFB156:
1169:Drivers/STM32F4xx_HAL_Driver/Src/stm32f4xx_ll_usb.c ****   uint32_t USBx_BASE = (uint32_t)USBx;
 2965              		.loc 1 1169 1 is_stmt 1 view -0
 2966              		.cfi_startproc
 2967              		@ args = 0, pretend = 0, frame = 0
 2968              		@ frame_needed = 0, uses_anonymous_args = 0
 2969              		@ link register save eliminated.
1170:Drivers/STM32F4xx_HAL_Driver/Src/stm32f4xx_ll_usb.c ****   uint32_t tmpreg;
 2970              		.loc 1 1170 3 view .LVU929
1171:Drivers/STM32F4xx_HAL_Driver/Src/stm32f4xx_ll_usb.c **** 
 2971              		.loc 1 1171 3 view .LVU930
1173:Drivers/STM32F4xx_HAL_Driver/Src/stm32f4xx_ll_usb.c ****   tmpreg &= USBx_DEVICE->DAINTMSK;
 2972              		.loc 1 1173 3 view .LVU931
1173:Drivers/STM32F4xx_HAL_Driver/Src/stm32f4xx_ll_usb.c ****   tmpreg &= USBx_DEVICE->DAINTMSK;
 2973              		.loc 1 1173 11 is_stmt 0 view .LVU932
 2974 0000 D0F81838 		ldr	r3, [r0, #2072]
1173:Drivers/STM32F4xx_HAL_Driver/Src/stm32f4xx_ll_usb.c ****   tmpreg &= USBx_DEVICE->DAINTMSK;
 2975              		.loc 1 1173 13 view .LVU933
 2976 0004 00F50060 		add	r0, r0, #2048
 2977              	.LVL255:
1174:Drivers/STM32F4xx_HAL_Driver/Src/stm32f4xx_ll_usb.c **** 
 2978              		.loc 1 1174 3 is_stmt 1 view .LVU934
1174:Drivers/STM32F4xx_HAL_Driver/Src/stm32f4xx_ll_usb.c **** 
 2979              		.loc 1 1174 24 is_stmt 0 view .LVU935
 2980 0008 C069     		ldr	r0, [r0, #28]
 2981              	.LVL256:
1174:Drivers/STM32F4xx_HAL_Driver/Src/stm32f4xx_ll_usb.c **** 
 2982              		.loc 1 1174 10 view .LVU936
 2983 000a 1840     		ands	r0, r0, r3
 2984              	.LVL257:
1176:Drivers/STM32F4xx_HAL_Driver/Src/stm32f4xx_ll_usb.c **** }
 2985              		.loc 1 1176 3 is_stmt 1 view .LVU937
1177:Drivers/STM32F4xx_HAL_Driver/Src/stm32f4xx_ll_usb.c **** 
 2986              		.loc 1 1177 1 is_stmt 0 view .LVU938
 2987 000c 80B2     		uxth	r0, r0
 2988              	.LVL258:
1177:Drivers/STM32F4xx_HAL_Driver/Src/stm32f4xx_ll_usb.c **** 
 2989              		.loc 1 1177 1 view .LVU939
 2990 000e 7047     		bx	lr
ARM GAS  /tmp/ccrTWjYe.s 			page 92


 2991              		.cfi_endproc
 2992              	.LFE156:
 2994              		.section	.text.USB_ReadDevOutEPInterrupt,"ax",%progbits
 2995              		.align	1
 2996              		.global	USB_ReadDevOutEPInterrupt
 2997              		.syntax unified
 2998              		.thumb
 2999              		.thumb_func
 3000              		.fpu fpv4-sp-d16
 3002              	USB_ReadDevOutEPInterrupt:
 3003              	.LVL259:
 3004              	.LFB157:
1187:Drivers/STM32F4xx_HAL_Driver/Src/stm32f4xx_ll_usb.c ****   uint32_t USBx_BASE = (uint32_t)USBx;
 3005              		.loc 1 1187 1 is_stmt 1 view -0
 3006              		.cfi_startproc
 3007              		@ args = 0, pretend = 0, frame = 0
 3008              		@ frame_needed = 0, uses_anonymous_args = 0
 3009              		@ link register save eliminated.
1188:Drivers/STM32F4xx_HAL_Driver/Src/stm32f4xx_ll_usb.c ****   uint32_t tmpreg;
 3010              		.loc 1 1188 3 view .LVU941
1189:Drivers/STM32F4xx_HAL_Driver/Src/stm32f4xx_ll_usb.c **** 
 3011              		.loc 1 1189 3 view .LVU942
1191:Drivers/STM32F4xx_HAL_Driver/Src/stm32f4xx_ll_usb.c ****   tmpreg &= USBx_DEVICE->DOEPMSK;
 3012              		.loc 1 1191 3 view .LVU943
1191:Drivers/STM32F4xx_HAL_Driver/Src/stm32f4xx_ll_usb.c ****   tmpreg &= USBx_DEVICE->DOEPMSK;
 3013              		.loc 1 1191 13 is_stmt 0 view .LVU944
 3014 0000 00EB4111 		add	r1, r0, r1, lsl #5
 3015              	.LVL260:
1191:Drivers/STM32F4xx_HAL_Driver/Src/stm32f4xx_ll_usb.c ****   tmpreg &= USBx_DEVICE->DOEPMSK;
 3016              		.loc 1 1191 11 view .LVU945
 3017 0004 D1F8082B 		ldr	r2, [r1, #2824]
 3018              	.LVL261:
1192:Drivers/STM32F4xx_HAL_Driver/Src/stm32f4xx_ll_usb.c **** 
 3019              		.loc 1 1192 3 is_stmt 1 view .LVU946
1192:Drivers/STM32F4xx_HAL_Driver/Src/stm32f4xx_ll_usb.c **** 
 3020              		.loc 1 1192 13 is_stmt 0 view .LVU947
 3021 0008 00F50060 		add	r0, r0, #2048
 3022              	.LVL262:
1192:Drivers/STM32F4xx_HAL_Driver/Src/stm32f4xx_ll_usb.c **** 
 3023              		.loc 1 1192 24 view .LVU948
 3024 000c 4069     		ldr	r0, [r0, #20]
 3025              	.LVL263:
1194:Drivers/STM32F4xx_HAL_Driver/Src/stm32f4xx_ll_usb.c **** }
 3026              		.loc 1 1194 3 is_stmt 1 view .LVU949
1195:Drivers/STM32F4xx_HAL_Driver/Src/stm32f4xx_ll_usb.c **** 
 3027              		.loc 1 1195 1 is_stmt 0 view .LVU950
 3028 000e 1040     		ands	r0, r0, r2
 3029              	.LVL264:
1195:Drivers/STM32F4xx_HAL_Driver/Src/stm32f4xx_ll_usb.c **** 
 3030              		.loc 1 1195 1 view .LVU951
 3031 0010 7047     		bx	lr
 3032              		.cfi_endproc
 3033              	.LFE157:
 3035              		.section	.text.USB_ReadDevInEPInterrupt,"ax",%progbits
 3036              		.align	1
 3037              		.global	USB_ReadDevInEPInterrupt
 3038              		.syntax unified
ARM GAS  /tmp/ccrTWjYe.s 			page 93


 3039              		.thumb
 3040              		.thumb_func
 3041              		.fpu fpv4-sp-d16
 3043              	USB_ReadDevInEPInterrupt:
 3044              	.LVL265:
 3045              	.LFB158:
1205:Drivers/STM32F4xx_HAL_Driver/Src/stm32f4xx_ll_usb.c ****   uint32_t USBx_BASE = (uint32_t)USBx;
 3046              		.loc 1 1205 1 is_stmt 1 view -0
 3047              		.cfi_startproc
 3048              		@ args = 0, pretend = 0, frame = 0
 3049              		@ frame_needed = 0, uses_anonymous_args = 0
 3050              		@ link register save eliminated.
1205:Drivers/STM32F4xx_HAL_Driver/Src/stm32f4xx_ll_usb.c ****   uint32_t USBx_BASE = (uint32_t)USBx;
 3051              		.loc 1 1205 1 is_stmt 0 view .LVU953
 3052 0000 10B4     		push	{r4}
 3053              	.LCFI34:
 3054              		.cfi_def_cfa_offset 4
 3055              		.cfi_offset 4, -4
1206:Drivers/STM32F4xx_HAL_Driver/Src/stm32f4xx_ll_usb.c ****   uint32_t tmpreg, msk, emp;
 3056              		.loc 1 1206 3 is_stmt 1 view .LVU954
 3057              	.LVL266:
1207:Drivers/STM32F4xx_HAL_Driver/Src/stm32f4xx_ll_usb.c **** 
 3058              		.loc 1 1207 3 view .LVU955
1209:Drivers/STM32F4xx_HAL_Driver/Src/stm32f4xx_ll_usb.c ****   emp = USBx_DEVICE->DIEPEMPMSK;
 3059              		.loc 1 1209 3 view .LVU956
1209:Drivers/STM32F4xx_HAL_Driver/Src/stm32f4xx_ll_usb.c ****   emp = USBx_DEVICE->DIEPEMPMSK;
 3060              		.loc 1 1209 7 is_stmt 0 view .LVU957
 3061 0002 D0F81048 		ldr	r4, [r0, #2064]
 3062              	.LVL267:
1210:Drivers/STM32F4xx_HAL_Driver/Src/stm32f4xx_ll_usb.c ****   msk |= ((emp >> (epnum & EP_ADDR_MSK)) & 0x1U) << 7;
 3063              		.loc 1 1210 3 is_stmt 1 view .LVU958
1210:Drivers/STM32F4xx_HAL_Driver/Src/stm32f4xx_ll_usb.c ****   msk |= ((emp >> (epnum & EP_ADDR_MSK)) & 0x1U) << 7;
 3064              		.loc 1 1210 7 is_stmt 0 view .LVU959
 3065 0006 D0F83438 		ldr	r3, [r0, #2100]
 3066              	.LVL268:
1211:Drivers/STM32F4xx_HAL_Driver/Src/stm32f4xx_ll_usb.c ****   tmpreg = USBx_INEP((uint32_t)epnum)->DIEPINT & msk;
 3067              		.loc 1 1211 3 is_stmt 1 view .LVU960
1211:Drivers/STM32F4xx_HAL_Driver/Src/stm32f4xx_ll_usb.c ****   tmpreg = USBx_INEP((uint32_t)epnum)->DIEPINT & msk;
 3068              		.loc 1 1211 26 is_stmt 0 view .LVU961
 3069 000a 01F00F02 		and	r2, r1, #15
1211:Drivers/STM32F4xx_HAL_Driver/Src/stm32f4xx_ll_usb.c ****   tmpreg = USBx_INEP((uint32_t)epnum)->DIEPINT & msk;
 3070              		.loc 1 1211 16 view .LVU962
 3071 000e D340     		lsrs	r3, r3, r2
 3072              	.LVL269:
1211:Drivers/STM32F4xx_HAL_Driver/Src/stm32f4xx_ll_usb.c ****   tmpreg = USBx_INEP((uint32_t)epnum)->DIEPINT & msk;
 3073              		.loc 1 1211 50 view .LVU963
 3074 0010 DB01     		lsls	r3, r3, #7
 3075 0012 DBB2     		uxtb	r3, r3
1211:Drivers/STM32F4xx_HAL_Driver/Src/stm32f4xx_ll_usb.c ****   tmpreg = USBx_INEP((uint32_t)epnum)->DIEPINT & msk;
 3076              		.loc 1 1211 7 view .LVU964
 3077 0014 2343     		orrs	r3, r3, r4
 3078              	.LVL270:
1212:Drivers/STM32F4xx_HAL_Driver/Src/stm32f4xx_ll_usb.c **** 
 3079              		.loc 1 1212 3 is_stmt 1 view .LVU965
1212:Drivers/STM32F4xx_HAL_Driver/Src/stm32f4xx_ll_usb.c **** 
 3080              		.loc 1 1212 12 is_stmt 0 view .LVU966
 3081 0016 00EB4110 		add	r0, r0, r1, lsl #5
ARM GAS  /tmp/ccrTWjYe.s 			page 94


 3082              	.LVL271:
1212:Drivers/STM32F4xx_HAL_Driver/Src/stm32f4xx_ll_usb.c **** 
 3083              		.loc 1 1212 12 view .LVU967
 3084 001a 00F51060 		add	r0, r0, #2304
1212:Drivers/STM32F4xx_HAL_Driver/Src/stm32f4xx_ll_usb.c **** 
 3085              		.loc 1 1212 38 view .LVU968
 3086 001e 8068     		ldr	r0, [r0, #8]
 3087              	.LVL272:
1214:Drivers/STM32F4xx_HAL_Driver/Src/stm32f4xx_ll_usb.c **** }
 3088              		.loc 1 1214 3 is_stmt 1 view .LVU969
1215:Drivers/STM32F4xx_HAL_Driver/Src/stm32f4xx_ll_usb.c **** 
 3089              		.loc 1 1215 1 is_stmt 0 view .LVU970
 3090 0020 1840     		ands	r0, r0, r3
 3091              	.LVL273:
1215:Drivers/STM32F4xx_HAL_Driver/Src/stm32f4xx_ll_usb.c **** 
 3092              		.loc 1 1215 1 view .LVU971
 3093 0022 5DF8044B 		ldr	r4, [sp], #4
 3094              	.LCFI35:
 3095              		.cfi_restore 4
 3096              		.cfi_def_cfa_offset 0
 3097 0026 7047     		bx	lr
 3098              		.cfi_endproc
 3099              	.LFE158:
 3101              		.section	.text.USB_ClearInterrupts,"ax",%progbits
 3102              		.align	1
 3103              		.global	USB_ClearInterrupts
 3104              		.syntax unified
 3105              		.thumb
 3106              		.thumb_func
 3107              		.fpu fpv4-sp-d16
 3109              	USB_ClearInterrupts:
 3110              	.LVL274:
 3111              	.LFB159:
1224:Drivers/STM32F4xx_HAL_Driver/Src/stm32f4xx_ll_usb.c ****   USBx->GINTSTS |= interrupt;
 3112              		.loc 1 1224 1 is_stmt 1 view -0
 3113              		.cfi_startproc
 3114              		@ args = 0, pretend = 0, frame = 0
 3115              		@ frame_needed = 0, uses_anonymous_args = 0
 3116              		@ link register save eliminated.
1225:Drivers/STM32F4xx_HAL_Driver/Src/stm32f4xx_ll_usb.c **** }
 3117              		.loc 1 1225 3 view .LVU973
1225:Drivers/STM32F4xx_HAL_Driver/Src/stm32f4xx_ll_usb.c **** }
 3118              		.loc 1 1225 17 is_stmt 0 view .LVU974
 3119 0000 4369     		ldr	r3, [r0, #20]
 3120 0002 1943     		orrs	r1, r1, r3
 3121              	.LVL275:
1225:Drivers/STM32F4xx_HAL_Driver/Src/stm32f4xx_ll_usb.c **** }
 3122              		.loc 1 1225 17 view .LVU975
 3123 0004 4161     		str	r1, [r0, #20]
1226:Drivers/STM32F4xx_HAL_Driver/Src/stm32f4xx_ll_usb.c **** 
 3124              		.loc 1 1226 1 view .LVU976
 3125 0006 7047     		bx	lr
 3126              		.cfi_endproc
 3127              	.LFE159:
 3129              		.section	.text.USB_GetMode,"ax",%progbits
 3130              		.align	1
 3131              		.global	USB_GetMode
ARM GAS  /tmp/ccrTWjYe.s 			page 95


 3132              		.syntax unified
 3133              		.thumb
 3134              		.thumb_func
 3135              		.fpu fpv4-sp-d16
 3137              	USB_GetMode:
 3138              	.LVL276:
 3139              	.LFB160:
1237:Drivers/STM32F4xx_HAL_Driver/Src/stm32f4xx_ll_usb.c ****   return ((USBx->GINTSTS) & 0x1U);
 3140              		.loc 1 1237 1 is_stmt 1 view -0
 3141              		.cfi_startproc
 3142              		@ args = 0, pretend = 0, frame = 0
 3143              		@ frame_needed = 0, uses_anonymous_args = 0
 3144              		@ link register save eliminated.
1238:Drivers/STM32F4xx_HAL_Driver/Src/stm32f4xx_ll_usb.c **** }
 3145              		.loc 1 1238 3 view .LVU978
1238:Drivers/STM32F4xx_HAL_Driver/Src/stm32f4xx_ll_usb.c **** }
 3146              		.loc 1 1238 16 is_stmt 0 view .LVU979
 3147 0000 4069     		ldr	r0, [r0, #20]
 3148              	.LVL277:
1239:Drivers/STM32F4xx_HAL_Driver/Src/stm32f4xx_ll_usb.c **** 
 3149              		.loc 1 1239 1 view .LVU980
 3150 0002 00F00100 		and	r0, r0, #1
 3151 0006 7047     		bx	lr
 3152              		.cfi_endproc
 3153              	.LFE160:
 3155              		.section	.text.USB_ActivateSetup,"ax",%progbits
 3156              		.align	1
 3157              		.global	USB_ActivateSetup
 3158              		.syntax unified
 3159              		.thumb
 3160              		.thumb_func
 3161              		.fpu fpv4-sp-d16
 3163              	USB_ActivateSetup:
 3164              	.LVL278:
 3165              	.LFB161:
1247:Drivers/STM32F4xx_HAL_Driver/Src/stm32f4xx_ll_usb.c ****   uint32_t USBx_BASE = (uint32_t)USBx;
 3166              		.loc 1 1247 1 is_stmt 1 view -0
 3167              		.cfi_startproc
 3168              		@ args = 0, pretend = 0, frame = 0
 3169              		@ frame_needed = 0, uses_anonymous_args = 0
 3170              		@ link register save eliminated.
1248:Drivers/STM32F4xx_HAL_Driver/Src/stm32f4xx_ll_usb.c **** 
 3171              		.loc 1 1248 3 view .LVU982
1251:Drivers/STM32F4xx_HAL_Driver/Src/stm32f4xx_ll_usb.c **** 
 3172              		.loc 1 1251 3 view .LVU983
1251:Drivers/STM32F4xx_HAL_Driver/Src/stm32f4xx_ll_usb.c **** 
 3173              		.loc 1 1251 26 is_stmt 0 view .LVU984
 3174 0000 D0F80039 		ldr	r3, [r0, #2304]
 3175 0004 23F4FF63 		bic	r3, r3, #2040
 3176 0008 23F00703 		bic	r3, r3, #7
 3177 000c C0F80039 		str	r3, [r0, #2304]
1253:Drivers/STM32F4xx_HAL_Driver/Src/stm32f4xx_ll_usb.c ****   {
 3178              		.loc 1 1253 3 is_stmt 1 view .LVU985
1253:Drivers/STM32F4xx_HAL_Driver/Src/stm32f4xx_ll_usb.c ****   {
 3179              		.loc 1 1253 8 is_stmt 0 view .LVU986
 3180 0010 00F50063 		add	r3, r0, #2048
1253:Drivers/STM32F4xx_HAL_Driver/Src/stm32f4xx_ll_usb.c ****   {
ARM GAS  /tmp/ccrTWjYe.s 			page 96


 3181              		.loc 1 1253 19 view .LVU987
 3182 0014 9A68     		ldr	r2, [r3, #8]
1253:Drivers/STM32F4xx_HAL_Driver/Src/stm32f4xx_ll_usb.c ****   {
 3183              		.loc 1 1253 26 view .LVU988
 3184 0016 02F00602 		and	r2, r2, #6
1253:Drivers/STM32F4xx_HAL_Driver/Src/stm32f4xx_ll_usb.c ****   {
 3185              		.loc 1 1253 6 view .LVU989
 3186 001a 042A     		cmp	r2, #4
 3187 001c 05D0     		beq	.L205
 3188              	.L204:
1257:Drivers/STM32F4xx_HAL_Driver/Src/stm32f4xx_ll_usb.c **** 
 3189              		.loc 1 1257 3 is_stmt 1 view .LVU990
1257:Drivers/STM32F4xx_HAL_Driver/Src/stm32f4xx_ll_usb.c **** 
 3190              		.loc 1 1257 21 is_stmt 0 view .LVU991
 3191 001e 5A68     		ldr	r2, [r3, #4]
 3192 0020 42F48072 		orr	r2, r2, #256
 3193 0024 5A60     		str	r2, [r3, #4]
1259:Drivers/STM32F4xx_HAL_Driver/Src/stm32f4xx_ll_usb.c **** }
 3194              		.loc 1 1259 3 is_stmt 1 view .LVU992
1260:Drivers/STM32F4xx_HAL_Driver/Src/stm32f4xx_ll_usb.c **** 
 3195              		.loc 1 1260 1 is_stmt 0 view .LVU993
 3196 0026 0020     		movs	r0, #0
 3197              	.LVL279:
1260:Drivers/STM32F4xx_HAL_Driver/Src/stm32f4xx_ll_usb.c **** 
 3198              		.loc 1 1260 1 view .LVU994
 3199 0028 7047     		bx	lr
 3200              	.LVL280:
 3201              	.L205:
1255:Drivers/STM32F4xx_HAL_Driver/Src/stm32f4xx_ll_usb.c ****   }
 3202              		.loc 1 1255 5 is_stmt 1 view .LVU995
1255:Drivers/STM32F4xx_HAL_Driver/Src/stm32f4xx_ll_usb.c ****   }
 3203              		.loc 1 1255 28 is_stmt 0 view .LVU996
 3204 002a D0F80029 		ldr	r2, [r0, #2304]
 3205 002e 42F00302 		orr	r2, r2, #3
 3206 0032 C0F80029 		str	r2, [r0, #2304]
 3207 0036 F2E7     		b	.L204
 3208              		.cfi_endproc
 3209              	.LFE161:
 3211              		.section	.text.USB_EP0_OutStart,"ax",%progbits
 3212              		.align	1
 3213              		.global	USB_EP0_OutStart
 3214              		.syntax unified
 3215              		.thumb
 3216              		.thumb_func
 3217              		.fpu fpv4-sp-d16
 3219              	USB_EP0_OutStart:
 3220              	.LVL281:
 3221              	.LFB162:
1273:Drivers/STM32F4xx_HAL_Driver/Src/stm32f4xx_ll_usb.c ****   uint32_t USBx_BASE = (uint32_t)USBx;
 3222              		.loc 1 1273 1 is_stmt 1 view -0
 3223              		.cfi_startproc
 3224              		@ args = 0, pretend = 0, frame = 0
 3225              		@ frame_needed = 0, uses_anonymous_args = 0
 3226              		@ link register save eliminated.
1273:Drivers/STM32F4xx_HAL_Driver/Src/stm32f4xx_ll_usb.c ****   uint32_t USBx_BASE = (uint32_t)USBx;
 3227              		.loc 1 1273 1 is_stmt 0 view .LVU998
 3228 0000 10B4     		push	{r4}
ARM GAS  /tmp/ccrTWjYe.s 			page 97


 3229              	.LCFI36:
 3230              		.cfi_def_cfa_offset 4
 3231              		.cfi_offset 4, -4
1274:Drivers/STM32F4xx_HAL_Driver/Src/stm32f4xx_ll_usb.c ****   uint32_t gSNPSiD = *(__IO uint32_t *)(&USBx->CID + 0x1U);
 3232              		.loc 1 1274 3 is_stmt 1 view .LVU999
 3233              	.LVL282:
1275:Drivers/STM32F4xx_HAL_Driver/Src/stm32f4xx_ll_usb.c **** 
 3234              		.loc 1 1275 3 view .LVU1000
1275:Drivers/STM32F4xx_HAL_Driver/Src/stm32f4xx_ll_usb.c **** 
 3235              		.loc 1 1275 12 is_stmt 0 view .LVU1001
 3236 0002 046C     		ldr	r4, [r0, #64]
 3237              	.LVL283:
1277:Drivers/STM32F4xx_HAL_Driver/Src/stm32f4xx_ll_usb.c ****   {
 3238              		.loc 1 1277 3 is_stmt 1 view .LVU1002
1277:Drivers/STM32F4xx_HAL_Driver/Src/stm32f4xx_ll_usb.c ****   {
 3239              		.loc 1 1277 6 is_stmt 0 view .LVU1003
 3240 0004 154B     		ldr	r3, .L211
 3241 0006 9C42     		cmp	r4, r3
 3242 0008 03D9     		bls	.L207
1279:Drivers/STM32F4xx_HAL_Driver/Src/stm32f4xx_ll_usb.c ****     {
 3243              		.loc 1 1279 5 is_stmt 1 view .LVU1004
1279:Drivers/STM32F4xx_HAL_Driver/Src/stm32f4xx_ll_usb.c ****     {
 3244              		.loc 1 1279 24 is_stmt 0 view .LVU1005
 3245 000a D0F8003B 		ldr	r3, [r0, #2816]
1279:Drivers/STM32F4xx_HAL_Driver/Src/stm32f4xx_ll_usb.c ****     {
 3246              		.loc 1 1279 8 view .LVU1006
 3247 000e 002B     		cmp	r3, #0
 3248 0010 16DB     		blt	.L208
 3249              	.L207:
1285:Drivers/STM32F4xx_HAL_Driver/Src/stm32f4xx_ll_usb.c ****   USBx_OUTEP(0U)->DOEPTSIZ |= (USB_OTG_DOEPTSIZ_PKTCNT & (1U << 19));
 3250              		.loc 1 1285 3 is_stmt 1 view .LVU1007
1285:Drivers/STM32F4xx_HAL_Driver/Src/stm32f4xx_ll_usb.c ****   USBx_OUTEP(0U)->DOEPTSIZ |= (USB_OTG_DOEPTSIZ_PKTCNT & (1U << 19));
 3251              		.loc 1 1285 28 is_stmt 0 view .LVU1008
 3252 0012 0024     		movs	r4, #0
 3253              	.LVL284:
1285:Drivers/STM32F4xx_HAL_Driver/Src/stm32f4xx_ll_usb.c ****   USBx_OUTEP(0U)->DOEPTSIZ |= (USB_OTG_DOEPTSIZ_PKTCNT & (1U << 19));
 3254              		.loc 1 1285 28 view .LVU1009
 3255 0014 C0F8104B 		str	r4, [r0, #2832]
1286:Drivers/STM32F4xx_HAL_Driver/Src/stm32f4xx_ll_usb.c ****   USBx_OUTEP(0U)->DOEPTSIZ |= (3U * 8U);
 3256              		.loc 1 1286 3 is_stmt 1 view .LVU1010
1286:Drivers/STM32F4xx_HAL_Driver/Src/stm32f4xx_ll_usb.c ****   USBx_OUTEP(0U)->DOEPTSIZ |= (3U * 8U);
 3257              		.loc 1 1286 28 is_stmt 0 view .LVU1011
 3258 0018 D0F8104B 		ldr	r4, [r0, #2832]
 3259 001c 44F40024 		orr	r4, r4, #524288
 3260 0020 C0F8104B 		str	r4, [r0, #2832]
1287:Drivers/STM32F4xx_HAL_Driver/Src/stm32f4xx_ll_usb.c ****   USBx_OUTEP(0U)->DOEPTSIZ |=  USB_OTG_DOEPTSIZ_STUPCNT;
 3261              		.loc 1 1287 3 is_stmt 1 view .LVU1012
1287:Drivers/STM32F4xx_HAL_Driver/Src/stm32f4xx_ll_usb.c ****   USBx_OUTEP(0U)->DOEPTSIZ |=  USB_OTG_DOEPTSIZ_STUPCNT;
 3262              		.loc 1 1287 28 is_stmt 0 view .LVU1013
 3263 0024 D0F8104B 		ldr	r4, [r0, #2832]
 3264 0028 44F01804 		orr	r4, r4, #24
 3265 002c C0F8104B 		str	r4, [r0, #2832]
1288:Drivers/STM32F4xx_HAL_Driver/Src/stm32f4xx_ll_usb.c **** 
 3266              		.loc 1 1288 3 is_stmt 1 view .LVU1014
1288:Drivers/STM32F4xx_HAL_Driver/Src/stm32f4xx_ll_usb.c **** 
 3267              		.loc 1 1288 28 is_stmt 0 view .LVU1015
 3268 0030 D0F8104B 		ldr	r4, [r0, #2832]
ARM GAS  /tmp/ccrTWjYe.s 			page 98


 3269 0034 44F0C044 		orr	r4, r4, #1610612736
 3270 0038 C0F8104B 		str	r4, [r0, #2832]
1290:Drivers/STM32F4xx_HAL_Driver/Src/stm32f4xx_ll_usb.c ****   {
 3271              		.loc 1 1290 3 is_stmt 1 view .LVU1016
1290:Drivers/STM32F4xx_HAL_Driver/Src/stm32f4xx_ll_usb.c ****   {
 3272              		.loc 1 1290 6 is_stmt 0 view .LVU1017
 3273 003c 0129     		cmp	r1, #1
 3274 003e 03D0     		beq	.L210
 3275              	.L208:
1298:Drivers/STM32F4xx_HAL_Driver/Src/stm32f4xx_ll_usb.c **** 
 3276              		.loc 1 1298 1 view .LVU1018
 3277 0040 0020     		movs	r0, #0
 3278              	.LVL285:
1298:Drivers/STM32F4xx_HAL_Driver/Src/stm32f4xx_ll_usb.c **** 
 3279              		.loc 1 1298 1 view .LVU1019
 3280 0042 5DF8044B 		ldr	r4, [sp], #4
 3281              	.LCFI37:
 3282              		.cfi_remember_state
 3283              		.cfi_restore 4
 3284              		.cfi_def_cfa_offset 0
 3285 0046 7047     		bx	lr
 3286              	.LVL286:
 3287              	.L210:
 3288              	.LCFI38:
 3289              		.cfi_restore_state
1292:Drivers/STM32F4xx_HAL_Driver/Src/stm32f4xx_ll_usb.c ****     /* EP enable */
 3290              		.loc 1 1292 5 is_stmt 1 view .LVU1020
1292:Drivers/STM32F4xx_HAL_Driver/Src/stm32f4xx_ll_usb.c ****     /* EP enable */
 3291              		.loc 1 1292 29 is_stmt 0 view .LVU1021
 3292 0048 C0F8142B 		str	r2, [r0, #2836]
1294:Drivers/STM32F4xx_HAL_Driver/Src/stm32f4xx_ll_usb.c ****   }
 3293              		.loc 1 1294 5 is_stmt 1 view .LVU1022
1294:Drivers/STM32F4xx_HAL_Driver/Src/stm32f4xx_ll_usb.c ****   }
 3294              		.loc 1 1294 29 is_stmt 0 view .LVU1023
 3295 004c D0F8003B 		ldr	r3, [r0, #2816]
 3296 0050 43F08023 		orr	r3, r3, #-2147450880
 3297 0054 C0F8003B 		str	r3, [r0, #2816]
 3298 0058 F2E7     		b	.L208
 3299              	.L212:
 3300 005a 00BF     		.align	2
 3301              	.L211:
 3302 005c 0A30544F 		.word	1330917386
 3303              		.cfi_endproc
 3304              	.LFE162:
 3306              		.section	.text.USB_InitFSLSPClkSel,"ax",%progbits
 3307              		.align	1
 3308              		.global	USB_InitFSLSPClkSel
 3309              		.syntax unified
 3310              		.thumb
 3311              		.thumb_func
 3312              		.fpu fpv4-sp-d16
 3314              	USB_InitFSLSPClkSel:
 3315              	.LVL287:
 3316              	.LFB165:
1334:Drivers/STM32F4xx_HAL_Driver/Src/stm32f4xx_ll_usb.c **** 
1335:Drivers/STM32F4xx_HAL_Driver/Src/stm32f4xx_ll_usb.c **** /**
1336:Drivers/STM32F4xx_HAL_Driver/Src/stm32f4xx_ll_usb.c ****   * @brief  USB_HostInit : Initializes the USB OTG controller registers
ARM GAS  /tmp/ccrTWjYe.s 			page 99


1337:Drivers/STM32F4xx_HAL_Driver/Src/stm32f4xx_ll_usb.c ****   *         for Host mode
1338:Drivers/STM32F4xx_HAL_Driver/Src/stm32f4xx_ll_usb.c ****   * @param  USBx  Selected device
1339:Drivers/STM32F4xx_HAL_Driver/Src/stm32f4xx_ll_usb.c ****   * @param  cfg   pointer to a USB_OTG_CfgTypeDef structure that contains
1340:Drivers/STM32F4xx_HAL_Driver/Src/stm32f4xx_ll_usb.c ****   *         the configuration information for the specified USBx peripheral.
1341:Drivers/STM32F4xx_HAL_Driver/Src/stm32f4xx_ll_usb.c ****   * @retval HAL status
1342:Drivers/STM32F4xx_HAL_Driver/Src/stm32f4xx_ll_usb.c ****   */
1343:Drivers/STM32F4xx_HAL_Driver/Src/stm32f4xx_ll_usb.c **** HAL_StatusTypeDef USB_HostInit(USB_OTG_GlobalTypeDef *USBx, USB_OTG_CfgTypeDef cfg)
1344:Drivers/STM32F4xx_HAL_Driver/Src/stm32f4xx_ll_usb.c **** {
1345:Drivers/STM32F4xx_HAL_Driver/Src/stm32f4xx_ll_usb.c ****   uint32_t USBx_BASE = (uint32_t)USBx;
1346:Drivers/STM32F4xx_HAL_Driver/Src/stm32f4xx_ll_usb.c ****   uint32_t i;
1347:Drivers/STM32F4xx_HAL_Driver/Src/stm32f4xx_ll_usb.c **** 
1348:Drivers/STM32F4xx_HAL_Driver/Src/stm32f4xx_ll_usb.c ****   /* Restart the Phy Clock */
1349:Drivers/STM32F4xx_HAL_Driver/Src/stm32f4xx_ll_usb.c ****   USBx_PCGCCTL = 0U;
1350:Drivers/STM32F4xx_HAL_Driver/Src/stm32f4xx_ll_usb.c **** 
1351:Drivers/STM32F4xx_HAL_Driver/Src/stm32f4xx_ll_usb.c **** #if defined(STM32F446xx) || defined(STM32F469xx) || defined(STM32F479xx) || defined(STM32F412Zx) ||
1352:Drivers/STM32F4xx_HAL_Driver/Src/stm32f4xx_ll_usb.c ****   /* Disable HW VBUS sensing */
1353:Drivers/STM32F4xx_HAL_Driver/Src/stm32f4xx_ll_usb.c ****   USBx->GCCFG &= ~(USB_OTG_GCCFG_VBDEN);
1354:Drivers/STM32F4xx_HAL_Driver/Src/stm32f4xx_ll_usb.c **** #else
1355:Drivers/STM32F4xx_HAL_Driver/Src/stm32f4xx_ll_usb.c ****   /*
1356:Drivers/STM32F4xx_HAL_Driver/Src/stm32f4xx_ll_usb.c ****   * Disable HW VBUS sensing. VBUS is internally considered to be always
1357:Drivers/STM32F4xx_HAL_Driver/Src/stm32f4xx_ll_usb.c ****   * at VBUS-Valid level (5V).
1358:Drivers/STM32F4xx_HAL_Driver/Src/stm32f4xx_ll_usb.c ****   */
1359:Drivers/STM32F4xx_HAL_Driver/Src/stm32f4xx_ll_usb.c ****   USBx->GCCFG |= USB_OTG_GCCFG_NOVBUSSENS;
1360:Drivers/STM32F4xx_HAL_Driver/Src/stm32f4xx_ll_usb.c ****   USBx->GCCFG &= ~USB_OTG_GCCFG_VBUSBSEN;
1361:Drivers/STM32F4xx_HAL_Driver/Src/stm32f4xx_ll_usb.c ****   USBx->GCCFG &= ~USB_OTG_GCCFG_VBUSASEN;
1362:Drivers/STM32F4xx_HAL_Driver/Src/stm32f4xx_ll_usb.c **** #endif /* defined(STM32F446xx) || defined(STM32F469xx) || defined(STM32F479xx) || defined(STM32F412
1363:Drivers/STM32F4xx_HAL_Driver/Src/stm32f4xx_ll_usb.c **** #if defined(STM32F412Zx) || defined(STM32F412Vx) || defined(STM32F412Rx) || defined(STM32F412Cx) ||
1364:Drivers/STM32F4xx_HAL_Driver/Src/stm32f4xx_ll_usb.c ****   /* Disable Battery chargin detector */
1365:Drivers/STM32F4xx_HAL_Driver/Src/stm32f4xx_ll_usb.c ****   USBx->GCCFG &= ~(USB_OTG_GCCFG_BCDEN);
1366:Drivers/STM32F4xx_HAL_Driver/Src/stm32f4xx_ll_usb.c **** #endif /* defined(STM32F412Zx) || defined(STM32F412Vx) || defined(STM32F412Rx) || defined(STM32F412
1367:Drivers/STM32F4xx_HAL_Driver/Src/stm32f4xx_ll_usb.c **** 
1368:Drivers/STM32F4xx_HAL_Driver/Src/stm32f4xx_ll_usb.c ****   if ((USBx->CID & (0x1U << 8)) != 0U)
1369:Drivers/STM32F4xx_HAL_Driver/Src/stm32f4xx_ll_usb.c ****   {
1370:Drivers/STM32F4xx_HAL_Driver/Src/stm32f4xx_ll_usb.c ****     if (cfg.speed == USB_OTG_SPEED_FULL)
1371:Drivers/STM32F4xx_HAL_Driver/Src/stm32f4xx_ll_usb.c ****     {
1372:Drivers/STM32F4xx_HAL_Driver/Src/stm32f4xx_ll_usb.c ****       /* Force Device Enumeration to FS/LS mode only */
1373:Drivers/STM32F4xx_HAL_Driver/Src/stm32f4xx_ll_usb.c ****       USBx_HOST->HCFG |= USB_OTG_HCFG_FSLSS;
1374:Drivers/STM32F4xx_HAL_Driver/Src/stm32f4xx_ll_usb.c ****     }
1375:Drivers/STM32F4xx_HAL_Driver/Src/stm32f4xx_ll_usb.c ****     else
1376:Drivers/STM32F4xx_HAL_Driver/Src/stm32f4xx_ll_usb.c ****     {
1377:Drivers/STM32F4xx_HAL_Driver/Src/stm32f4xx_ll_usb.c ****       /* Set default Max speed support */
1378:Drivers/STM32F4xx_HAL_Driver/Src/stm32f4xx_ll_usb.c ****       USBx_HOST->HCFG &= ~(USB_OTG_HCFG_FSLSS);
1379:Drivers/STM32F4xx_HAL_Driver/Src/stm32f4xx_ll_usb.c ****     }
1380:Drivers/STM32F4xx_HAL_Driver/Src/stm32f4xx_ll_usb.c ****   }
1381:Drivers/STM32F4xx_HAL_Driver/Src/stm32f4xx_ll_usb.c ****   else
1382:Drivers/STM32F4xx_HAL_Driver/Src/stm32f4xx_ll_usb.c ****   {
1383:Drivers/STM32F4xx_HAL_Driver/Src/stm32f4xx_ll_usb.c ****     /* Set default Max speed support */
1384:Drivers/STM32F4xx_HAL_Driver/Src/stm32f4xx_ll_usb.c ****     USBx_HOST->HCFG &= ~(USB_OTG_HCFG_FSLSS);
1385:Drivers/STM32F4xx_HAL_Driver/Src/stm32f4xx_ll_usb.c ****   }
1386:Drivers/STM32F4xx_HAL_Driver/Src/stm32f4xx_ll_usb.c **** 
1387:Drivers/STM32F4xx_HAL_Driver/Src/stm32f4xx_ll_usb.c ****   /* Make sure the FIFOs are flushed. */
1388:Drivers/STM32F4xx_HAL_Driver/Src/stm32f4xx_ll_usb.c ****   (void)USB_FlushTxFifo(USBx, 0x10U); /* all Tx FIFOs */
1389:Drivers/STM32F4xx_HAL_Driver/Src/stm32f4xx_ll_usb.c ****   (void)USB_FlushRxFifo(USBx);
1390:Drivers/STM32F4xx_HAL_Driver/Src/stm32f4xx_ll_usb.c **** 
1391:Drivers/STM32F4xx_HAL_Driver/Src/stm32f4xx_ll_usb.c ****   /* Clear all pending HC Interrupts */
1392:Drivers/STM32F4xx_HAL_Driver/Src/stm32f4xx_ll_usb.c ****   for (i = 0U; i < cfg.Host_channels; i++)
1393:Drivers/STM32F4xx_HAL_Driver/Src/stm32f4xx_ll_usb.c ****   {
ARM GAS  /tmp/ccrTWjYe.s 			page 100


1394:Drivers/STM32F4xx_HAL_Driver/Src/stm32f4xx_ll_usb.c ****     USBx_HC(i)->HCINT = 0xFFFFFFFFU;
1395:Drivers/STM32F4xx_HAL_Driver/Src/stm32f4xx_ll_usb.c ****     USBx_HC(i)->HCINTMSK = 0U;
1396:Drivers/STM32F4xx_HAL_Driver/Src/stm32f4xx_ll_usb.c ****   }
1397:Drivers/STM32F4xx_HAL_Driver/Src/stm32f4xx_ll_usb.c **** 
1398:Drivers/STM32F4xx_HAL_Driver/Src/stm32f4xx_ll_usb.c ****   /* Enable VBUS driving */
1399:Drivers/STM32F4xx_HAL_Driver/Src/stm32f4xx_ll_usb.c ****   (void)USB_DriveVbus(USBx, 1U);
1400:Drivers/STM32F4xx_HAL_Driver/Src/stm32f4xx_ll_usb.c **** 
1401:Drivers/STM32F4xx_HAL_Driver/Src/stm32f4xx_ll_usb.c ****   HAL_Delay(200U);
1402:Drivers/STM32F4xx_HAL_Driver/Src/stm32f4xx_ll_usb.c **** 
1403:Drivers/STM32F4xx_HAL_Driver/Src/stm32f4xx_ll_usb.c ****   /* Disable all interrupts. */
1404:Drivers/STM32F4xx_HAL_Driver/Src/stm32f4xx_ll_usb.c ****   USBx->GINTMSK = 0U;
1405:Drivers/STM32F4xx_HAL_Driver/Src/stm32f4xx_ll_usb.c **** 
1406:Drivers/STM32F4xx_HAL_Driver/Src/stm32f4xx_ll_usb.c ****   /* Clear any pending interrupts */
1407:Drivers/STM32F4xx_HAL_Driver/Src/stm32f4xx_ll_usb.c ****   USBx->GINTSTS = 0xFFFFFFFFU;
1408:Drivers/STM32F4xx_HAL_Driver/Src/stm32f4xx_ll_usb.c **** 
1409:Drivers/STM32F4xx_HAL_Driver/Src/stm32f4xx_ll_usb.c ****   if ((USBx->CID & (0x1U << 8)) != 0U)
1410:Drivers/STM32F4xx_HAL_Driver/Src/stm32f4xx_ll_usb.c ****   {
1411:Drivers/STM32F4xx_HAL_Driver/Src/stm32f4xx_ll_usb.c ****     /* set Rx FIFO size */
1412:Drivers/STM32F4xx_HAL_Driver/Src/stm32f4xx_ll_usb.c ****     USBx->GRXFSIZ  = 0x200U;
1413:Drivers/STM32F4xx_HAL_Driver/Src/stm32f4xx_ll_usb.c ****     USBx->DIEPTXF0_HNPTXFSIZ = (uint32_t)(((0x100U << 16) & USB_OTG_NPTXFD) | 0x200U);
1414:Drivers/STM32F4xx_HAL_Driver/Src/stm32f4xx_ll_usb.c ****     USBx->HPTXFSIZ = (uint32_t)(((0xE0U << 16) & USB_OTG_HPTXFSIZ_PTXFD) | 0x300U);
1415:Drivers/STM32F4xx_HAL_Driver/Src/stm32f4xx_ll_usb.c ****   }
1416:Drivers/STM32F4xx_HAL_Driver/Src/stm32f4xx_ll_usb.c ****   else
1417:Drivers/STM32F4xx_HAL_Driver/Src/stm32f4xx_ll_usb.c ****   {
1418:Drivers/STM32F4xx_HAL_Driver/Src/stm32f4xx_ll_usb.c ****     /* set Rx FIFO size */
1419:Drivers/STM32F4xx_HAL_Driver/Src/stm32f4xx_ll_usb.c ****     USBx->GRXFSIZ  = 0x80U;
1420:Drivers/STM32F4xx_HAL_Driver/Src/stm32f4xx_ll_usb.c ****     USBx->DIEPTXF0_HNPTXFSIZ = (uint32_t)(((0x60U << 16) & USB_OTG_NPTXFD) | 0x80U);
1421:Drivers/STM32F4xx_HAL_Driver/Src/stm32f4xx_ll_usb.c ****     USBx->HPTXFSIZ = (uint32_t)(((0x40U << 16)& USB_OTG_HPTXFSIZ_PTXFD) | 0xE0U);
1422:Drivers/STM32F4xx_HAL_Driver/Src/stm32f4xx_ll_usb.c ****   }
1423:Drivers/STM32F4xx_HAL_Driver/Src/stm32f4xx_ll_usb.c **** 
1424:Drivers/STM32F4xx_HAL_Driver/Src/stm32f4xx_ll_usb.c ****   /* Enable the common interrupts */
1425:Drivers/STM32F4xx_HAL_Driver/Src/stm32f4xx_ll_usb.c ****   if (cfg.dma_enable == 0U)
1426:Drivers/STM32F4xx_HAL_Driver/Src/stm32f4xx_ll_usb.c ****   {
1427:Drivers/STM32F4xx_HAL_Driver/Src/stm32f4xx_ll_usb.c ****     USBx->GINTMSK |= USB_OTG_GINTMSK_RXFLVLM;
1428:Drivers/STM32F4xx_HAL_Driver/Src/stm32f4xx_ll_usb.c ****   }
1429:Drivers/STM32F4xx_HAL_Driver/Src/stm32f4xx_ll_usb.c **** 
1430:Drivers/STM32F4xx_HAL_Driver/Src/stm32f4xx_ll_usb.c ****   /* Enable interrupts matching to the Host mode ONLY */
1431:Drivers/STM32F4xx_HAL_Driver/Src/stm32f4xx_ll_usb.c ****   USBx->GINTMSK |= (USB_OTG_GINTMSK_PRTIM            | USB_OTG_GINTMSK_HCIM | \
1432:Drivers/STM32F4xx_HAL_Driver/Src/stm32f4xx_ll_usb.c ****                     USB_OTG_GINTMSK_SOFM             | USB_OTG_GINTSTS_DISCINT | \
1433:Drivers/STM32F4xx_HAL_Driver/Src/stm32f4xx_ll_usb.c ****                     USB_OTG_GINTMSK_PXFRM_IISOOXFRM  | USB_OTG_GINTMSK_WUIM);
1434:Drivers/STM32F4xx_HAL_Driver/Src/stm32f4xx_ll_usb.c **** 
1435:Drivers/STM32F4xx_HAL_Driver/Src/stm32f4xx_ll_usb.c ****   return HAL_OK;
1436:Drivers/STM32F4xx_HAL_Driver/Src/stm32f4xx_ll_usb.c **** }
1437:Drivers/STM32F4xx_HAL_Driver/Src/stm32f4xx_ll_usb.c **** 
1438:Drivers/STM32F4xx_HAL_Driver/Src/stm32f4xx_ll_usb.c **** /**
1439:Drivers/STM32F4xx_HAL_Driver/Src/stm32f4xx_ll_usb.c ****   * @brief  USB_InitFSLSPClkSel : Initializes the FSLSPClkSel field of the
1440:Drivers/STM32F4xx_HAL_Driver/Src/stm32f4xx_ll_usb.c ****   *         HCFG register on the PHY type and set the right frame interval
1441:Drivers/STM32F4xx_HAL_Driver/Src/stm32f4xx_ll_usb.c ****   * @param  USBx  Selected device
1442:Drivers/STM32F4xx_HAL_Driver/Src/stm32f4xx_ll_usb.c ****   * @param  freq  clock frequency
1443:Drivers/STM32F4xx_HAL_Driver/Src/stm32f4xx_ll_usb.c ****   *          This parameter can be one of these values:
1444:Drivers/STM32F4xx_HAL_Driver/Src/stm32f4xx_ll_usb.c ****   *           HCFG_48_MHZ : Full Speed 48 MHz Clock
1445:Drivers/STM32F4xx_HAL_Driver/Src/stm32f4xx_ll_usb.c ****   *           HCFG_6_MHZ : Low Speed 6 MHz Clock
1446:Drivers/STM32F4xx_HAL_Driver/Src/stm32f4xx_ll_usb.c ****   * @retval HAL status
1447:Drivers/STM32F4xx_HAL_Driver/Src/stm32f4xx_ll_usb.c ****   */
1448:Drivers/STM32F4xx_HAL_Driver/Src/stm32f4xx_ll_usb.c **** HAL_StatusTypeDef USB_InitFSLSPClkSel(USB_OTG_GlobalTypeDef *USBx, uint8_t freq)
1449:Drivers/STM32F4xx_HAL_Driver/Src/stm32f4xx_ll_usb.c **** {
 3317              		.loc 1 1449 1 is_stmt 1 view -0
ARM GAS  /tmp/ccrTWjYe.s 			page 101


 3318              		.cfi_startproc
 3319              		@ args = 0, pretend = 0, frame = 0
 3320              		@ frame_needed = 0, uses_anonymous_args = 0
 3321              		@ link register save eliminated.
 3322              		.loc 1 1449 1 is_stmt 0 view .LVU1025
 3323 0000 10B4     		push	{r4}
 3324              	.LCFI39:
 3325              		.cfi_def_cfa_offset 4
 3326              		.cfi_offset 4, -4
1450:Drivers/STM32F4xx_HAL_Driver/Src/stm32f4xx_ll_usb.c ****   uint32_t USBx_BASE = (uint32_t)USBx;
 3327              		.loc 1 1450 3 is_stmt 1 view .LVU1026
 3328              	.LVL288:
1451:Drivers/STM32F4xx_HAL_Driver/Src/stm32f4xx_ll_usb.c **** 
1452:Drivers/STM32F4xx_HAL_Driver/Src/stm32f4xx_ll_usb.c ****   USBx_HOST->HCFG &= ~(USB_OTG_HCFG_FSLSPCS);
 3329              		.loc 1 1452 3 view .LVU1027
 3330              		.loc 1 1452 19 is_stmt 0 view .LVU1028
 3331 0002 00F58064 		add	r4, r0, #1024
 3332 0006 D0F80034 		ldr	r3, [r0, #1024]
 3333 000a 23F00303 		bic	r3, r3, #3
 3334 000e C0F80034 		str	r3, [r0, #1024]
1453:Drivers/STM32F4xx_HAL_Driver/Src/stm32f4xx_ll_usb.c ****   USBx_HOST->HCFG |= (uint32_t)freq & USB_OTG_HCFG_FSLSPCS;
 3335              		.loc 1 1453 3 is_stmt 1 view .LVU1029
 3336              		.loc 1 1453 19 is_stmt 0 view .LVU1030
 3337 0012 D0F80034 		ldr	r3, [r0, #1024]
 3338              		.loc 1 1453 37 view .LVU1031
 3339 0016 01F00302 		and	r2, r1, #3
 3340              		.loc 1 1453 19 view .LVU1032
 3341 001a 1343     		orrs	r3, r3, r2
 3342 001c C0F80034 		str	r3, [r0, #1024]
1454:Drivers/STM32F4xx_HAL_Driver/Src/stm32f4xx_ll_usb.c **** 
1455:Drivers/STM32F4xx_HAL_Driver/Src/stm32f4xx_ll_usb.c ****   if (freq == HCFG_48_MHZ)
 3343              		.loc 1 1455 3 is_stmt 1 view .LVU1033
 3344              		.loc 1 1455 6 is_stmt 0 view .LVU1034
 3345 0020 0129     		cmp	r1, #1
 3346 0022 05D0     		beq	.L217
1456:Drivers/STM32F4xx_HAL_Driver/Src/stm32f4xx_ll_usb.c ****   {
1457:Drivers/STM32F4xx_HAL_Driver/Src/stm32f4xx_ll_usb.c ****     USBx_HOST->HFIR = 48000U;
1458:Drivers/STM32F4xx_HAL_Driver/Src/stm32f4xx_ll_usb.c ****   }
1459:Drivers/STM32F4xx_HAL_Driver/Src/stm32f4xx_ll_usb.c ****   else if (freq == HCFG_6_MHZ)
 3347              		.loc 1 1459 8 is_stmt 1 view .LVU1035
 3348              		.loc 1 1459 11 is_stmt 0 view .LVU1036
 3349 0024 0229     		cmp	r1, #2
 3350 0026 07D0     		beq	.L218
 3351              	.L215:
1460:Drivers/STM32F4xx_HAL_Driver/Src/stm32f4xx_ll_usb.c ****   {
1461:Drivers/STM32F4xx_HAL_Driver/Src/stm32f4xx_ll_usb.c ****     USBx_HOST->HFIR = 6000U;
1462:Drivers/STM32F4xx_HAL_Driver/Src/stm32f4xx_ll_usb.c ****   }
1463:Drivers/STM32F4xx_HAL_Driver/Src/stm32f4xx_ll_usb.c ****   else
1464:Drivers/STM32F4xx_HAL_Driver/Src/stm32f4xx_ll_usb.c ****   {
1465:Drivers/STM32F4xx_HAL_Driver/Src/stm32f4xx_ll_usb.c ****     /* ... */
1466:Drivers/STM32F4xx_HAL_Driver/Src/stm32f4xx_ll_usb.c ****   }
 3352              		.loc 1 1466 3 is_stmt 1 view .LVU1037
1467:Drivers/STM32F4xx_HAL_Driver/Src/stm32f4xx_ll_usb.c **** 
1468:Drivers/STM32F4xx_HAL_Driver/Src/stm32f4xx_ll_usb.c ****   return HAL_OK;
 3353              		.loc 1 1468 3 view .LVU1038
1469:Drivers/STM32F4xx_HAL_Driver/Src/stm32f4xx_ll_usb.c **** }
 3354              		.loc 1 1469 1 is_stmt 0 view .LVU1039
ARM GAS  /tmp/ccrTWjYe.s 			page 102


 3355 0028 0020     		movs	r0, #0
 3356              	.LVL289:
 3357              		.loc 1 1469 1 view .LVU1040
 3358 002a 5DF8044B 		ldr	r4, [sp], #4
 3359              	.LCFI40:
 3360              		.cfi_remember_state
 3361              		.cfi_restore 4
 3362              		.cfi_def_cfa_offset 0
 3363              	.LVL290:
 3364              		.loc 1 1469 1 view .LVU1041
 3365 002e 7047     		bx	lr
 3366              	.LVL291:
 3367              	.L217:
 3368              	.LCFI41:
 3369              		.cfi_restore_state
1457:Drivers/STM32F4xx_HAL_Driver/Src/stm32f4xx_ll_usb.c ****   }
 3370              		.loc 1 1457 5 is_stmt 1 view .LVU1042
1457:Drivers/STM32F4xx_HAL_Driver/Src/stm32f4xx_ll_usb.c ****   }
 3371              		.loc 1 1457 21 is_stmt 0 view .LVU1043
 3372 0030 4BF68033 		movw	r3, #48000
 3373 0034 6360     		str	r3, [r4, #4]
 3374 0036 F7E7     		b	.L215
 3375              	.L218:
1461:Drivers/STM32F4xx_HAL_Driver/Src/stm32f4xx_ll_usb.c ****   }
 3376              		.loc 1 1461 5 is_stmt 1 view .LVU1044
1461:Drivers/STM32F4xx_HAL_Driver/Src/stm32f4xx_ll_usb.c ****   }
 3377              		.loc 1 1461 21 is_stmt 0 view .LVU1045
 3378 0038 41F27073 		movw	r3, #6000
 3379 003c 6360     		str	r3, [r4, #4]
 3380 003e F3E7     		b	.L215
 3381              		.cfi_endproc
 3382              	.LFE165:
 3384              		.section	.text.USB_ResetPort,"ax",%progbits
 3385              		.align	1
 3386              		.global	USB_ResetPort
 3387              		.syntax unified
 3388              		.thumb
 3389              		.thumb_func
 3390              		.fpu fpv4-sp-d16
 3392              	USB_ResetPort:
 3393              	.LVL292:
 3394              	.LFB166:
1470:Drivers/STM32F4xx_HAL_Driver/Src/stm32f4xx_ll_usb.c **** 
1471:Drivers/STM32F4xx_HAL_Driver/Src/stm32f4xx_ll_usb.c **** /**
1472:Drivers/STM32F4xx_HAL_Driver/Src/stm32f4xx_ll_usb.c **** * @brief  USB_OTG_ResetPort : Reset Host Port
1473:Drivers/STM32F4xx_HAL_Driver/Src/stm32f4xx_ll_usb.c ****   * @param  USBx  Selected device
1474:Drivers/STM32F4xx_HAL_Driver/Src/stm32f4xx_ll_usb.c ****   * @retval HAL status
1475:Drivers/STM32F4xx_HAL_Driver/Src/stm32f4xx_ll_usb.c ****   * @note (1)The application must wait at least 10 ms
1476:Drivers/STM32F4xx_HAL_Driver/Src/stm32f4xx_ll_usb.c ****   *   before clearing the reset bit.
1477:Drivers/STM32F4xx_HAL_Driver/Src/stm32f4xx_ll_usb.c ****   */
1478:Drivers/STM32F4xx_HAL_Driver/Src/stm32f4xx_ll_usb.c **** HAL_StatusTypeDef USB_ResetPort(USB_OTG_GlobalTypeDef *USBx)
1479:Drivers/STM32F4xx_HAL_Driver/Src/stm32f4xx_ll_usb.c **** {
 3395              		.loc 1 1479 1 is_stmt 1 view -0
 3396              		.cfi_startproc
 3397              		@ args = 0, pretend = 0, frame = 8
 3398              		@ frame_needed = 0, uses_anonymous_args = 0
 3399              		.loc 1 1479 1 is_stmt 0 view .LVU1047
ARM GAS  /tmp/ccrTWjYe.s 			page 103


 3400 0000 30B5     		push	{r4, r5, lr}
 3401              	.LCFI42:
 3402              		.cfi_def_cfa_offset 12
 3403              		.cfi_offset 4, -12
 3404              		.cfi_offset 5, -8
 3405              		.cfi_offset 14, -4
 3406 0002 83B0     		sub	sp, sp, #12
 3407              	.LCFI43:
 3408              		.cfi_def_cfa_offset 24
 3409 0004 0446     		mov	r4, r0
1480:Drivers/STM32F4xx_HAL_Driver/Src/stm32f4xx_ll_usb.c ****   uint32_t USBx_BASE = (uint32_t)USBx;
 3410              		.loc 1 1480 3 is_stmt 1 view .LVU1048
 3411              	.LVL293:
1481:Drivers/STM32F4xx_HAL_Driver/Src/stm32f4xx_ll_usb.c **** 
1482:Drivers/STM32F4xx_HAL_Driver/Src/stm32f4xx_ll_usb.c ****   __IO uint32_t hprt0 = 0U;
 3412              		.loc 1 1482 3 view .LVU1049
 3413              		.loc 1 1482 17 is_stmt 0 view .LVU1050
 3414 0006 0025     		movs	r5, #0
 3415 0008 0195     		str	r5, [sp, #4]
1483:Drivers/STM32F4xx_HAL_Driver/Src/stm32f4xx_ll_usb.c **** 
1484:Drivers/STM32F4xx_HAL_Driver/Src/stm32f4xx_ll_usb.c ****   hprt0 = USBx_HPRT0;
 3416              		.loc 1 1484 3 is_stmt 1 view .LVU1051
 3417              		.loc 1 1484 11 is_stmt 0 view .LVU1052
 3418 000a D0F84034 		ldr	r3, [r0, #1088]
 3419              		.loc 1 1484 9 view .LVU1053
 3420 000e 0193     		str	r3, [sp, #4]
1485:Drivers/STM32F4xx_HAL_Driver/Src/stm32f4xx_ll_usb.c **** 
1486:Drivers/STM32F4xx_HAL_Driver/Src/stm32f4xx_ll_usb.c ****   hprt0 &= ~(USB_OTG_HPRT_PENA | USB_OTG_HPRT_PCDET |
 3421              		.loc 1 1486 3 is_stmt 1 view .LVU1054
 3422              		.loc 1 1486 9 is_stmt 0 view .LVU1055
 3423 0010 019B     		ldr	r3, [sp, #4]
 3424 0012 23F02E03 		bic	r3, r3, #46
 3425 0016 0193     		str	r3, [sp, #4]
1487:Drivers/STM32F4xx_HAL_Driver/Src/stm32f4xx_ll_usb.c ****              USB_OTG_HPRT_PENCHNG | USB_OTG_HPRT_POCCHNG);
1488:Drivers/STM32F4xx_HAL_Driver/Src/stm32f4xx_ll_usb.c **** 
1489:Drivers/STM32F4xx_HAL_Driver/Src/stm32f4xx_ll_usb.c ****   USBx_HPRT0 = (USB_OTG_HPRT_PRST | hprt0);
 3426              		.loc 1 1489 3 is_stmt 1 view .LVU1056
 3427              		.loc 1 1489 35 is_stmt 0 view .LVU1057
 3428 0018 019B     		ldr	r3, [sp, #4]
 3429 001a 43F48073 		orr	r3, r3, #256
 3430              		.loc 1 1489 14 view .LVU1058
 3431 001e C0F84034 		str	r3, [r0, #1088]
1490:Drivers/STM32F4xx_HAL_Driver/Src/stm32f4xx_ll_usb.c ****   HAL_Delay(100U);                                 /* See Note #1 */
 3432              		.loc 1 1490 3 is_stmt 1 view .LVU1059
 3433 0022 6420     		movs	r0, #100
 3434              	.LVL294:
 3435              		.loc 1 1490 3 is_stmt 0 view .LVU1060
 3436 0024 FFF7FEFF 		bl	HAL_Delay
 3437              	.LVL295:
1491:Drivers/STM32F4xx_HAL_Driver/Src/stm32f4xx_ll_usb.c ****   USBx_HPRT0 = ((~USB_OTG_HPRT_PRST) & hprt0);
 3438              		.loc 1 1491 3 is_stmt 1 view .LVU1061
 3439              		.loc 1 1491 38 is_stmt 0 view .LVU1062
 3440 0028 019B     		ldr	r3, [sp, #4]
 3441 002a 23F48073 		bic	r3, r3, #256
 3442              		.loc 1 1491 14 view .LVU1063
 3443 002e C4F84034 		str	r3, [r4, #1088]
1492:Drivers/STM32F4xx_HAL_Driver/Src/stm32f4xx_ll_usb.c ****   HAL_Delay(10U);
ARM GAS  /tmp/ccrTWjYe.s 			page 104


 3444              		.loc 1 1492 3 is_stmt 1 view .LVU1064
 3445 0032 0A20     		movs	r0, #10
 3446 0034 FFF7FEFF 		bl	HAL_Delay
 3447              	.LVL296:
1493:Drivers/STM32F4xx_HAL_Driver/Src/stm32f4xx_ll_usb.c **** 
1494:Drivers/STM32F4xx_HAL_Driver/Src/stm32f4xx_ll_usb.c ****   return HAL_OK;
 3448              		.loc 1 1494 3 view .LVU1065
1495:Drivers/STM32F4xx_HAL_Driver/Src/stm32f4xx_ll_usb.c **** }
 3449              		.loc 1 1495 1 is_stmt 0 view .LVU1066
 3450 0038 2846     		mov	r0, r5
 3451 003a 03B0     		add	sp, sp, #12
 3452              	.LCFI44:
 3453              		.cfi_def_cfa_offset 12
 3454              		@ sp needed
 3455 003c 30BD     		pop	{r4, r5, pc}
 3456              		.loc 1 1495 1 view .LVU1067
 3457              		.cfi_endproc
 3458              	.LFE166:
 3460              		.section	.text.USB_DriveVbus,"ax",%progbits
 3461              		.align	1
 3462              		.global	USB_DriveVbus
 3463              		.syntax unified
 3464              		.thumb
 3465              		.thumb_func
 3466              		.fpu fpv4-sp-d16
 3468              	USB_DriveVbus:
 3469              	.LVL297:
 3470              	.LFB167:
1496:Drivers/STM32F4xx_HAL_Driver/Src/stm32f4xx_ll_usb.c **** 
1497:Drivers/STM32F4xx_HAL_Driver/Src/stm32f4xx_ll_usb.c **** /**
1498:Drivers/STM32F4xx_HAL_Driver/Src/stm32f4xx_ll_usb.c ****   * @brief  USB_DriveVbus : activate or de-activate vbus
1499:Drivers/STM32F4xx_HAL_Driver/Src/stm32f4xx_ll_usb.c ****   * @param  state  VBUS state
1500:Drivers/STM32F4xx_HAL_Driver/Src/stm32f4xx_ll_usb.c ****   *          This parameter can be one of these values:
1501:Drivers/STM32F4xx_HAL_Driver/Src/stm32f4xx_ll_usb.c ****   *           0 : VBUS Active
1502:Drivers/STM32F4xx_HAL_Driver/Src/stm32f4xx_ll_usb.c ****   *           1 : VBUS Inactive
1503:Drivers/STM32F4xx_HAL_Driver/Src/stm32f4xx_ll_usb.c ****   * @retval HAL status
1504:Drivers/STM32F4xx_HAL_Driver/Src/stm32f4xx_ll_usb.c **** */
1505:Drivers/STM32F4xx_HAL_Driver/Src/stm32f4xx_ll_usb.c **** HAL_StatusTypeDef USB_DriveVbus(USB_OTG_GlobalTypeDef *USBx, uint8_t state)
1506:Drivers/STM32F4xx_HAL_Driver/Src/stm32f4xx_ll_usb.c **** {
 3471              		.loc 1 1506 1 is_stmt 1 view -0
 3472              		.cfi_startproc
 3473              		@ args = 0, pretend = 0, frame = 8
 3474              		@ frame_needed = 0, uses_anonymous_args = 0
 3475              		@ link register save eliminated.
 3476              		.loc 1 1506 1 is_stmt 0 view .LVU1069
 3477 0000 82B0     		sub	sp, sp, #8
 3478              	.LCFI45:
 3479              		.cfi_def_cfa_offset 8
1507:Drivers/STM32F4xx_HAL_Driver/Src/stm32f4xx_ll_usb.c ****   uint32_t USBx_BASE = (uint32_t)USBx;
 3480              		.loc 1 1507 3 is_stmt 1 view .LVU1070
 3481              	.LVL298:
1508:Drivers/STM32F4xx_HAL_Driver/Src/stm32f4xx_ll_usb.c ****   __IO uint32_t hprt0 = 0U;
 3482              		.loc 1 1508 3 view .LVU1071
 3483              		.loc 1 1508 17 is_stmt 0 view .LVU1072
 3484 0002 0023     		movs	r3, #0
 3485 0004 0193     		str	r3, [sp, #4]
1509:Drivers/STM32F4xx_HAL_Driver/Src/stm32f4xx_ll_usb.c **** 
ARM GAS  /tmp/ccrTWjYe.s 			page 105


1510:Drivers/STM32F4xx_HAL_Driver/Src/stm32f4xx_ll_usb.c ****   hprt0 = USBx_HPRT0;
 3486              		.loc 1 1510 3 is_stmt 1 view .LVU1073
 3487              		.loc 1 1510 11 is_stmt 0 view .LVU1074
 3488 0006 D0F84034 		ldr	r3, [r0, #1088]
 3489              		.loc 1 1510 9 view .LVU1075
 3490 000a 0193     		str	r3, [sp, #4]
1511:Drivers/STM32F4xx_HAL_Driver/Src/stm32f4xx_ll_usb.c **** 
1512:Drivers/STM32F4xx_HAL_Driver/Src/stm32f4xx_ll_usb.c ****   hprt0 &= ~(USB_OTG_HPRT_PENA | USB_OTG_HPRT_PCDET |
 3491              		.loc 1 1512 3 is_stmt 1 view .LVU1076
 3492              		.loc 1 1512 9 is_stmt 0 view .LVU1077
 3493 000c 019B     		ldr	r3, [sp, #4]
 3494 000e 23F02E03 		bic	r3, r3, #46
 3495 0012 0193     		str	r3, [sp, #4]
1513:Drivers/STM32F4xx_HAL_Driver/Src/stm32f4xx_ll_usb.c ****              USB_OTG_HPRT_PENCHNG | USB_OTG_HPRT_POCCHNG);
1514:Drivers/STM32F4xx_HAL_Driver/Src/stm32f4xx_ll_usb.c **** 
1515:Drivers/STM32F4xx_HAL_Driver/Src/stm32f4xx_ll_usb.c ****   if (((hprt0 & USB_OTG_HPRT_PPWR) == 0U) && (state == 1U))
 3496              		.loc 1 1515 3 is_stmt 1 view .LVU1078
 3497              		.loc 1 1515 15 is_stmt 0 view .LVU1079
 3498 0014 019B     		ldr	r3, [sp, #4]
 3499              		.loc 1 1515 6 view .LVU1080
 3500 0016 13F4805F 		tst	r3, #4096
 3501 001a 01D1     		bne	.L222
 3502              		.loc 1 1515 43 discriminator 1 view .LVU1081
 3503 001c 0129     		cmp	r1, #1
 3504 001e 0CD0     		beq	.L225
 3505              	.L222:
1516:Drivers/STM32F4xx_HAL_Driver/Src/stm32f4xx_ll_usb.c ****   {
1517:Drivers/STM32F4xx_HAL_Driver/Src/stm32f4xx_ll_usb.c ****     USBx_HPRT0 = (USB_OTG_HPRT_PPWR | hprt0);
1518:Drivers/STM32F4xx_HAL_Driver/Src/stm32f4xx_ll_usb.c ****   }
1519:Drivers/STM32F4xx_HAL_Driver/Src/stm32f4xx_ll_usb.c ****   if (((hprt0 & USB_OTG_HPRT_PPWR) == USB_OTG_HPRT_PPWR) && (state == 0U))
 3506              		.loc 1 1519 3 is_stmt 1 view .LVU1082
 3507              		.loc 1 1519 15 is_stmt 0 view .LVU1083
 3508 0020 019B     		ldr	r3, [sp, #4]
 3509              		.loc 1 1519 6 view .LVU1084
 3510 0022 13F4805F 		tst	r3, #4096
 3511 0026 05D0     		beq	.L223
 3512              		.loc 1 1519 58 discriminator 1 view .LVU1085
 3513 0028 21B9     		cbnz	r1, .L223
1520:Drivers/STM32F4xx_HAL_Driver/Src/stm32f4xx_ll_usb.c ****   {
1521:Drivers/STM32F4xx_HAL_Driver/Src/stm32f4xx_ll_usb.c ****     USBx_HPRT0 = ((~USB_OTG_HPRT_PPWR) & hprt0);
 3514              		.loc 1 1521 5 is_stmt 1 view .LVU1086
 3515              		.loc 1 1521 40 is_stmt 0 view .LVU1087
 3516 002a 019B     		ldr	r3, [sp, #4]
 3517 002c 23F48053 		bic	r3, r3, #4096
 3518              		.loc 1 1521 16 view .LVU1088
 3519 0030 C0F84034 		str	r3, [r0, #1088]
 3520              	.L223:
1522:Drivers/STM32F4xx_HAL_Driver/Src/stm32f4xx_ll_usb.c ****   }
1523:Drivers/STM32F4xx_HAL_Driver/Src/stm32f4xx_ll_usb.c ****   return HAL_OK;
 3521              		.loc 1 1523 3 is_stmt 1 view .LVU1089
1524:Drivers/STM32F4xx_HAL_Driver/Src/stm32f4xx_ll_usb.c **** }
 3522              		.loc 1 1524 1 is_stmt 0 view .LVU1090
 3523 0034 0020     		movs	r0, #0
 3524              	.LVL299:
 3525              		.loc 1 1524 1 view .LVU1091
 3526 0036 02B0     		add	sp, sp, #8
 3527              	.LCFI46:
ARM GAS  /tmp/ccrTWjYe.s 			page 106


 3528              		.cfi_remember_state
 3529              		.cfi_def_cfa_offset 0
 3530              		@ sp needed
 3531 0038 7047     		bx	lr
 3532              	.LVL300:
 3533              	.L225:
 3534              	.LCFI47:
 3535              		.cfi_restore_state
1517:Drivers/STM32F4xx_HAL_Driver/Src/stm32f4xx_ll_usb.c ****   }
 3536              		.loc 1 1517 5 is_stmt 1 view .LVU1092
1517:Drivers/STM32F4xx_HAL_Driver/Src/stm32f4xx_ll_usb.c ****   }
 3537              		.loc 1 1517 37 is_stmt 0 view .LVU1093
 3538 003a 019B     		ldr	r3, [sp, #4]
 3539 003c 43F48053 		orr	r3, r3, #4096
1517:Drivers/STM32F4xx_HAL_Driver/Src/stm32f4xx_ll_usb.c ****   }
 3540              		.loc 1 1517 16 view .LVU1094
 3541 0040 C0F84034 		str	r3, [r0, #1088]
 3542 0044 ECE7     		b	.L222
 3543              		.cfi_endproc
 3544              	.LFE167:
 3546              		.section	.text.USB_HostInit,"ax",%progbits
 3547              		.align	1
 3548              		.global	USB_HostInit
 3549              		.syntax unified
 3550              		.thumb
 3551              		.thumb_func
 3552              		.fpu fpv4-sp-d16
 3554              	USB_HostInit:
 3555              	.LVL301:
 3556              	.LFB164:
1344:Drivers/STM32F4xx_HAL_Driver/Src/stm32f4xx_ll_usb.c ****   uint32_t USBx_BASE = (uint32_t)USBx;
 3557              		.loc 1 1344 1 is_stmt 1 view -0
 3558              		.cfi_startproc
 3559              		@ args = 56, pretend = 16, frame = 0
 3560              		@ frame_needed = 0, uses_anonymous_args = 0
1344:Drivers/STM32F4xx_HAL_Driver/Src/stm32f4xx_ll_usb.c ****   uint32_t USBx_BASE = (uint32_t)USBx;
 3561              		.loc 1 1344 1 is_stmt 0 view .LVU1096
 3562 0000 84B0     		sub	sp, sp, #16
 3563              	.LCFI48:
 3564              		.cfi_def_cfa_offset 16
 3565 0002 38B5     		push	{r3, r4, r5, lr}
 3566              	.LCFI49:
 3567              		.cfi_def_cfa_offset 32
 3568              		.cfi_offset 3, -32
 3569              		.cfi_offset 4, -28
 3570              		.cfi_offset 5, -24
 3571              		.cfi_offset 14, -20
 3572 0004 0446     		mov	r4, r0
 3573 0006 05A8     		add	r0, sp, #20
 3574              	.LVL302:
1344:Drivers/STM32F4xx_HAL_Driver/Src/stm32f4xx_ll_usb.c ****   uint32_t USBx_BASE = (uint32_t)USBx;
 3575              		.loc 1 1344 1 view .LVU1097
 3576 0008 80E80E00 		stm	r0, {r1, r2, r3}
1345:Drivers/STM32F4xx_HAL_Driver/Src/stm32f4xx_ll_usb.c ****   uint32_t i;
 3577              		.loc 1 1345 3 is_stmt 1 view .LVU1098
1345:Drivers/STM32F4xx_HAL_Driver/Src/stm32f4xx_ll_usb.c ****   uint32_t i;
 3578              		.loc 1 1345 12 is_stmt 0 view .LVU1099
ARM GAS  /tmp/ccrTWjYe.s 			page 107


 3579 000c 2546     		mov	r5, r4
 3580              	.LVL303:
1346:Drivers/STM32F4xx_HAL_Driver/Src/stm32f4xx_ll_usb.c **** 
 3581              		.loc 1 1346 3 is_stmt 1 view .LVU1100
1349:Drivers/STM32F4xx_HAL_Driver/Src/stm32f4xx_ll_usb.c **** 
 3582              		.loc 1 1349 3 view .LVU1101
1349:Drivers/STM32F4xx_HAL_Driver/Src/stm32f4xx_ll_usb.c **** 
 3583              		.loc 1 1349 16 is_stmt 0 view .LVU1102
 3584 000e 0023     		movs	r3, #0
 3585 0010 C4F8003E 		str	r3, [r4, #3584]
1359:Drivers/STM32F4xx_HAL_Driver/Src/stm32f4xx_ll_usb.c ****   USBx->GCCFG &= ~USB_OTG_GCCFG_VBUSBSEN;
 3586              		.loc 1 1359 3 is_stmt 1 view .LVU1103
1359:Drivers/STM32F4xx_HAL_Driver/Src/stm32f4xx_ll_usb.c ****   USBx->GCCFG &= ~USB_OTG_GCCFG_VBUSBSEN;
 3587              		.loc 1 1359 15 is_stmt 0 view .LVU1104
 3588 0014 A36B     		ldr	r3, [r4, #56]
 3589 0016 43F40013 		orr	r3, r3, #2097152
 3590 001a A363     		str	r3, [r4, #56]
1360:Drivers/STM32F4xx_HAL_Driver/Src/stm32f4xx_ll_usb.c ****   USBx->GCCFG &= ~USB_OTG_GCCFG_VBUSASEN;
 3591              		.loc 1 1360 3 is_stmt 1 view .LVU1105
1360:Drivers/STM32F4xx_HAL_Driver/Src/stm32f4xx_ll_usb.c ****   USBx->GCCFG &= ~USB_OTG_GCCFG_VBUSASEN;
 3592              		.loc 1 1360 15 is_stmt 0 view .LVU1106
 3593 001c A36B     		ldr	r3, [r4, #56]
 3594 001e 23F40023 		bic	r3, r3, #524288
 3595 0022 A363     		str	r3, [r4, #56]
1361:Drivers/STM32F4xx_HAL_Driver/Src/stm32f4xx_ll_usb.c **** #endif /* defined(STM32F446xx) || defined(STM32F469xx) || defined(STM32F479xx) || defined(STM32F412
 3596              		.loc 1 1361 3 is_stmt 1 view .LVU1107
1361:Drivers/STM32F4xx_HAL_Driver/Src/stm32f4xx_ll_usb.c **** #endif /* defined(STM32F446xx) || defined(STM32F469xx) || defined(STM32F479xx) || defined(STM32F412
 3597              		.loc 1 1361 15 is_stmt 0 view .LVU1108
 3598 0024 A36B     		ldr	r3, [r4, #56]
 3599 0026 23F48023 		bic	r3, r3, #262144
 3600 002a A363     		str	r3, [r4, #56]
1368:Drivers/STM32F4xx_HAL_Driver/Src/stm32f4xx_ll_usb.c ****   {
 3601              		.loc 1 1368 3 is_stmt 1 view .LVU1109
1368:Drivers/STM32F4xx_HAL_Driver/Src/stm32f4xx_ll_usb.c ****   {
 3602              		.loc 1 1368 12 is_stmt 0 view .LVU1110
 3603 002c E36B     		ldr	r3, [r4, #60]
1368:Drivers/STM32F4xx_HAL_Driver/Src/stm32f4xx_ll_usb.c ****   {
 3604              		.loc 1 1368 6 view .LVU1111
 3605 002e 13F4807F 		tst	r3, #256
 3606 0032 10D0     		beq	.L227
1370:Drivers/STM32F4xx_HAL_Driver/Src/stm32f4xx_ll_usb.c ****     {
 3607              		.loc 1 1370 5 is_stmt 1 view .LVU1112
1370:Drivers/STM32F4xx_HAL_Driver/Src/stm32f4xx_ll_usb.c ****     {
 3608              		.loc 1 1370 12 is_stmt 0 view .LVU1113
 3609 0034 079B     		ldr	r3, [sp, #28]
1370:Drivers/STM32F4xx_HAL_Driver/Src/stm32f4xx_ll_usb.c ****     {
 3610              		.loc 1 1370 8 view .LVU1114
 3611 0036 032B     		cmp	r3, #3
 3612 0038 06D0     		beq	.L236
1378:Drivers/STM32F4xx_HAL_Driver/Src/stm32f4xx_ll_usb.c ****     }
 3613              		.loc 1 1378 7 is_stmt 1 view .LVU1115
1378:Drivers/STM32F4xx_HAL_Driver/Src/stm32f4xx_ll_usb.c ****     }
 3614              		.loc 1 1378 23 is_stmt 0 view .LVU1116
 3615 003a D4F80034 		ldr	r3, [r4, #1024]
 3616 003e 23F00403 		bic	r3, r3, #4
 3617 0042 C4F80034 		str	r3, [r4, #1024]
 3618 0046 0CE0     		b	.L229
ARM GAS  /tmp/ccrTWjYe.s 			page 108


 3619              	.L236:
1373:Drivers/STM32F4xx_HAL_Driver/Src/stm32f4xx_ll_usb.c ****     }
 3620              		.loc 1 1373 7 is_stmt 1 view .LVU1117
1373:Drivers/STM32F4xx_HAL_Driver/Src/stm32f4xx_ll_usb.c ****     }
 3621              		.loc 1 1373 23 is_stmt 0 view .LVU1118
 3622 0048 D4F80034 		ldr	r3, [r4, #1024]
 3623 004c 43F00403 		orr	r3, r3, #4
 3624 0050 C4F80034 		str	r3, [r4, #1024]
 3625 0054 05E0     		b	.L229
 3626              	.L227:
1384:Drivers/STM32F4xx_HAL_Driver/Src/stm32f4xx_ll_usb.c ****   }
 3627              		.loc 1 1384 5 is_stmt 1 view .LVU1119
1384:Drivers/STM32F4xx_HAL_Driver/Src/stm32f4xx_ll_usb.c ****   }
 3628              		.loc 1 1384 21 is_stmt 0 view .LVU1120
 3629 0056 D4F80034 		ldr	r3, [r4, #1024]
 3630 005a 23F00403 		bic	r3, r3, #4
 3631 005e C4F80034 		str	r3, [r4, #1024]
 3632              	.L229:
1388:Drivers/STM32F4xx_HAL_Driver/Src/stm32f4xx_ll_usb.c ****   (void)USB_FlushRxFifo(USBx);
 3633              		.loc 1 1388 3 is_stmt 1 view .LVU1121
1388:Drivers/STM32F4xx_HAL_Driver/Src/stm32f4xx_ll_usb.c ****   (void)USB_FlushRxFifo(USBx);
 3634              		.loc 1 1388 9 is_stmt 0 view .LVU1122
 3635 0062 1021     		movs	r1, #16
 3636 0064 2046     		mov	r0, r4
 3637 0066 FFF7FEFF 		bl	USB_FlushTxFifo
 3638              	.LVL304:
1389:Drivers/STM32F4xx_HAL_Driver/Src/stm32f4xx_ll_usb.c **** 
 3639              		.loc 1 1389 3 is_stmt 1 view .LVU1123
1389:Drivers/STM32F4xx_HAL_Driver/Src/stm32f4xx_ll_usb.c **** 
 3640              		.loc 1 1389 9 is_stmt 0 view .LVU1124
 3641 006a 2046     		mov	r0, r4
 3642 006c FFF7FEFF 		bl	USB_FlushRxFifo
 3643              	.LVL305:
1392:Drivers/STM32F4xx_HAL_Driver/Src/stm32f4xx_ll_usb.c ****   {
 3644              		.loc 1 1392 3 is_stmt 1 view .LVU1125
1392:Drivers/STM32F4xx_HAL_Driver/Src/stm32f4xx_ll_usb.c ****   {
 3645              		.loc 1 1392 10 is_stmt 0 view .LVU1126
 3646 0070 0022     		movs	r2, #0
 3647              	.LVL306:
 3648              	.L230:
1392:Drivers/STM32F4xx_HAL_Driver/Src/stm32f4xx_ll_usb.c ****   {
 3649              		.loc 1 1392 23 discriminator 1 view .LVU1127
 3650 0072 069B     		ldr	r3, [sp, #24]
1392:Drivers/STM32F4xx_HAL_Driver/Src/stm32f4xx_ll_usb.c ****   {
 3651              		.loc 1 1392 3 discriminator 1 view .LVU1128
 3652 0074 9342     		cmp	r3, r2
 3653 0076 0AD9     		bls	.L237
1394:Drivers/STM32F4xx_HAL_Driver/Src/stm32f4xx_ll_usb.c ****     USBx_HC(i)->HCINTMSK = 0U;
 3654              		.loc 1 1394 5 is_stmt 1 discriminator 3 view .LVU1129
 3655 0078 05EB4213 		add	r3, r5, r2, lsl #5
1394:Drivers/STM32F4xx_HAL_Driver/Src/stm32f4xx_ll_usb.c ****     USBx_HC(i)->HCINTMSK = 0U;
 3656              		.loc 1 1394 23 is_stmt 0 discriminator 3 view .LVU1130
 3657 007c 4FF0FF31 		mov	r1, #-1
 3658 0080 C3F80815 		str	r1, [r3, #1288]
1395:Drivers/STM32F4xx_HAL_Driver/Src/stm32f4xx_ll_usb.c ****   }
 3659              		.loc 1 1395 5 is_stmt 1 discriminator 3 view .LVU1131
1395:Drivers/STM32F4xx_HAL_Driver/Src/stm32f4xx_ll_usb.c ****   }
ARM GAS  /tmp/ccrTWjYe.s 			page 109


 3660              		.loc 1 1395 26 is_stmt 0 discriminator 3 view .LVU1132
 3661 0084 0021     		movs	r1, #0
 3662 0086 C3F80C15 		str	r1, [r3, #1292]
1392:Drivers/STM32F4xx_HAL_Driver/Src/stm32f4xx_ll_usb.c ****   {
 3663              		.loc 1 1392 40 discriminator 3 view .LVU1133
 3664 008a 0132     		adds	r2, r2, #1
 3665              	.LVL307:
1392:Drivers/STM32F4xx_HAL_Driver/Src/stm32f4xx_ll_usb.c ****   {
 3666              		.loc 1 1392 40 discriminator 3 view .LVU1134
 3667 008c F1E7     		b	.L230
 3668              	.L237:
1399:Drivers/STM32F4xx_HAL_Driver/Src/stm32f4xx_ll_usb.c **** 
 3669              		.loc 1 1399 3 is_stmt 1 view .LVU1135
1399:Drivers/STM32F4xx_HAL_Driver/Src/stm32f4xx_ll_usb.c **** 
 3670              		.loc 1 1399 9 is_stmt 0 view .LVU1136
 3671 008e 0121     		movs	r1, #1
 3672 0090 2046     		mov	r0, r4
 3673 0092 FFF7FEFF 		bl	USB_DriveVbus
 3674              	.LVL308:
1401:Drivers/STM32F4xx_HAL_Driver/Src/stm32f4xx_ll_usb.c **** 
 3675              		.loc 1 1401 3 is_stmt 1 view .LVU1137
 3676 0096 C820     		movs	r0, #200
 3677 0098 FFF7FEFF 		bl	HAL_Delay
 3678              	.LVL309:
1404:Drivers/STM32F4xx_HAL_Driver/Src/stm32f4xx_ll_usb.c **** 
 3679              		.loc 1 1404 3 view .LVU1138
1404:Drivers/STM32F4xx_HAL_Driver/Src/stm32f4xx_ll_usb.c **** 
 3680              		.loc 1 1404 17 is_stmt 0 view .LVU1139
 3681 009c 0023     		movs	r3, #0
 3682 009e A361     		str	r3, [r4, #24]
1407:Drivers/STM32F4xx_HAL_Driver/Src/stm32f4xx_ll_usb.c **** 
 3683              		.loc 1 1407 3 is_stmt 1 view .LVU1140
1407:Drivers/STM32F4xx_HAL_Driver/Src/stm32f4xx_ll_usb.c **** 
 3684              		.loc 1 1407 17 is_stmt 0 view .LVU1141
 3685 00a0 4FF0FF33 		mov	r3, #-1
 3686 00a4 6361     		str	r3, [r4, #20]
1409:Drivers/STM32F4xx_HAL_Driver/Src/stm32f4xx_ll_usb.c ****   {
 3687              		.loc 1 1409 3 is_stmt 1 view .LVU1142
1409:Drivers/STM32F4xx_HAL_Driver/Src/stm32f4xx_ll_usb.c ****   {
 3688              		.loc 1 1409 12 is_stmt 0 view .LVU1143
 3689 00a6 E36B     		ldr	r3, [r4, #60]
1409:Drivers/STM32F4xx_HAL_Driver/Src/stm32f4xx_ll_usb.c ****   {
 3690              		.loc 1 1409 6 view .LVU1144
 3691 00a8 13F4807F 		tst	r3, #256
 3692 00ac 17D0     		beq	.L232
1412:Drivers/STM32F4xx_HAL_Driver/Src/stm32f4xx_ll_usb.c ****     USBx->DIEPTXF0_HNPTXFSIZ = (uint32_t)(((0x100U << 16) & USB_OTG_NPTXFD) | 0x200U);
 3693              		.loc 1 1412 5 is_stmt 1 view .LVU1145
1412:Drivers/STM32F4xx_HAL_Driver/Src/stm32f4xx_ll_usb.c ****     USBx->DIEPTXF0_HNPTXFSIZ = (uint32_t)(((0x100U << 16) & USB_OTG_NPTXFD) | 0x200U);
 3694              		.loc 1 1412 20 is_stmt 0 view .LVU1146
 3695 00ae 4FF40073 		mov	r3, #512
 3696 00b2 6362     		str	r3, [r4, #36]
1413:Drivers/STM32F4xx_HAL_Driver/Src/stm32f4xx_ll_usb.c ****     USBx->HPTXFSIZ = (uint32_t)(((0xE0U << 16) & USB_OTG_HPTXFSIZ_PTXFD) | 0x300U);
 3697              		.loc 1 1413 5 is_stmt 1 view .LVU1147
1413:Drivers/STM32F4xx_HAL_Driver/Src/stm32f4xx_ll_usb.c ****     USBx->HPTXFSIZ = (uint32_t)(((0xE0U << 16) & USB_OTG_HPTXFSIZ_PTXFD) | 0x300U);
 3698              		.loc 1 1413 30 is_stmt 0 view .LVU1148
 3699 00b4 03F18073 		add	r3, r3, #16777216
 3700 00b8 A362     		str	r3, [r4, #40]
ARM GAS  /tmp/ccrTWjYe.s 			page 110


1414:Drivers/STM32F4xx_HAL_Driver/Src/stm32f4xx_ll_usb.c ****   }
 3701              		.loc 1 1414 5 is_stmt 1 view .LVU1149
1414:Drivers/STM32F4xx_HAL_Driver/Src/stm32f4xx_ll_usb.c ****   }
 3702              		.loc 1 1414 20 is_stmt 0 view .LVU1150
 3703 00ba 0D4B     		ldr	r3, .L238
 3704 00bc C4F80031 		str	r3, [r4, #256]
 3705              	.L233:
1425:Drivers/STM32F4xx_HAL_Driver/Src/stm32f4xx_ll_usb.c ****   {
 3706              		.loc 1 1425 3 is_stmt 1 view .LVU1151
1425:Drivers/STM32F4xx_HAL_Driver/Src/stm32f4xx_ll_usb.c ****   {
 3707              		.loc 1 1425 10 is_stmt 0 view .LVU1152
 3708 00c0 089B     		ldr	r3, [sp, #32]
1425:Drivers/STM32F4xx_HAL_Driver/Src/stm32f4xx_ll_usb.c ****   {
 3709              		.loc 1 1425 6 view .LVU1153
 3710 00c2 1BB9     		cbnz	r3, .L234
1427:Drivers/STM32F4xx_HAL_Driver/Src/stm32f4xx_ll_usb.c ****   }
 3711              		.loc 1 1427 5 is_stmt 1 view .LVU1154
1427:Drivers/STM32F4xx_HAL_Driver/Src/stm32f4xx_ll_usb.c ****   }
 3712              		.loc 1 1427 19 is_stmt 0 view .LVU1155
 3713 00c4 A369     		ldr	r3, [r4, #24]
 3714 00c6 43F01003 		orr	r3, r3, #16
 3715 00ca A361     		str	r3, [r4, #24]
 3716              	.L234:
1431:Drivers/STM32F4xx_HAL_Driver/Src/stm32f4xx_ll_usb.c ****                     USB_OTG_GINTMSK_SOFM             | USB_OTG_GINTSTS_DISCINT | \
 3717              		.loc 1 1431 3 is_stmt 1 view .LVU1156
1431:Drivers/STM32F4xx_HAL_Driver/Src/stm32f4xx_ll_usb.c ****                     USB_OTG_GINTMSK_SOFM             | USB_OTG_GINTSTS_DISCINT | \
 3718              		.loc 1 1431 17 is_stmt 0 view .LVU1157
 3719 00cc A269     		ldr	r2, [r4, #24]
 3720 00ce 094B     		ldr	r3, .L238+4
 3721 00d0 1343     		orrs	r3, r3, r2
 3722 00d2 A361     		str	r3, [r4, #24]
1435:Drivers/STM32F4xx_HAL_Driver/Src/stm32f4xx_ll_usb.c **** }
 3723              		.loc 1 1435 3 is_stmt 1 view .LVU1158
1436:Drivers/STM32F4xx_HAL_Driver/Src/stm32f4xx_ll_usb.c **** 
 3724              		.loc 1 1436 1 is_stmt 0 view .LVU1159
 3725 00d4 0020     		movs	r0, #0
 3726 00d6 BDE83840 		pop	{r3, r4, r5, lr}
 3727              	.LCFI50:
 3728              		.cfi_remember_state
 3729              		.cfi_restore 14
 3730              		.cfi_restore 5
 3731              		.cfi_restore 4
 3732              		.cfi_restore 3
 3733              		.cfi_def_cfa_offset 16
 3734              	.LVL310:
1436:Drivers/STM32F4xx_HAL_Driver/Src/stm32f4xx_ll_usb.c **** 
 3735              		.loc 1 1436 1 view .LVU1160
 3736 00da 04B0     		add	sp, sp, #16
 3737              	.LCFI51:
 3738              		.cfi_def_cfa_offset 0
 3739 00dc 7047     		bx	lr
 3740              	.LVL311:
 3741              	.L232:
 3742              	.LCFI52:
 3743              		.cfi_restore_state
1419:Drivers/STM32F4xx_HAL_Driver/Src/stm32f4xx_ll_usb.c ****     USBx->DIEPTXF0_HNPTXFSIZ = (uint32_t)(((0x60U << 16) & USB_OTG_NPTXFD) | 0x80U);
 3744              		.loc 1 1419 5 is_stmt 1 view .LVU1161
ARM GAS  /tmp/ccrTWjYe.s 			page 111


1419:Drivers/STM32F4xx_HAL_Driver/Src/stm32f4xx_ll_usb.c ****     USBx->DIEPTXF0_HNPTXFSIZ = (uint32_t)(((0x60U << 16) & USB_OTG_NPTXFD) | 0x80U);
 3745              		.loc 1 1419 20 is_stmt 0 view .LVU1162
 3746 00de 8023     		movs	r3, #128
 3747 00e0 6362     		str	r3, [r4, #36]
1420:Drivers/STM32F4xx_HAL_Driver/Src/stm32f4xx_ll_usb.c ****     USBx->HPTXFSIZ = (uint32_t)(((0x40U << 16)& USB_OTG_HPTXFSIZ_PTXFD) | 0xE0U);
 3748              		.loc 1 1420 5 is_stmt 1 view .LVU1163
1420:Drivers/STM32F4xx_HAL_Driver/Src/stm32f4xx_ll_usb.c ****     USBx->HPTXFSIZ = (uint32_t)(((0x40U << 16)& USB_OTG_HPTXFSIZ_PTXFD) | 0xE0U);
 3749              		.loc 1 1420 30 is_stmt 0 view .LVU1164
 3750 00e2 03F5C003 		add	r3, r3, #6291456
 3751 00e6 A362     		str	r3, [r4, #40]
1421:Drivers/STM32F4xx_HAL_Driver/Src/stm32f4xx_ll_usb.c ****   }
 3752              		.loc 1 1421 5 is_stmt 1 view .LVU1165
1421:Drivers/STM32F4xx_HAL_Driver/Src/stm32f4xx_ll_usb.c ****   }
 3753              		.loc 1 1421 20 is_stmt 0 view .LVU1166
 3754 00e8 034B     		ldr	r3, .L238+8
 3755 00ea C4F80031 		str	r3, [r4, #256]
 3756 00ee E7E7     		b	.L233
 3757              	.L239:
 3758              		.align	2
 3759              	.L238:
 3760 00f0 0003E000 		.word	14680832
 3761 00f4 080020A3 		.word	-1558183928
 3762 00f8 E0004000 		.word	4194528
 3763              		.cfi_endproc
 3764              	.LFE164:
 3766              		.section	.text.USB_GetHostSpeed,"ax",%progbits
 3767              		.align	1
 3768              		.global	USB_GetHostSpeed
 3769              		.syntax unified
 3770              		.thumb
 3771              		.thumb_func
 3772              		.fpu fpv4-sp-d16
 3774              	USB_GetHostSpeed:
 3775              	.LVL312:
 3776              	.LFB168:
1525:Drivers/STM32F4xx_HAL_Driver/Src/stm32f4xx_ll_usb.c **** 
1526:Drivers/STM32F4xx_HAL_Driver/Src/stm32f4xx_ll_usb.c **** /**
1527:Drivers/STM32F4xx_HAL_Driver/Src/stm32f4xx_ll_usb.c ****   * @brief  Return Host Core speed
1528:Drivers/STM32F4xx_HAL_Driver/Src/stm32f4xx_ll_usb.c ****   * @param  USBx  Selected device
1529:Drivers/STM32F4xx_HAL_Driver/Src/stm32f4xx_ll_usb.c ****   * @retval speed : Host speed
1530:Drivers/STM32F4xx_HAL_Driver/Src/stm32f4xx_ll_usb.c ****   *          This parameter can be one of these values:
1531:Drivers/STM32F4xx_HAL_Driver/Src/stm32f4xx_ll_usb.c ****   *            @arg HCD_SPEED_HIGH: High speed mode
1532:Drivers/STM32F4xx_HAL_Driver/Src/stm32f4xx_ll_usb.c ****   *            @arg HCD_SPEED_FULL: Full speed mode
1533:Drivers/STM32F4xx_HAL_Driver/Src/stm32f4xx_ll_usb.c ****   *            @arg HCD_SPEED_LOW: Low speed mode
1534:Drivers/STM32F4xx_HAL_Driver/Src/stm32f4xx_ll_usb.c ****   */
1535:Drivers/STM32F4xx_HAL_Driver/Src/stm32f4xx_ll_usb.c **** uint32_t USB_GetHostSpeed(USB_OTG_GlobalTypeDef *USBx)
1536:Drivers/STM32F4xx_HAL_Driver/Src/stm32f4xx_ll_usb.c **** {
 3777              		.loc 1 1536 1 is_stmt 1 view -0
 3778              		.cfi_startproc
 3779              		@ args = 0, pretend = 0, frame = 8
 3780              		@ frame_needed = 0, uses_anonymous_args = 0
 3781              		@ link register save eliminated.
 3782              		.loc 1 1536 1 is_stmt 0 view .LVU1168
 3783 0000 82B0     		sub	sp, sp, #8
 3784              	.LCFI53:
 3785              		.cfi_def_cfa_offset 8
1537:Drivers/STM32F4xx_HAL_Driver/Src/stm32f4xx_ll_usb.c ****   uint32_t USBx_BASE = (uint32_t)USBx;
ARM GAS  /tmp/ccrTWjYe.s 			page 112


 3786              		.loc 1 1537 3 is_stmt 1 view .LVU1169
 3787              	.LVL313:
1538:Drivers/STM32F4xx_HAL_Driver/Src/stm32f4xx_ll_usb.c ****   __IO uint32_t hprt0 = 0U;
 3788              		.loc 1 1538 3 view .LVU1170
 3789              		.loc 1 1538 17 is_stmt 0 view .LVU1171
 3790 0002 0023     		movs	r3, #0
 3791 0004 0193     		str	r3, [sp, #4]
1539:Drivers/STM32F4xx_HAL_Driver/Src/stm32f4xx_ll_usb.c **** 
1540:Drivers/STM32F4xx_HAL_Driver/Src/stm32f4xx_ll_usb.c ****   hprt0 = USBx_HPRT0;
 3792              		.loc 1 1540 3 is_stmt 1 view .LVU1172
 3793              		.loc 1 1540 11 is_stmt 0 view .LVU1173
 3794 0006 D0F84034 		ldr	r3, [r0, #1088]
 3795              		.loc 1 1540 9 view .LVU1174
 3796 000a 0193     		str	r3, [sp, #4]
1541:Drivers/STM32F4xx_HAL_Driver/Src/stm32f4xx_ll_usb.c ****   return ((hprt0 & USB_OTG_HPRT_PSPD) >> 17);
 3797              		.loc 1 1541 3 is_stmt 1 view .LVU1175
 3798              		.loc 1 1541 39 is_stmt 0 view .LVU1176
 3799 000c 0198     		ldr	r0, [sp, #4]
 3800              	.LVL314:
1542:Drivers/STM32F4xx_HAL_Driver/Src/stm32f4xx_ll_usb.c **** }
 3801              		.loc 1 1542 1 view .LVU1177
 3802 000e C0F34140 		ubfx	r0, r0, #17, #2
 3803 0012 02B0     		add	sp, sp, #8
 3804              	.LCFI54:
 3805              		.cfi_def_cfa_offset 0
 3806              		@ sp needed
 3807 0014 7047     		bx	lr
 3808              		.cfi_endproc
 3809              	.LFE168:
 3811              		.section	.text.USB_GetCurrentFrame,"ax",%progbits
 3812              		.align	1
 3813              		.global	USB_GetCurrentFrame
 3814              		.syntax unified
 3815              		.thumb
 3816              		.thumb_func
 3817              		.fpu fpv4-sp-d16
 3819              	USB_GetCurrentFrame:
 3820              	.LVL315:
 3821              	.LFB169:
1543:Drivers/STM32F4xx_HAL_Driver/Src/stm32f4xx_ll_usb.c **** 
1544:Drivers/STM32F4xx_HAL_Driver/Src/stm32f4xx_ll_usb.c **** /**
1545:Drivers/STM32F4xx_HAL_Driver/Src/stm32f4xx_ll_usb.c ****   * @brief  Return Host Current Frame number
1546:Drivers/STM32F4xx_HAL_Driver/Src/stm32f4xx_ll_usb.c ****   * @param  USBx  Selected device
1547:Drivers/STM32F4xx_HAL_Driver/Src/stm32f4xx_ll_usb.c ****   * @retval current frame number
1548:Drivers/STM32F4xx_HAL_Driver/Src/stm32f4xx_ll_usb.c **** */
1549:Drivers/STM32F4xx_HAL_Driver/Src/stm32f4xx_ll_usb.c **** uint32_t USB_GetCurrentFrame(USB_OTG_GlobalTypeDef *USBx)
1550:Drivers/STM32F4xx_HAL_Driver/Src/stm32f4xx_ll_usb.c **** {
 3822              		.loc 1 1550 1 is_stmt 1 view -0
 3823              		.cfi_startproc
 3824              		@ args = 0, pretend = 0, frame = 0
 3825              		@ frame_needed = 0, uses_anonymous_args = 0
 3826              		@ link register save eliminated.
1551:Drivers/STM32F4xx_HAL_Driver/Src/stm32f4xx_ll_usb.c ****   uint32_t USBx_BASE = (uint32_t)USBx;
 3827              		.loc 1 1551 3 view .LVU1179
1552:Drivers/STM32F4xx_HAL_Driver/Src/stm32f4xx_ll_usb.c **** 
1553:Drivers/STM32F4xx_HAL_Driver/Src/stm32f4xx_ll_usb.c ****   return (USBx_HOST->HFNUM & USB_OTG_HFNUM_FRNUM);
 3828              		.loc 1 1553 3 view .LVU1180
ARM GAS  /tmp/ccrTWjYe.s 			page 113


 3829              		.loc 1 1553 11 is_stmt 0 view .LVU1181
 3830 0000 00F58060 		add	r0, r0, #1024
 3831              	.LVL316:
 3832              		.loc 1 1553 20 view .LVU1182
 3833 0004 8068     		ldr	r0, [r0, #8]
 3834              	.LVL317:
1554:Drivers/STM32F4xx_HAL_Driver/Src/stm32f4xx_ll_usb.c **** }
 3835              		.loc 1 1554 1 view .LVU1183
 3836 0006 80B2     		uxth	r0, r0
 3837 0008 7047     		bx	lr
 3838              		.cfi_endproc
 3839              	.LFE169:
 3841              		.section	.text.USB_HC_Init,"ax",%progbits
 3842              		.align	1
 3843              		.global	USB_HC_Init
 3844              		.syntax unified
 3845              		.thumb
 3846              		.thumb_func
 3847              		.fpu fpv4-sp-d16
 3849              	USB_HC_Init:
 3850              	.LVL318:
 3851              	.LFB170:
1555:Drivers/STM32F4xx_HAL_Driver/Src/stm32f4xx_ll_usb.c **** 
1556:Drivers/STM32F4xx_HAL_Driver/Src/stm32f4xx_ll_usb.c **** /**
1557:Drivers/STM32F4xx_HAL_Driver/Src/stm32f4xx_ll_usb.c ****   * @brief  Initialize a host channel
1558:Drivers/STM32F4xx_HAL_Driver/Src/stm32f4xx_ll_usb.c ****   * @param  USBx  Selected device
1559:Drivers/STM32F4xx_HAL_Driver/Src/stm32f4xx_ll_usb.c ****   * @param  ch_num  Channel number
1560:Drivers/STM32F4xx_HAL_Driver/Src/stm32f4xx_ll_usb.c ****   *         This parameter can be a value from 1 to 15
1561:Drivers/STM32F4xx_HAL_Driver/Src/stm32f4xx_ll_usb.c ****   * @param  epnum  Endpoint number
1562:Drivers/STM32F4xx_HAL_Driver/Src/stm32f4xx_ll_usb.c ****   *          This parameter can be a value from 1 to 15
1563:Drivers/STM32F4xx_HAL_Driver/Src/stm32f4xx_ll_usb.c ****   * @param  dev_address  Current device address
1564:Drivers/STM32F4xx_HAL_Driver/Src/stm32f4xx_ll_usb.c ****   *          This parameter can be a value from 0 to 255
1565:Drivers/STM32F4xx_HAL_Driver/Src/stm32f4xx_ll_usb.c ****   * @param  speed  Current device speed
1566:Drivers/STM32F4xx_HAL_Driver/Src/stm32f4xx_ll_usb.c ****   *          This parameter can be one of these values:
1567:Drivers/STM32F4xx_HAL_Driver/Src/stm32f4xx_ll_usb.c ****   *            @arg USB_OTG_SPEED_HIGH: High speed mode
1568:Drivers/STM32F4xx_HAL_Driver/Src/stm32f4xx_ll_usb.c ****   *            @arg USB_OTG_SPEED_FULL: Full speed mode
1569:Drivers/STM32F4xx_HAL_Driver/Src/stm32f4xx_ll_usb.c ****   *            @arg USB_OTG_SPEED_LOW: Low speed mode
1570:Drivers/STM32F4xx_HAL_Driver/Src/stm32f4xx_ll_usb.c ****   * @param  ep_type  Endpoint Type
1571:Drivers/STM32F4xx_HAL_Driver/Src/stm32f4xx_ll_usb.c ****   *          This parameter can be one of these values:
1572:Drivers/STM32F4xx_HAL_Driver/Src/stm32f4xx_ll_usb.c ****   *            @arg EP_TYPE_CTRL: Control type
1573:Drivers/STM32F4xx_HAL_Driver/Src/stm32f4xx_ll_usb.c ****   *            @arg EP_TYPE_ISOC: Isochronous type
1574:Drivers/STM32F4xx_HAL_Driver/Src/stm32f4xx_ll_usb.c ****   *            @arg EP_TYPE_BULK: Bulk type
1575:Drivers/STM32F4xx_HAL_Driver/Src/stm32f4xx_ll_usb.c ****   *            @arg EP_TYPE_INTR: Interrupt type
1576:Drivers/STM32F4xx_HAL_Driver/Src/stm32f4xx_ll_usb.c ****   * @param  mps  Max Packet Size
1577:Drivers/STM32F4xx_HAL_Driver/Src/stm32f4xx_ll_usb.c ****   *          This parameter can be a value from 0 to32K
1578:Drivers/STM32F4xx_HAL_Driver/Src/stm32f4xx_ll_usb.c ****   * @retval HAL state
1579:Drivers/STM32F4xx_HAL_Driver/Src/stm32f4xx_ll_usb.c ****   */
1580:Drivers/STM32F4xx_HAL_Driver/Src/stm32f4xx_ll_usb.c **** HAL_StatusTypeDef USB_HC_Init(USB_OTG_GlobalTypeDef *USBx,
1581:Drivers/STM32F4xx_HAL_Driver/Src/stm32f4xx_ll_usb.c ****                               uint8_t ch_num,
1582:Drivers/STM32F4xx_HAL_Driver/Src/stm32f4xx_ll_usb.c ****                               uint8_t epnum,
1583:Drivers/STM32F4xx_HAL_Driver/Src/stm32f4xx_ll_usb.c ****                               uint8_t dev_address,
1584:Drivers/STM32F4xx_HAL_Driver/Src/stm32f4xx_ll_usb.c ****                               uint8_t speed,
1585:Drivers/STM32F4xx_HAL_Driver/Src/stm32f4xx_ll_usb.c ****                               uint8_t ep_type,
1586:Drivers/STM32F4xx_HAL_Driver/Src/stm32f4xx_ll_usb.c ****                               uint16_t mps)
1587:Drivers/STM32F4xx_HAL_Driver/Src/stm32f4xx_ll_usb.c **** {
 3852              		.loc 1 1587 1 is_stmt 1 view -0
 3853              		.cfi_startproc
ARM GAS  /tmp/ccrTWjYe.s 			page 114


 3854              		@ args = 12, pretend = 0, frame = 0
 3855              		@ frame_needed = 0, uses_anonymous_args = 0
 3856              		.loc 1 1587 1 is_stmt 0 view .LVU1185
 3857 0000 F0B5     		push	{r4, r5, r6, r7, lr}
 3858              	.LCFI55:
 3859              		.cfi_def_cfa_offset 20
 3860              		.cfi_offset 4, -20
 3861              		.cfi_offset 5, -16
 3862              		.cfi_offset 6, -12
 3863              		.cfi_offset 7, -8
 3864              		.cfi_offset 14, -4
 3865 0002 0646     		mov	r6, r0
 3866 0004 9DF81840 		ldrb	r4, [sp, #24]	@ zero_extendqisi2
1588:Drivers/STM32F4xx_HAL_Driver/Src/stm32f4xx_ll_usb.c ****   HAL_StatusTypeDef ret = HAL_OK;
 3867              		.loc 1 1588 3 is_stmt 1 view .LVU1186
 3868              	.LVL319:
1589:Drivers/STM32F4xx_HAL_Driver/Src/stm32f4xx_ll_usb.c ****   uint32_t USBx_BASE = (uint32_t)USBx;
 3869              		.loc 1 1589 3 view .LVU1187
1590:Drivers/STM32F4xx_HAL_Driver/Src/stm32f4xx_ll_usb.c ****   uint32_t HCcharEpDir, HCcharLowSpeed;
 3870              		.loc 1 1590 3 view .LVU1188
1591:Drivers/STM32F4xx_HAL_Driver/Src/stm32f4xx_ll_usb.c **** 
1592:Drivers/STM32F4xx_HAL_Driver/Src/stm32f4xx_ll_usb.c ****   /* Clear old interrupt conditions for this host channel. */
1593:Drivers/STM32F4xx_HAL_Driver/Src/stm32f4xx_ll_usb.c ****   USBx_HC((uint32_t)ch_num)->HCINT = 0xFFFFFFFFU;
 3871              		.loc 1 1593 3 view .LVU1189
 3872 0008 00EB4115 		add	r5, r0, r1, lsl #5
 3873 000c 05F5A060 		add	r0, r5, #1280
 3874              	.LVL320:
 3875              		.loc 1 1593 36 is_stmt 0 view .LVU1190
 3876 0010 4FF0FF37 		mov	r7, #-1
 3877 0014 8760     		str	r7, [r0, #8]
1594:Drivers/STM32F4xx_HAL_Driver/Src/stm32f4xx_ll_usb.c **** 
1595:Drivers/STM32F4xx_HAL_Driver/Src/stm32f4xx_ll_usb.c ****   /* Enable channel interrupts required for this transfer. */
1596:Drivers/STM32F4xx_HAL_Driver/Src/stm32f4xx_ll_usb.c ****   switch (ep_type)
 3878              		.loc 1 1596 3 is_stmt 1 view .LVU1191
 3879 0016 032C     		cmp	r4, #3
 3880 0018 65D8     		bhi	.L253
 3881 001a DFE804F0 		tbb	[pc, r4]
 3882              	.L246:
 3883 001e 02       		.byte	(.L247-.L246)/2
 3884 001f 56       		.byte	(.L248-.L246)/2
 3885 0020 02       		.byte	(.L247-.L246)/2
 3886 0021 18       		.byte	(.L245-.L246)/2
 3887              		.p2align 1
 3888              	.L247:
1597:Drivers/STM32F4xx_HAL_Driver/Src/stm32f4xx_ll_usb.c ****   {
1598:Drivers/STM32F4xx_HAL_Driver/Src/stm32f4xx_ll_usb.c ****     case EP_TYPE_CTRL:
1599:Drivers/STM32F4xx_HAL_Driver/Src/stm32f4xx_ll_usb.c ****     case EP_TYPE_BULK:
1600:Drivers/STM32F4xx_HAL_Driver/Src/stm32f4xx_ll_usb.c ****       USBx_HC((uint32_t)ch_num)->HCINTMSK = USB_OTG_HCINTMSK_XFRCM  |
 3889              		.loc 1 1600 7 view .LVU1192
 3890              		.loc 1 1600 43 is_stmt 0 view .LVU1193
 3891 0022 40F29D47 		movw	r7, #1181
 3892 0026 C760     		str	r7, [r0, #12]
1601:Drivers/STM32F4xx_HAL_Driver/Src/stm32f4xx_ll_usb.c ****                                             USB_OTG_HCINTMSK_STALLM |
1602:Drivers/STM32F4xx_HAL_Driver/Src/stm32f4xx_ll_usb.c ****                                             USB_OTG_HCINTMSK_TXERRM |
1603:Drivers/STM32F4xx_HAL_Driver/Src/stm32f4xx_ll_usb.c ****                                             USB_OTG_HCINTMSK_DTERRM |
1604:Drivers/STM32F4xx_HAL_Driver/Src/stm32f4xx_ll_usb.c ****                                             USB_OTG_HCINTMSK_AHBERR |
1605:Drivers/STM32F4xx_HAL_Driver/Src/stm32f4xx_ll_usb.c ****                                             USB_OTG_HCINTMSK_NAKM;
ARM GAS  /tmp/ccrTWjYe.s 			page 115


1606:Drivers/STM32F4xx_HAL_Driver/Src/stm32f4xx_ll_usb.c **** 
1607:Drivers/STM32F4xx_HAL_Driver/Src/stm32f4xx_ll_usb.c ****       if ((epnum & 0x80U) == 0x80U)
 3893              		.loc 1 1607 7 is_stmt 1 view .LVU1194
 3894              		.loc 1 1607 10 is_stmt 0 view .LVU1195
 3895 0028 12F0800F 		tst	r2, #128
 3896 002c 09D1     		bne	.L260
1608:Drivers/STM32F4xx_HAL_Driver/Src/stm32f4xx_ll_usb.c ****       {
1609:Drivers/STM32F4xx_HAL_Driver/Src/stm32f4xx_ll_usb.c ****         USBx_HC((uint32_t)ch_num)->HCINTMSK |= USB_OTG_HCINTMSK_BBERRM;
1610:Drivers/STM32F4xx_HAL_Driver/Src/stm32f4xx_ll_usb.c ****       }
1611:Drivers/STM32F4xx_HAL_Driver/Src/stm32f4xx_ll_usb.c ****       else
1612:Drivers/STM32F4xx_HAL_Driver/Src/stm32f4xx_ll_usb.c ****       {
1613:Drivers/STM32F4xx_HAL_Driver/Src/stm32f4xx_ll_usb.c ****         if ((USBx->CID & (0x1U << 8)) != 0U)
 3897              		.loc 1 1613 9 is_stmt 1 view .LVU1196
 3898              		.loc 1 1613 18 is_stmt 0 view .LVU1197
 3899 002e F76B     		ldr	r7, [r6, #60]
 3900              		.loc 1 1613 12 view .LVU1198
 3901 0030 17F4807F 		tst	r7, #256
 3902 0034 59D0     		beq	.L254
1614:Drivers/STM32F4xx_HAL_Driver/Src/stm32f4xx_ll_usb.c ****         {
1615:Drivers/STM32F4xx_HAL_Driver/Src/stm32f4xx_ll_usb.c ****           USBx_HC((uint32_t)ch_num)->HCINTMSK |= (USB_OTG_HCINTMSK_NYET | USB_OTG_HCINTMSK_ACKM);
 3903              		.loc 1 1615 11 is_stmt 1 view .LVU1199
 3904              		.loc 1 1615 47 is_stmt 0 view .LVU1200
 3905 0036 C768     		ldr	r7, [r0, #12]
 3906 0038 47F06007 		orr	r7, r7, #96
 3907 003c C760     		str	r7, [r0, #12]
1588:Drivers/STM32F4xx_HAL_Driver/Src/stm32f4xx_ll_usb.c ****   uint32_t USBx_BASE = (uint32_t)USBx;
 3908              		.loc 1 1588 21 view .LVU1201
 3909 003e 0020     		movs	r0, #0
 3910 0040 0CE0     		b	.L244
 3911              	.L260:
1609:Drivers/STM32F4xx_HAL_Driver/Src/stm32f4xx_ll_usb.c ****       }
 3912              		.loc 1 1609 9 is_stmt 1 view .LVU1202
1609:Drivers/STM32F4xx_HAL_Driver/Src/stm32f4xx_ll_usb.c ****       }
 3913              		.loc 1 1609 45 is_stmt 0 view .LVU1203
 3914 0042 C768     		ldr	r7, [r0, #12]
 3915 0044 47F48077 		orr	r7, r7, #256
 3916 0048 C760     		str	r7, [r0, #12]
1588:Drivers/STM32F4xx_HAL_Driver/Src/stm32f4xx_ll_usb.c ****   uint32_t USBx_BASE = (uint32_t)USBx;
 3917              		.loc 1 1588 21 view .LVU1204
 3918 004a 0020     		movs	r0, #0
 3919 004c 06E0     		b	.L244
 3920              	.L245:
1616:Drivers/STM32F4xx_HAL_Driver/Src/stm32f4xx_ll_usb.c ****         }
1617:Drivers/STM32F4xx_HAL_Driver/Src/stm32f4xx_ll_usb.c ****       }
1618:Drivers/STM32F4xx_HAL_Driver/Src/stm32f4xx_ll_usb.c ****       break;
1619:Drivers/STM32F4xx_HAL_Driver/Src/stm32f4xx_ll_usb.c **** 
1620:Drivers/STM32F4xx_HAL_Driver/Src/stm32f4xx_ll_usb.c ****     case EP_TYPE_INTR:
1621:Drivers/STM32F4xx_HAL_Driver/Src/stm32f4xx_ll_usb.c ****       USBx_HC((uint32_t)ch_num)->HCINTMSK = USB_OTG_HCINTMSK_XFRCM  |
 3921              		.loc 1 1621 7 is_stmt 1 view .LVU1205
 3922              		.loc 1 1621 43 is_stmt 0 view .LVU1206
 3923 004e 40F29D67 		movw	r7, #1693
 3924 0052 C760     		str	r7, [r0, #12]
1622:Drivers/STM32F4xx_HAL_Driver/Src/stm32f4xx_ll_usb.c ****                                             USB_OTG_HCINTMSK_STALLM |
1623:Drivers/STM32F4xx_HAL_Driver/Src/stm32f4xx_ll_usb.c ****                                             USB_OTG_HCINTMSK_TXERRM |
1624:Drivers/STM32F4xx_HAL_Driver/Src/stm32f4xx_ll_usb.c ****                                             USB_OTG_HCINTMSK_DTERRM |
1625:Drivers/STM32F4xx_HAL_Driver/Src/stm32f4xx_ll_usb.c ****                                             USB_OTG_HCINTMSK_NAKM   |
1626:Drivers/STM32F4xx_HAL_Driver/Src/stm32f4xx_ll_usb.c ****                                             USB_OTG_HCINTMSK_AHBERR |
ARM GAS  /tmp/ccrTWjYe.s 			page 116


1627:Drivers/STM32F4xx_HAL_Driver/Src/stm32f4xx_ll_usb.c ****                                             USB_OTG_HCINTMSK_FRMORM;
1628:Drivers/STM32F4xx_HAL_Driver/Src/stm32f4xx_ll_usb.c **** 
1629:Drivers/STM32F4xx_HAL_Driver/Src/stm32f4xx_ll_usb.c ****       if ((epnum & 0x80U) == 0x80U)
 3925              		.loc 1 1629 7 is_stmt 1 view .LVU1207
 3926              		.loc 1 1629 10 is_stmt 0 view .LVU1208
 3927 0054 12F0800F 		tst	r2, #128
 3928 0058 31D1     		bne	.L261
1588:Drivers/STM32F4xx_HAL_Driver/Src/stm32f4xx_ll_usb.c ****   uint32_t USBx_BASE = (uint32_t)USBx;
 3929              		.loc 1 1588 21 view .LVU1209
 3930 005a 0020     		movs	r0, #0
 3931              	.L244:
 3932              	.LVL321:
1630:Drivers/STM32F4xx_HAL_Driver/Src/stm32f4xx_ll_usb.c ****       {
1631:Drivers/STM32F4xx_HAL_Driver/Src/stm32f4xx_ll_usb.c ****         USBx_HC((uint32_t)ch_num)->HCINTMSK |= USB_OTG_HCINTMSK_BBERRM;
1632:Drivers/STM32F4xx_HAL_Driver/Src/stm32f4xx_ll_usb.c ****       }
1633:Drivers/STM32F4xx_HAL_Driver/Src/stm32f4xx_ll_usb.c **** 
1634:Drivers/STM32F4xx_HAL_Driver/Src/stm32f4xx_ll_usb.c ****       break;
1635:Drivers/STM32F4xx_HAL_Driver/Src/stm32f4xx_ll_usb.c **** 
1636:Drivers/STM32F4xx_HAL_Driver/Src/stm32f4xx_ll_usb.c ****     case EP_TYPE_ISOC:
1637:Drivers/STM32F4xx_HAL_Driver/Src/stm32f4xx_ll_usb.c ****       USBx_HC((uint32_t)ch_num)->HCINTMSK = USB_OTG_HCINTMSK_XFRCM  |
1638:Drivers/STM32F4xx_HAL_Driver/Src/stm32f4xx_ll_usb.c ****                                             USB_OTG_HCINTMSK_ACKM   |
1639:Drivers/STM32F4xx_HAL_Driver/Src/stm32f4xx_ll_usb.c ****                                             USB_OTG_HCINTMSK_AHBERR |
1640:Drivers/STM32F4xx_HAL_Driver/Src/stm32f4xx_ll_usb.c ****                                             USB_OTG_HCINTMSK_FRMORM;
1641:Drivers/STM32F4xx_HAL_Driver/Src/stm32f4xx_ll_usb.c **** 
1642:Drivers/STM32F4xx_HAL_Driver/Src/stm32f4xx_ll_usb.c ****       if ((epnum & 0x80U) == 0x80U)
1643:Drivers/STM32F4xx_HAL_Driver/Src/stm32f4xx_ll_usb.c ****       {
1644:Drivers/STM32F4xx_HAL_Driver/Src/stm32f4xx_ll_usb.c ****         USBx_HC((uint32_t)ch_num)->HCINTMSK |= (USB_OTG_HCINTMSK_TXERRM | USB_OTG_HCINTMSK_BBERRM);
1645:Drivers/STM32F4xx_HAL_Driver/Src/stm32f4xx_ll_usb.c ****       }
1646:Drivers/STM32F4xx_HAL_Driver/Src/stm32f4xx_ll_usb.c ****       break;
1647:Drivers/STM32F4xx_HAL_Driver/Src/stm32f4xx_ll_usb.c **** 
1648:Drivers/STM32F4xx_HAL_Driver/Src/stm32f4xx_ll_usb.c ****     default:
1649:Drivers/STM32F4xx_HAL_Driver/Src/stm32f4xx_ll_usb.c ****       ret = HAL_ERROR;
1650:Drivers/STM32F4xx_HAL_Driver/Src/stm32f4xx_ll_usb.c ****       break;
1651:Drivers/STM32F4xx_HAL_Driver/Src/stm32f4xx_ll_usb.c ****   }
1652:Drivers/STM32F4xx_HAL_Driver/Src/stm32f4xx_ll_usb.c **** 
1653:Drivers/STM32F4xx_HAL_Driver/Src/stm32f4xx_ll_usb.c ****   /* Enable the top level host channel interrupt. */
1654:Drivers/STM32F4xx_HAL_Driver/Src/stm32f4xx_ll_usb.c ****   USBx_HOST->HAINTMSK |= 1UL << (ch_num & 0xFU);
 3933              		.loc 1 1654 3 is_stmt 1 view .LVU1210
 3934              		.loc 1 1654 23 is_stmt 0 view .LVU1211
 3935 005c 06F5806E 		add	lr, r6, #1024
 3936 0060 D6F81874 		ldr	r7, [r6, #1048]
 3937              		.loc 1 1654 41 view .LVU1212
 3938 0064 01F00F01 		and	r1, r1, #15
 3939              	.LVL322:
 3940              		.loc 1 1654 30 view .LVU1213
 3941 0068 4FF0010C 		mov	ip, #1
 3942 006c 0CFA01F1 		lsl	r1, ip, r1
 3943              		.loc 1 1654 23 view .LVU1214
 3944 0070 0F43     		orrs	r7, r7, r1
 3945 0072 C6F81874 		str	r7, [r6, #1048]
1655:Drivers/STM32F4xx_HAL_Driver/Src/stm32f4xx_ll_usb.c **** 
1656:Drivers/STM32F4xx_HAL_Driver/Src/stm32f4xx_ll_usb.c ****   /* Make sure host channel interrupts are enabled. */
1657:Drivers/STM32F4xx_HAL_Driver/Src/stm32f4xx_ll_usb.c ****   USBx->GINTMSK |= USB_OTG_GINTMSK_HCIM;
 3946              		.loc 1 1657 3 is_stmt 1 view .LVU1215
 3947              		.loc 1 1657 17 is_stmt 0 view .LVU1216
 3948 0076 B169     		ldr	r1, [r6, #24]
 3949 0078 41F00071 		orr	r1, r1, #33554432
ARM GAS  /tmp/ccrTWjYe.s 			page 117


 3950 007c B161     		str	r1, [r6, #24]
1658:Drivers/STM32F4xx_HAL_Driver/Src/stm32f4xx_ll_usb.c **** 
1659:Drivers/STM32F4xx_HAL_Driver/Src/stm32f4xx_ll_usb.c ****   /* Program the HCCHAR register */
1660:Drivers/STM32F4xx_HAL_Driver/Src/stm32f4xx_ll_usb.c ****   if ((epnum & 0x80U) == 0x80U)
 3951              		.loc 1 1660 3 is_stmt 1 view .LVU1217
 3952              		.loc 1 1660 6 is_stmt 0 view .LVU1218
 3953 007e 12F0800F 		tst	r2, #128
 3954 0082 34D1     		bne	.L262
1661:Drivers/STM32F4xx_HAL_Driver/Src/stm32f4xx_ll_usb.c ****   {
1662:Drivers/STM32F4xx_HAL_Driver/Src/stm32f4xx_ll_usb.c ****     HCcharEpDir = (0x1U << 15) & USB_OTG_HCCHAR_EPDIR;
1663:Drivers/STM32F4xx_HAL_Driver/Src/stm32f4xx_ll_usb.c ****   }
1664:Drivers/STM32F4xx_HAL_Driver/Src/stm32f4xx_ll_usb.c ****   else
1665:Drivers/STM32F4xx_HAL_Driver/Src/stm32f4xx_ll_usb.c ****   {
1666:Drivers/STM32F4xx_HAL_Driver/Src/stm32f4xx_ll_usb.c ****     HCcharEpDir = 0U;
 3955              		.loc 1 1666 17 view .LVU1219
 3956 0084 0026     		movs	r6, #0
 3957              	.LVL323:
 3958              	.L250:
1667:Drivers/STM32F4xx_HAL_Driver/Src/stm32f4xx_ll_usb.c ****   }
1668:Drivers/STM32F4xx_HAL_Driver/Src/stm32f4xx_ll_usb.c **** 
1669:Drivers/STM32F4xx_HAL_Driver/Src/stm32f4xx_ll_usb.c ****   if (speed == HPRT0_PRTSPD_LOW_SPEED)
 3959              		.loc 1 1669 3 is_stmt 1 view .LVU1220
 3960              		.loc 1 1669 6 is_stmt 0 view .LVU1221
 3961 0086 9DF81410 		ldrb	r1, [sp, #20]	@ zero_extendqisi2
 3962 008a 0229     		cmp	r1, #2
 3963 008c 32D0     		beq	.L263
1670:Drivers/STM32F4xx_HAL_Driver/Src/stm32f4xx_ll_usb.c ****   {
1671:Drivers/STM32F4xx_HAL_Driver/Src/stm32f4xx_ll_usb.c ****     HCcharLowSpeed = (0x1U << 17) & USB_OTG_HCCHAR_LSDEV;
1672:Drivers/STM32F4xx_HAL_Driver/Src/stm32f4xx_ll_usb.c ****   }
1673:Drivers/STM32F4xx_HAL_Driver/Src/stm32f4xx_ll_usb.c ****   else
1674:Drivers/STM32F4xx_HAL_Driver/Src/stm32f4xx_ll_usb.c ****   {
1675:Drivers/STM32F4xx_HAL_Driver/Src/stm32f4xx_ll_usb.c ****     HCcharLowSpeed = 0U;
 3964              		.loc 1 1675 20 view .LVU1222
 3965 008e 0021     		movs	r1, #0
 3966              	.L251:
 3967              	.LVL324:
1676:Drivers/STM32F4xx_HAL_Driver/Src/stm32f4xx_ll_usb.c ****   }
1677:Drivers/STM32F4xx_HAL_Driver/Src/stm32f4xx_ll_usb.c **** 
1678:Drivers/STM32F4xx_HAL_Driver/Src/stm32f4xx_ll_usb.c ****   USBx_HC((uint32_t)ch_num)->HCCHAR = (((uint32_t)dev_address << 22) & USB_OTG_HCCHAR_DAD) |
 3968              		.loc 1 1678 3 is_stmt 1 view .LVU1223
 3969              		.loc 1 1678 63 is_stmt 0 view .LVU1224
 3970 0090 9B05     		lsls	r3, r3, #22
 3971              	.LVL325:
 3972              		.loc 1 1678 70 view .LVU1225
 3973 0092 03F0FE53 		and	r3, r3, #532676608
1679:Drivers/STM32F4xx_HAL_Driver/Src/stm32f4xx_ll_usb.c ****                                       ((((uint32_t)epnum & 0x7FU) << 11) & USB_OTG_HCCHAR_EPNUM) |
 3974              		.loc 1 1679 67 view .LVU1226
 3975 0096 D202     		lsls	r2, r2, #11
 3976              	.LVL326:
 3977              		.loc 1 1679 74 view .LVU1227
 3978 0098 02F4F042 		and	r2, r2, #30720
1678:Drivers/STM32F4xx_HAL_Driver/Src/stm32f4xx_ll_usb.c ****                                       ((((uint32_t)epnum & 0x7FU) << 11) & USB_OTG_HCCHAR_EPNUM) |
 3979              		.loc 1 1678 92 view .LVU1228
 3980 009c 1343     		orrs	r3, r3, r2
1680:Drivers/STM32F4xx_HAL_Driver/Src/stm32f4xx_ll_usb.c ****                                       (((uint32_t)ep_type << 18) & USB_OTG_HCCHAR_EPTYP) |
 3981              		.loc 1 1680 59 view .LVU1229
 3982 009e A204     		lsls	r2, r4, #18
ARM GAS  /tmp/ccrTWjYe.s 			page 118


 3983              		.loc 1 1680 66 view .LVU1230
 3984 00a0 02F44022 		and	r2, r2, #786432
1679:Drivers/STM32F4xx_HAL_Driver/Src/stm32f4xx_ll_usb.c ****                                       ((((uint32_t)epnum & 0x7FU) << 11) & USB_OTG_HCCHAR_EPNUM) |
 3985              		.loc 1 1679 98 view .LVU1231
 3986 00a4 1343     		orrs	r3, r3, r2
1681:Drivers/STM32F4xx_HAL_Driver/Src/stm32f4xx_ll_usb.c ****                                       ((uint32_t)mps & USB_OTG_HCCHAR_MPSIZ) | HCcharEpDir | HCchar
 3987              		.loc 1 1681 54 view .LVU1232
 3988 00a6 BDF81C20 		ldrh	r2, [sp, #28]
 3989 00aa C2F30A02 		ubfx	r2, r2, #0, #11
1680:Drivers/STM32F4xx_HAL_Driver/Src/stm32f4xx_ll_usb.c ****                                       (((uint32_t)ep_type << 18) & USB_OTG_HCCHAR_EPTYP) |
 3990              		.loc 1 1680 90 view .LVU1233
 3991 00ae 1343     		orrs	r3, r3, r2
 3992              		.loc 1 1681 78 view .LVU1234
 3993 00b0 3343     		orrs	r3, r3, r6
 3994              		.loc 1 1681 92 view .LVU1235
 3995 00b2 0B43     		orrs	r3, r3, r1
1678:Drivers/STM32F4xx_HAL_Driver/Src/stm32f4xx_ll_usb.c ****                                       ((((uint32_t)epnum & 0x7FU) << 11) & USB_OTG_HCCHAR_EPNUM) |
 3996              		.loc 1 1678 37 view .LVU1236
 3997 00b4 C5F80035 		str	r3, [r5, #1280]
1682:Drivers/STM32F4xx_HAL_Driver/Src/stm32f4xx_ll_usb.c **** 
1683:Drivers/STM32F4xx_HAL_Driver/Src/stm32f4xx_ll_usb.c ****   if (ep_type == EP_TYPE_INTR)
 3998              		.loc 1 1683 3 is_stmt 1 view .LVU1237
 3999              		.loc 1 1683 6 is_stmt 0 view .LVU1238
 4000 00b8 032C     		cmp	r4, #3
 4001 00ba 1ED0     		beq	.L264
 4002              	.L252:
1684:Drivers/STM32F4xx_HAL_Driver/Src/stm32f4xx_ll_usb.c ****   {
1685:Drivers/STM32F4xx_HAL_Driver/Src/stm32f4xx_ll_usb.c ****     USBx_HC((uint32_t)ch_num)->HCCHAR |= USB_OTG_HCCHAR_ODDFRM ;
1686:Drivers/STM32F4xx_HAL_Driver/Src/stm32f4xx_ll_usb.c ****   }
1687:Drivers/STM32F4xx_HAL_Driver/Src/stm32f4xx_ll_usb.c **** 
1688:Drivers/STM32F4xx_HAL_Driver/Src/stm32f4xx_ll_usb.c ****   return ret;
 4003              		.loc 1 1688 3 is_stmt 1 view .LVU1239
1689:Drivers/STM32F4xx_HAL_Driver/Src/stm32f4xx_ll_usb.c **** }
 4004              		.loc 1 1689 1 is_stmt 0 view .LVU1240
 4005 00bc F0BD     		pop	{r4, r5, r6, r7, pc}
 4006              	.LVL327:
 4007              	.L261:
1631:Drivers/STM32F4xx_HAL_Driver/Src/stm32f4xx_ll_usb.c ****       }
 4008              		.loc 1 1631 9 is_stmt 1 view .LVU1241
1631:Drivers/STM32F4xx_HAL_Driver/Src/stm32f4xx_ll_usb.c ****       }
 4009              		.loc 1 1631 45 is_stmt 0 view .LVU1242
 4010 00be C768     		ldr	r7, [r0, #12]
 4011 00c0 47F48077 		orr	r7, r7, #256
 4012 00c4 C760     		str	r7, [r0, #12]
1588:Drivers/STM32F4xx_HAL_Driver/Src/stm32f4xx_ll_usb.c ****   uint32_t USBx_BASE = (uint32_t)USBx;
 4013              		.loc 1 1588 21 view .LVU1243
 4014 00c6 0020     		movs	r0, #0
 4015 00c8 C8E7     		b	.L244
 4016              	.L248:
1637:Drivers/STM32F4xx_HAL_Driver/Src/stm32f4xx_ll_usb.c ****                                             USB_OTG_HCINTMSK_ACKM   |
 4017              		.loc 1 1637 7 is_stmt 1 view .LVU1244
1637:Drivers/STM32F4xx_HAL_Driver/Src/stm32f4xx_ll_usb.c ****                                             USB_OTG_HCINTMSK_ACKM   |
 4018              		.loc 1 1637 43 is_stmt 0 view .LVU1245
 4019 00ca 40F22527 		movw	r7, #549
 4020 00ce C760     		str	r7, [r0, #12]
1642:Drivers/STM32F4xx_HAL_Driver/Src/stm32f4xx_ll_usb.c ****       {
 4021              		.loc 1 1642 7 is_stmt 1 view .LVU1246
ARM GAS  /tmp/ccrTWjYe.s 			page 119


1642:Drivers/STM32F4xx_HAL_Driver/Src/stm32f4xx_ll_usb.c ****       {
 4022              		.loc 1 1642 10 is_stmt 0 view .LVU1247
 4023 00d0 12F0800F 		tst	r2, #128
 4024 00d4 01D1     		bne	.L265
1588:Drivers/STM32F4xx_HAL_Driver/Src/stm32f4xx_ll_usb.c ****   uint32_t USBx_BASE = (uint32_t)USBx;
 4025              		.loc 1 1588 21 view .LVU1248
 4026 00d6 0020     		movs	r0, #0
 4027 00d8 C0E7     		b	.L244
 4028              	.L265:
1644:Drivers/STM32F4xx_HAL_Driver/Src/stm32f4xx_ll_usb.c ****       }
 4029              		.loc 1 1644 9 is_stmt 1 view .LVU1249
1644:Drivers/STM32F4xx_HAL_Driver/Src/stm32f4xx_ll_usb.c ****       }
 4030              		.loc 1 1644 45 is_stmt 0 view .LVU1250
 4031 00da C768     		ldr	r7, [r0, #12]
 4032 00dc 47F4C077 		orr	r7, r7, #384
 4033 00e0 C760     		str	r7, [r0, #12]
1588:Drivers/STM32F4xx_HAL_Driver/Src/stm32f4xx_ll_usb.c ****   uint32_t USBx_BASE = (uint32_t)USBx;
 4034              		.loc 1 1588 21 view .LVU1251
 4035 00e2 0020     		movs	r0, #0
 4036 00e4 BAE7     		b	.L244
 4037              	.L253:
1649:Drivers/STM32F4xx_HAL_Driver/Src/stm32f4xx_ll_usb.c ****       break;
 4038              		.loc 1 1649 11 view .LVU1252
 4039 00e6 0120     		movs	r0, #1
 4040 00e8 B8E7     		b	.L244
 4041              	.L254:
1588:Drivers/STM32F4xx_HAL_Driver/Src/stm32f4xx_ll_usb.c ****   uint32_t USBx_BASE = (uint32_t)USBx;
 4042              		.loc 1 1588 21 view .LVU1253
 4043 00ea 0020     		movs	r0, #0
 4044 00ec B6E7     		b	.L244
 4045              	.LVL328:
 4046              	.L262:
1662:Drivers/STM32F4xx_HAL_Driver/Src/stm32f4xx_ll_usb.c ****   }
 4047              		.loc 1 1662 17 view .LVU1254
 4048 00ee 4FF40046 		mov	r6, #32768
 4049              	.LVL329:
1662:Drivers/STM32F4xx_HAL_Driver/Src/stm32f4xx_ll_usb.c ****   }
 4050              		.loc 1 1662 17 view .LVU1255
 4051 00f2 C8E7     		b	.L250
 4052              	.LVL330:
 4053              	.L263:
1671:Drivers/STM32F4xx_HAL_Driver/Src/stm32f4xx_ll_usb.c ****   }
 4054              		.loc 1 1671 20 view .LVU1256
 4055 00f4 4FF40031 		mov	r1, #131072
 4056 00f8 CAE7     		b	.L251
 4057              	.LVL331:
 4058              	.L264:
1685:Drivers/STM32F4xx_HAL_Driver/Src/stm32f4xx_ll_usb.c ****   }
 4059              		.loc 1 1685 5 is_stmt 1 view .LVU1257
1685:Drivers/STM32F4xx_HAL_Driver/Src/stm32f4xx_ll_usb.c ****   }
 4060              		.loc 1 1685 39 is_stmt 0 view .LVU1258
 4061 00fa D5F80035 		ldr	r3, [r5, #1280]
 4062 00fe 43F00053 		orr	r3, r3, #536870912
 4063 0102 C5F80035 		str	r3, [r5, #1280]
 4064 0106 D9E7     		b	.L252
 4065              		.cfi_endproc
 4066              	.LFE170:
ARM GAS  /tmp/ccrTWjYe.s 			page 120


 4068              		.section	.text.USB_HC_ReadInterrupt,"ax",%progbits
 4069              		.align	1
 4070              		.global	USB_HC_ReadInterrupt
 4071              		.syntax unified
 4072              		.thumb
 4073              		.thumb_func
 4074              		.fpu fpv4-sp-d16
 4076              	USB_HC_ReadInterrupt:
 4077              	.LVL332:
 4078              	.LFB172:
1690:Drivers/STM32F4xx_HAL_Driver/Src/stm32f4xx_ll_usb.c **** 
1691:Drivers/STM32F4xx_HAL_Driver/Src/stm32f4xx_ll_usb.c **** /**
1692:Drivers/STM32F4xx_HAL_Driver/Src/stm32f4xx_ll_usb.c ****   * @brief  Start a transfer over a host channel
1693:Drivers/STM32F4xx_HAL_Driver/Src/stm32f4xx_ll_usb.c ****   * @param  USBx  Selected device
1694:Drivers/STM32F4xx_HAL_Driver/Src/stm32f4xx_ll_usb.c ****   * @param  hc  pointer to host channel structure
1695:Drivers/STM32F4xx_HAL_Driver/Src/stm32f4xx_ll_usb.c ****   * @param  dma USB dma enabled or disabled
1696:Drivers/STM32F4xx_HAL_Driver/Src/stm32f4xx_ll_usb.c ****   *          This parameter can be one of these values:
1697:Drivers/STM32F4xx_HAL_Driver/Src/stm32f4xx_ll_usb.c ****   *           0 : DMA feature not used
1698:Drivers/STM32F4xx_HAL_Driver/Src/stm32f4xx_ll_usb.c ****   *           1 : DMA feature used
1699:Drivers/STM32F4xx_HAL_Driver/Src/stm32f4xx_ll_usb.c ****   * @retval HAL state
1700:Drivers/STM32F4xx_HAL_Driver/Src/stm32f4xx_ll_usb.c ****   */
1701:Drivers/STM32F4xx_HAL_Driver/Src/stm32f4xx_ll_usb.c **** HAL_StatusTypeDef USB_HC_StartXfer(USB_OTG_GlobalTypeDef *USBx, USB_OTG_HCTypeDef *hc, uint8_t dma)
1702:Drivers/STM32F4xx_HAL_Driver/Src/stm32f4xx_ll_usb.c **** {
1703:Drivers/STM32F4xx_HAL_Driver/Src/stm32f4xx_ll_usb.c ****   uint32_t USBx_BASE = (uint32_t)USBx;
1704:Drivers/STM32F4xx_HAL_Driver/Src/stm32f4xx_ll_usb.c ****   uint32_t ch_num = (uint32_t)hc->ch_num;
1705:Drivers/STM32F4xx_HAL_Driver/Src/stm32f4xx_ll_usb.c ****   static __IO uint32_t tmpreg = 0U;
1706:Drivers/STM32F4xx_HAL_Driver/Src/stm32f4xx_ll_usb.c ****   uint8_t  is_oddframe;
1707:Drivers/STM32F4xx_HAL_Driver/Src/stm32f4xx_ll_usb.c ****   uint16_t len_words;
1708:Drivers/STM32F4xx_HAL_Driver/Src/stm32f4xx_ll_usb.c ****   uint16_t num_packets;
1709:Drivers/STM32F4xx_HAL_Driver/Src/stm32f4xx_ll_usb.c ****   uint16_t max_hc_pkt_count = 256U;
1710:Drivers/STM32F4xx_HAL_Driver/Src/stm32f4xx_ll_usb.c **** 
1711:Drivers/STM32F4xx_HAL_Driver/Src/stm32f4xx_ll_usb.c ****   if (((USBx->CID & (0x1U << 8)) != 0U) && (hc->speed == USBH_HS_SPEED))
1712:Drivers/STM32F4xx_HAL_Driver/Src/stm32f4xx_ll_usb.c ****   {
1713:Drivers/STM32F4xx_HAL_Driver/Src/stm32f4xx_ll_usb.c ****     if ((dma == 0U) && (hc->do_ping == 1U))
1714:Drivers/STM32F4xx_HAL_Driver/Src/stm32f4xx_ll_usb.c ****     {
1715:Drivers/STM32F4xx_HAL_Driver/Src/stm32f4xx_ll_usb.c ****       (void)USB_DoPing(USBx, hc->ch_num);
1716:Drivers/STM32F4xx_HAL_Driver/Src/stm32f4xx_ll_usb.c ****       return HAL_OK;
1717:Drivers/STM32F4xx_HAL_Driver/Src/stm32f4xx_ll_usb.c ****     }
1718:Drivers/STM32F4xx_HAL_Driver/Src/stm32f4xx_ll_usb.c ****     else if (dma == 1U)
1719:Drivers/STM32F4xx_HAL_Driver/Src/stm32f4xx_ll_usb.c ****     {
1720:Drivers/STM32F4xx_HAL_Driver/Src/stm32f4xx_ll_usb.c ****       USBx_HC(ch_num)->HCINTMSK &= ~(USB_OTG_HCINTMSK_NYET | USB_OTG_HCINTMSK_ACKM);
1721:Drivers/STM32F4xx_HAL_Driver/Src/stm32f4xx_ll_usb.c ****       hc->do_ping = 0U;
1722:Drivers/STM32F4xx_HAL_Driver/Src/stm32f4xx_ll_usb.c ****     }
1723:Drivers/STM32F4xx_HAL_Driver/Src/stm32f4xx_ll_usb.c ****     else
1724:Drivers/STM32F4xx_HAL_Driver/Src/stm32f4xx_ll_usb.c ****     {
1725:Drivers/STM32F4xx_HAL_Driver/Src/stm32f4xx_ll_usb.c ****       /* ... */
1726:Drivers/STM32F4xx_HAL_Driver/Src/stm32f4xx_ll_usb.c ****     }
1727:Drivers/STM32F4xx_HAL_Driver/Src/stm32f4xx_ll_usb.c ****   }
1728:Drivers/STM32F4xx_HAL_Driver/Src/stm32f4xx_ll_usb.c **** 
1729:Drivers/STM32F4xx_HAL_Driver/Src/stm32f4xx_ll_usb.c ****   /* Compute the expected number of packets associated to the transfer */
1730:Drivers/STM32F4xx_HAL_Driver/Src/stm32f4xx_ll_usb.c ****   if (hc->xfer_len > 0U)
1731:Drivers/STM32F4xx_HAL_Driver/Src/stm32f4xx_ll_usb.c ****   {
1732:Drivers/STM32F4xx_HAL_Driver/Src/stm32f4xx_ll_usb.c ****     num_packets = (uint16_t)((hc->xfer_len + hc->max_packet - 1U) / hc->max_packet);
1733:Drivers/STM32F4xx_HAL_Driver/Src/stm32f4xx_ll_usb.c **** 
1734:Drivers/STM32F4xx_HAL_Driver/Src/stm32f4xx_ll_usb.c ****     if (num_packets > max_hc_pkt_count)
1735:Drivers/STM32F4xx_HAL_Driver/Src/stm32f4xx_ll_usb.c ****     {
1736:Drivers/STM32F4xx_HAL_Driver/Src/stm32f4xx_ll_usb.c ****       num_packets = max_hc_pkt_count;
ARM GAS  /tmp/ccrTWjYe.s 			page 121


1737:Drivers/STM32F4xx_HAL_Driver/Src/stm32f4xx_ll_usb.c ****       hc->xfer_len = (uint32_t)num_packets * hc->max_packet;
1738:Drivers/STM32F4xx_HAL_Driver/Src/stm32f4xx_ll_usb.c ****     }
1739:Drivers/STM32F4xx_HAL_Driver/Src/stm32f4xx_ll_usb.c ****   }
1740:Drivers/STM32F4xx_HAL_Driver/Src/stm32f4xx_ll_usb.c ****   else
1741:Drivers/STM32F4xx_HAL_Driver/Src/stm32f4xx_ll_usb.c ****   {
1742:Drivers/STM32F4xx_HAL_Driver/Src/stm32f4xx_ll_usb.c ****     num_packets = 1U;
1743:Drivers/STM32F4xx_HAL_Driver/Src/stm32f4xx_ll_usb.c ****   }
1744:Drivers/STM32F4xx_HAL_Driver/Src/stm32f4xx_ll_usb.c ****   if (hc->ep_is_in != 0U)
1745:Drivers/STM32F4xx_HAL_Driver/Src/stm32f4xx_ll_usb.c ****   {
1746:Drivers/STM32F4xx_HAL_Driver/Src/stm32f4xx_ll_usb.c ****     hc->xfer_len = (uint32_t)num_packets * hc->max_packet;
1747:Drivers/STM32F4xx_HAL_Driver/Src/stm32f4xx_ll_usb.c ****   }
1748:Drivers/STM32F4xx_HAL_Driver/Src/stm32f4xx_ll_usb.c **** 
1749:Drivers/STM32F4xx_HAL_Driver/Src/stm32f4xx_ll_usb.c ****   /* Initialize the HCTSIZn register */
1750:Drivers/STM32F4xx_HAL_Driver/Src/stm32f4xx_ll_usb.c ****   USBx_HC(ch_num)->HCTSIZ = (hc->xfer_len & USB_OTG_HCTSIZ_XFRSIZ) |
1751:Drivers/STM32F4xx_HAL_Driver/Src/stm32f4xx_ll_usb.c ****                             (((uint32_t)num_packets << 19) & USB_OTG_HCTSIZ_PKTCNT) |
1752:Drivers/STM32F4xx_HAL_Driver/Src/stm32f4xx_ll_usb.c ****                             (((uint32_t)hc->data_pid << 29) & USB_OTG_HCTSIZ_DPID);
1753:Drivers/STM32F4xx_HAL_Driver/Src/stm32f4xx_ll_usb.c **** 
1754:Drivers/STM32F4xx_HAL_Driver/Src/stm32f4xx_ll_usb.c ****   if (dma != 0U)
1755:Drivers/STM32F4xx_HAL_Driver/Src/stm32f4xx_ll_usb.c ****   {
1756:Drivers/STM32F4xx_HAL_Driver/Src/stm32f4xx_ll_usb.c ****     /* xfer_buff MUST be 32-bits aligned */
1757:Drivers/STM32F4xx_HAL_Driver/Src/stm32f4xx_ll_usb.c ****     USBx_HC(ch_num)->HCDMA = (uint32_t)hc->xfer_buff;
1758:Drivers/STM32F4xx_HAL_Driver/Src/stm32f4xx_ll_usb.c ****   }
1759:Drivers/STM32F4xx_HAL_Driver/Src/stm32f4xx_ll_usb.c **** 
1760:Drivers/STM32F4xx_HAL_Driver/Src/stm32f4xx_ll_usb.c ****   is_oddframe = (((uint32_t)USBx_HOST->HFNUM & 0x01U) != 0U) ? 0U : 1U;
1761:Drivers/STM32F4xx_HAL_Driver/Src/stm32f4xx_ll_usb.c ****   USBx_HC(ch_num)->HCCHAR &= ~USB_OTG_HCCHAR_ODDFRM;
1762:Drivers/STM32F4xx_HAL_Driver/Src/stm32f4xx_ll_usb.c ****   USBx_HC(ch_num)->HCCHAR |= (uint32_t)is_oddframe << 29;
1763:Drivers/STM32F4xx_HAL_Driver/Src/stm32f4xx_ll_usb.c **** 
1764:Drivers/STM32F4xx_HAL_Driver/Src/stm32f4xx_ll_usb.c ****   /* Set host channel enable */
1765:Drivers/STM32F4xx_HAL_Driver/Src/stm32f4xx_ll_usb.c ****   tmpreg = USBx_HC(ch_num)->HCCHAR;
1766:Drivers/STM32F4xx_HAL_Driver/Src/stm32f4xx_ll_usb.c ****   tmpreg &= ~USB_OTG_HCCHAR_CHDIS;
1767:Drivers/STM32F4xx_HAL_Driver/Src/stm32f4xx_ll_usb.c **** 
1768:Drivers/STM32F4xx_HAL_Driver/Src/stm32f4xx_ll_usb.c ****   /* make sure to set the correct ep direction */
1769:Drivers/STM32F4xx_HAL_Driver/Src/stm32f4xx_ll_usb.c ****   if (hc->ep_is_in != 0U)
1770:Drivers/STM32F4xx_HAL_Driver/Src/stm32f4xx_ll_usb.c ****   {
1771:Drivers/STM32F4xx_HAL_Driver/Src/stm32f4xx_ll_usb.c ****     tmpreg |= USB_OTG_HCCHAR_EPDIR;
1772:Drivers/STM32F4xx_HAL_Driver/Src/stm32f4xx_ll_usb.c ****   }
1773:Drivers/STM32F4xx_HAL_Driver/Src/stm32f4xx_ll_usb.c ****   else
1774:Drivers/STM32F4xx_HAL_Driver/Src/stm32f4xx_ll_usb.c ****   {
1775:Drivers/STM32F4xx_HAL_Driver/Src/stm32f4xx_ll_usb.c ****     tmpreg &= ~USB_OTG_HCCHAR_EPDIR;
1776:Drivers/STM32F4xx_HAL_Driver/Src/stm32f4xx_ll_usb.c ****   }
1777:Drivers/STM32F4xx_HAL_Driver/Src/stm32f4xx_ll_usb.c ****   tmpreg |= USB_OTG_HCCHAR_CHENA;
1778:Drivers/STM32F4xx_HAL_Driver/Src/stm32f4xx_ll_usb.c ****   USBx_HC(ch_num)->HCCHAR = tmpreg;
1779:Drivers/STM32F4xx_HAL_Driver/Src/stm32f4xx_ll_usb.c **** 
1780:Drivers/STM32F4xx_HAL_Driver/Src/stm32f4xx_ll_usb.c ****   if (dma == 0U) /* Slave mode */
1781:Drivers/STM32F4xx_HAL_Driver/Src/stm32f4xx_ll_usb.c ****   {
1782:Drivers/STM32F4xx_HAL_Driver/Src/stm32f4xx_ll_usb.c ****     if ((hc->ep_is_in == 0U) && (hc->xfer_len > 0U))
1783:Drivers/STM32F4xx_HAL_Driver/Src/stm32f4xx_ll_usb.c ****     {
1784:Drivers/STM32F4xx_HAL_Driver/Src/stm32f4xx_ll_usb.c ****       switch (hc->ep_type)
1785:Drivers/STM32F4xx_HAL_Driver/Src/stm32f4xx_ll_usb.c ****       {
1786:Drivers/STM32F4xx_HAL_Driver/Src/stm32f4xx_ll_usb.c ****         /* Non periodic transfer */
1787:Drivers/STM32F4xx_HAL_Driver/Src/stm32f4xx_ll_usb.c ****         case EP_TYPE_CTRL:
1788:Drivers/STM32F4xx_HAL_Driver/Src/stm32f4xx_ll_usb.c ****         case EP_TYPE_BULK:
1789:Drivers/STM32F4xx_HAL_Driver/Src/stm32f4xx_ll_usb.c **** 
1790:Drivers/STM32F4xx_HAL_Driver/Src/stm32f4xx_ll_usb.c ****           len_words = (uint16_t)((hc->xfer_len + 3U) / 4U);
1791:Drivers/STM32F4xx_HAL_Driver/Src/stm32f4xx_ll_usb.c **** 
1792:Drivers/STM32F4xx_HAL_Driver/Src/stm32f4xx_ll_usb.c ****           /* check if there is enough space in FIFO space */
1793:Drivers/STM32F4xx_HAL_Driver/Src/stm32f4xx_ll_usb.c ****           if (len_words > (USBx->HNPTXSTS & 0xFFFFU))
ARM GAS  /tmp/ccrTWjYe.s 			page 122


1794:Drivers/STM32F4xx_HAL_Driver/Src/stm32f4xx_ll_usb.c ****           {
1795:Drivers/STM32F4xx_HAL_Driver/Src/stm32f4xx_ll_usb.c ****             /* need to process data in nptxfempty interrupt */
1796:Drivers/STM32F4xx_HAL_Driver/Src/stm32f4xx_ll_usb.c ****             USBx->GINTMSK |= USB_OTG_GINTMSK_NPTXFEM;
1797:Drivers/STM32F4xx_HAL_Driver/Src/stm32f4xx_ll_usb.c ****           }
1798:Drivers/STM32F4xx_HAL_Driver/Src/stm32f4xx_ll_usb.c ****           break;
1799:Drivers/STM32F4xx_HAL_Driver/Src/stm32f4xx_ll_usb.c **** 
1800:Drivers/STM32F4xx_HAL_Driver/Src/stm32f4xx_ll_usb.c ****         /* Periodic transfer */
1801:Drivers/STM32F4xx_HAL_Driver/Src/stm32f4xx_ll_usb.c ****         case EP_TYPE_INTR:
1802:Drivers/STM32F4xx_HAL_Driver/Src/stm32f4xx_ll_usb.c ****         case EP_TYPE_ISOC:
1803:Drivers/STM32F4xx_HAL_Driver/Src/stm32f4xx_ll_usb.c ****           len_words = (uint16_t)((hc->xfer_len + 3U) / 4U);
1804:Drivers/STM32F4xx_HAL_Driver/Src/stm32f4xx_ll_usb.c ****           /* check if there is enough space in FIFO space */
1805:Drivers/STM32F4xx_HAL_Driver/Src/stm32f4xx_ll_usb.c ****           if (len_words > (USBx_HOST->HPTXSTS & 0xFFFFU)) /* split the transfer */
1806:Drivers/STM32F4xx_HAL_Driver/Src/stm32f4xx_ll_usb.c ****           {
1807:Drivers/STM32F4xx_HAL_Driver/Src/stm32f4xx_ll_usb.c ****             /* need to process data in ptxfempty interrupt */
1808:Drivers/STM32F4xx_HAL_Driver/Src/stm32f4xx_ll_usb.c ****             USBx->GINTMSK |= USB_OTG_GINTMSK_PTXFEM;
1809:Drivers/STM32F4xx_HAL_Driver/Src/stm32f4xx_ll_usb.c ****           }
1810:Drivers/STM32F4xx_HAL_Driver/Src/stm32f4xx_ll_usb.c ****           break;
1811:Drivers/STM32F4xx_HAL_Driver/Src/stm32f4xx_ll_usb.c **** 
1812:Drivers/STM32F4xx_HAL_Driver/Src/stm32f4xx_ll_usb.c ****         default:
1813:Drivers/STM32F4xx_HAL_Driver/Src/stm32f4xx_ll_usb.c ****           break;
1814:Drivers/STM32F4xx_HAL_Driver/Src/stm32f4xx_ll_usb.c ****       }
1815:Drivers/STM32F4xx_HAL_Driver/Src/stm32f4xx_ll_usb.c **** 
1816:Drivers/STM32F4xx_HAL_Driver/Src/stm32f4xx_ll_usb.c ****       /* Write packet into the Tx FIFO. */
1817:Drivers/STM32F4xx_HAL_Driver/Src/stm32f4xx_ll_usb.c ****       (void)USB_WritePacket(USBx, hc->xfer_buff, hc->ch_num, (uint16_t)hc->xfer_len, 0);
1818:Drivers/STM32F4xx_HAL_Driver/Src/stm32f4xx_ll_usb.c ****     }
1819:Drivers/STM32F4xx_HAL_Driver/Src/stm32f4xx_ll_usb.c ****   }
1820:Drivers/STM32F4xx_HAL_Driver/Src/stm32f4xx_ll_usb.c **** 
1821:Drivers/STM32F4xx_HAL_Driver/Src/stm32f4xx_ll_usb.c ****   return HAL_OK;
1822:Drivers/STM32F4xx_HAL_Driver/Src/stm32f4xx_ll_usb.c **** }
1823:Drivers/STM32F4xx_HAL_Driver/Src/stm32f4xx_ll_usb.c **** 
1824:Drivers/STM32F4xx_HAL_Driver/Src/stm32f4xx_ll_usb.c **** /**
1825:Drivers/STM32F4xx_HAL_Driver/Src/stm32f4xx_ll_usb.c ****   * @brief Read all host channel interrupts status
1826:Drivers/STM32F4xx_HAL_Driver/Src/stm32f4xx_ll_usb.c ****   * @param  USBx  Selected device
1827:Drivers/STM32F4xx_HAL_Driver/Src/stm32f4xx_ll_usb.c ****   * @retval HAL state
1828:Drivers/STM32F4xx_HAL_Driver/Src/stm32f4xx_ll_usb.c ****   */
1829:Drivers/STM32F4xx_HAL_Driver/Src/stm32f4xx_ll_usb.c **** uint32_t USB_HC_ReadInterrupt(USB_OTG_GlobalTypeDef *USBx)
1830:Drivers/STM32F4xx_HAL_Driver/Src/stm32f4xx_ll_usb.c **** {
 4079              		.loc 1 1830 1 is_stmt 1 view -0
 4080              		.cfi_startproc
 4081              		@ args = 0, pretend = 0, frame = 0
 4082              		@ frame_needed = 0, uses_anonymous_args = 0
 4083              		@ link register save eliminated.
1831:Drivers/STM32F4xx_HAL_Driver/Src/stm32f4xx_ll_usb.c ****   uint32_t USBx_BASE = (uint32_t)USBx;
 4084              		.loc 1 1831 3 view .LVU1260
1832:Drivers/STM32F4xx_HAL_Driver/Src/stm32f4xx_ll_usb.c **** 
1833:Drivers/STM32F4xx_HAL_Driver/Src/stm32f4xx_ll_usb.c ****   return ((USBx_HOST->HAINT) & 0xFFFFU);
 4085              		.loc 1 1833 3 view .LVU1261
 4086              		.loc 1 1833 12 is_stmt 0 view .LVU1262
 4087 0000 00F58060 		add	r0, r0, #1024
 4088              	.LVL333:
 4089              		.loc 1 1833 21 view .LVU1263
 4090 0004 4069     		ldr	r0, [r0, #20]
 4091              	.LVL334:
1834:Drivers/STM32F4xx_HAL_Driver/Src/stm32f4xx_ll_usb.c **** }
 4092              		.loc 1 1834 1 view .LVU1264
 4093 0006 80B2     		uxth	r0, r0
 4094 0008 7047     		bx	lr
ARM GAS  /tmp/ccrTWjYe.s 			page 123


 4095              		.cfi_endproc
 4096              	.LFE172:
 4098              		.section	.text.USB_HC_Halt,"ax",%progbits
 4099              		.align	1
 4100              		.global	USB_HC_Halt
 4101              		.syntax unified
 4102              		.thumb
 4103              		.thumb_func
 4104              		.fpu fpv4-sp-d16
 4106              	USB_HC_Halt:
 4107              	.LVL335:
 4108              	.LFB173:
1835:Drivers/STM32F4xx_HAL_Driver/Src/stm32f4xx_ll_usb.c **** 
1836:Drivers/STM32F4xx_HAL_Driver/Src/stm32f4xx_ll_usb.c **** /**
1837:Drivers/STM32F4xx_HAL_Driver/Src/stm32f4xx_ll_usb.c ****   * @brief  Halt a host channel
1838:Drivers/STM32F4xx_HAL_Driver/Src/stm32f4xx_ll_usb.c ****   * @param  USBx  Selected device
1839:Drivers/STM32F4xx_HAL_Driver/Src/stm32f4xx_ll_usb.c ****   * @param  hc_num  Host Channel number
1840:Drivers/STM32F4xx_HAL_Driver/Src/stm32f4xx_ll_usb.c ****   *         This parameter can be a value from 1 to 15
1841:Drivers/STM32F4xx_HAL_Driver/Src/stm32f4xx_ll_usb.c ****   * @retval HAL state
1842:Drivers/STM32F4xx_HAL_Driver/Src/stm32f4xx_ll_usb.c ****   */
1843:Drivers/STM32F4xx_HAL_Driver/Src/stm32f4xx_ll_usb.c **** HAL_StatusTypeDef USB_HC_Halt(USB_OTG_GlobalTypeDef *USBx, uint8_t hc_num)
1844:Drivers/STM32F4xx_HAL_Driver/Src/stm32f4xx_ll_usb.c **** {
 4109              		.loc 1 1844 1 is_stmt 1 view -0
 4110              		.cfi_startproc
 4111              		@ args = 0, pretend = 0, frame = 0
 4112              		@ frame_needed = 0, uses_anonymous_args = 0
 4113              		@ link register save eliminated.
 4114              		.loc 1 1844 1 is_stmt 0 view .LVU1266
 4115 0000 10B4     		push	{r4}
 4116              	.LCFI56:
 4117              		.cfi_def_cfa_offset 4
 4118              		.cfi_offset 4, -4
1845:Drivers/STM32F4xx_HAL_Driver/Src/stm32f4xx_ll_usb.c ****   uint32_t USBx_BASE = (uint32_t)USBx;
 4119              		.loc 1 1845 3 is_stmt 1 view .LVU1267
 4120              	.LVL336:
1846:Drivers/STM32F4xx_HAL_Driver/Src/stm32f4xx_ll_usb.c ****   uint32_t hcnum = (uint32_t)hc_num;
 4121              		.loc 1 1846 3 view .LVU1268
1847:Drivers/STM32F4xx_HAL_Driver/Src/stm32f4xx_ll_usb.c ****   uint32_t count = 0U;
 4122              		.loc 1 1847 3 view .LVU1269
1848:Drivers/STM32F4xx_HAL_Driver/Src/stm32f4xx_ll_usb.c ****   uint32_t HcEpType = (USBx_HC(hcnum)->HCCHAR & USB_OTG_HCCHAR_EPTYP) >> 18;
 4123              		.loc 1 1848 3 view .LVU1270
 4124              		.loc 1 1848 24 is_stmt 0 view .LVU1271
 4125 0002 00EB4111 		add	r1, r0, r1, lsl #5
 4126              	.LVL337:
 4127              		.loc 1 1848 24 view .LVU1272
 4128 0006 01F5A064 		add	r4, r1, #1280
 4129              		.loc 1 1848 38 view .LVU1273
 4130 000a D1F80035 		ldr	r3, [r1, #1280]
 4131              		.loc 1 1848 12 view .LVU1274
 4132 000e C3F38143 		ubfx	r3, r3, #18, #2
 4133              	.LVL338:
1849:Drivers/STM32F4xx_HAL_Driver/Src/stm32f4xx_ll_usb.c **** 
1850:Drivers/STM32F4xx_HAL_Driver/Src/stm32f4xx_ll_usb.c ****   /* Check for space in the request queue to issue the halt. */
1851:Drivers/STM32F4xx_HAL_Driver/Src/stm32f4xx_ll_usb.c ****   if ((HcEpType == HCCHAR_CTRL) || (HcEpType == HCCHAR_BULK))
 4134              		.loc 1 1851 3 is_stmt 1 view .LVU1275
 4135              		.loc 1 1851 6 is_stmt 0 view .LVU1276
 4136 0012 3BB3     		cbz	r3, .L268
ARM GAS  /tmp/ccrTWjYe.s 			page 124


 4137              		.loc 1 1851 33 discriminator 1 view .LVU1277
 4138 0014 022B     		cmp	r3, #2
 4139 0016 25D0     		beq	.L268
1852:Drivers/STM32F4xx_HAL_Driver/Src/stm32f4xx_ll_usb.c ****   {
1853:Drivers/STM32F4xx_HAL_Driver/Src/stm32f4xx_ll_usb.c ****     USBx_HC(hcnum)->HCCHAR |= USB_OTG_HCCHAR_CHDIS;
1854:Drivers/STM32F4xx_HAL_Driver/Src/stm32f4xx_ll_usb.c **** 
1855:Drivers/STM32F4xx_HAL_Driver/Src/stm32f4xx_ll_usb.c ****     if ((USBx->HNPTXSTS & (0xFFU << 16)) == 0U)
1856:Drivers/STM32F4xx_HAL_Driver/Src/stm32f4xx_ll_usb.c ****     {
1857:Drivers/STM32F4xx_HAL_Driver/Src/stm32f4xx_ll_usb.c ****       USBx_HC(hcnum)->HCCHAR &= ~USB_OTG_HCCHAR_CHENA;
1858:Drivers/STM32F4xx_HAL_Driver/Src/stm32f4xx_ll_usb.c ****       USBx_HC(hcnum)->HCCHAR |= USB_OTG_HCCHAR_CHENA;
1859:Drivers/STM32F4xx_HAL_Driver/Src/stm32f4xx_ll_usb.c ****       USBx_HC(hcnum)->HCCHAR &= ~USB_OTG_HCCHAR_EPDIR;
1860:Drivers/STM32F4xx_HAL_Driver/Src/stm32f4xx_ll_usb.c ****       do
1861:Drivers/STM32F4xx_HAL_Driver/Src/stm32f4xx_ll_usb.c ****       {
1862:Drivers/STM32F4xx_HAL_Driver/Src/stm32f4xx_ll_usb.c ****         if (++count > 1000U)
1863:Drivers/STM32F4xx_HAL_Driver/Src/stm32f4xx_ll_usb.c ****         {
1864:Drivers/STM32F4xx_HAL_Driver/Src/stm32f4xx_ll_usb.c ****           break;
1865:Drivers/STM32F4xx_HAL_Driver/Src/stm32f4xx_ll_usb.c ****         }
1866:Drivers/STM32F4xx_HAL_Driver/Src/stm32f4xx_ll_usb.c ****       }
1867:Drivers/STM32F4xx_HAL_Driver/Src/stm32f4xx_ll_usb.c ****       while ((USBx_HC(hcnum)->HCCHAR & USB_OTG_HCCHAR_CHENA) == USB_OTG_HCCHAR_CHENA);
1868:Drivers/STM32F4xx_HAL_Driver/Src/stm32f4xx_ll_usb.c ****     }
1869:Drivers/STM32F4xx_HAL_Driver/Src/stm32f4xx_ll_usb.c ****     else
1870:Drivers/STM32F4xx_HAL_Driver/Src/stm32f4xx_ll_usb.c ****     {
1871:Drivers/STM32F4xx_HAL_Driver/Src/stm32f4xx_ll_usb.c ****       USBx_HC(hcnum)->HCCHAR |= USB_OTG_HCCHAR_CHENA;
1872:Drivers/STM32F4xx_HAL_Driver/Src/stm32f4xx_ll_usb.c ****     }
1873:Drivers/STM32F4xx_HAL_Driver/Src/stm32f4xx_ll_usb.c ****   }
1874:Drivers/STM32F4xx_HAL_Driver/Src/stm32f4xx_ll_usb.c ****   else
1875:Drivers/STM32F4xx_HAL_Driver/Src/stm32f4xx_ll_usb.c ****   {
1876:Drivers/STM32F4xx_HAL_Driver/Src/stm32f4xx_ll_usb.c ****     USBx_HC(hcnum)->HCCHAR |= USB_OTG_HCCHAR_CHDIS;
 4140              		.loc 1 1876 5 is_stmt 1 view .LVU1278
 4141              		.loc 1 1876 28 is_stmt 0 view .LVU1279
 4142 0018 D1F80035 		ldr	r3, [r1, #1280]
 4143              	.LVL339:
 4144              		.loc 1 1876 28 view .LVU1280
 4145 001c 43F08043 		orr	r3, r3, #1073741824
 4146 0020 C1F80035 		str	r3, [r1, #1280]
1877:Drivers/STM32F4xx_HAL_Driver/Src/stm32f4xx_ll_usb.c **** 
1878:Drivers/STM32F4xx_HAL_Driver/Src/stm32f4xx_ll_usb.c ****     if ((USBx_HOST->HPTXSTS & (0xFFU << 16)) == 0U)
 4147              		.loc 1 1878 5 is_stmt 1 view .LVU1281
 4148              		.loc 1 1878 19 is_stmt 0 view .LVU1282
 4149 0024 D0F81034 		ldr	r3, [r0, #1040]
 4150              		.loc 1 1878 8 view .LVU1283
 4151 0028 13F47F0F 		tst	r3, #16711680
 4152 002c 49D1     		bne	.L273
1879:Drivers/STM32F4xx_HAL_Driver/Src/stm32f4xx_ll_usb.c ****     {
1880:Drivers/STM32F4xx_HAL_Driver/Src/stm32f4xx_ll_usb.c ****       USBx_HC(hcnum)->HCCHAR &= ~USB_OTG_HCCHAR_CHENA;
 4153              		.loc 1 1880 7 is_stmt 1 view .LVU1284
 4154              		.loc 1 1880 30 is_stmt 0 view .LVU1285
 4155 002e D1F80035 		ldr	r3, [r1, #1280]
 4156 0032 23F00043 		bic	r3, r3, #-2147483648
 4157 0036 C1F80035 		str	r3, [r1, #1280]
1881:Drivers/STM32F4xx_HAL_Driver/Src/stm32f4xx_ll_usb.c ****       USBx_HC(hcnum)->HCCHAR |= USB_OTG_HCCHAR_CHENA;
 4158              		.loc 1 1881 7 is_stmt 1 view .LVU1286
 4159              		.loc 1 1881 30 is_stmt 0 view .LVU1287
 4160 003a D1F80035 		ldr	r3, [r1, #1280]
 4161 003e 43F00043 		orr	r3, r3, #-2147483648
 4162 0042 C1F80035 		str	r3, [r1, #1280]
1882:Drivers/STM32F4xx_HAL_Driver/Src/stm32f4xx_ll_usb.c ****       USBx_HC(hcnum)->HCCHAR &= ~USB_OTG_HCCHAR_EPDIR;
ARM GAS  /tmp/ccrTWjYe.s 			page 125


 4163              		.loc 1 1882 7 is_stmt 1 view .LVU1288
 4164              		.loc 1 1882 30 is_stmt 0 view .LVU1289
 4165 0046 D1F80035 		ldr	r3, [r1, #1280]
 4166 004a 23F40043 		bic	r3, r3, #32768
 4167 004e C1F80035 		str	r3, [r1, #1280]
1847:Drivers/STM32F4xx_HAL_Driver/Src/stm32f4xx_ll_usb.c ****   uint32_t HcEpType = (USBx_HC(hcnum)->HCCHAR & USB_OTG_HCCHAR_EPTYP) >> 18;
 4168              		.loc 1 1847 12 view .LVU1290
 4169 0052 0023     		movs	r3, #0
 4170              	.LVL340:
 4171              	.L274:
1883:Drivers/STM32F4xx_HAL_Driver/Src/stm32f4xx_ll_usb.c ****       do
 4172              		.loc 1 1883 7 is_stmt 1 view .LVU1291
1884:Drivers/STM32F4xx_HAL_Driver/Src/stm32f4xx_ll_usb.c ****       {
1885:Drivers/STM32F4xx_HAL_Driver/Src/stm32f4xx_ll_usb.c ****         if (++count > 1000U)
 4173              		.loc 1 1885 9 view .LVU1292
 4174              		.loc 1 1885 12 is_stmt 0 view .LVU1293
 4175 0054 0133     		adds	r3, r3, #1
 4176              	.LVL341:
 4177              		.loc 1 1885 12 view .LVU1294
 4178 0056 B3F57A7F 		cmp	r3, #1000
 4179 005a 2ED8     		bhi	.L271
1886:Drivers/STM32F4xx_HAL_Driver/Src/stm32f4xx_ll_usb.c ****         {
1887:Drivers/STM32F4xx_HAL_Driver/Src/stm32f4xx_ll_usb.c ****           break;
1888:Drivers/STM32F4xx_HAL_Driver/Src/stm32f4xx_ll_usb.c ****         }
1889:Drivers/STM32F4xx_HAL_Driver/Src/stm32f4xx_ll_usb.c ****       }
1890:Drivers/STM32F4xx_HAL_Driver/Src/stm32f4xx_ll_usb.c ****       while ((USBx_HC(hcnum)->HCCHAR & USB_OTG_HCCHAR_CHENA) == USB_OTG_HCCHAR_CHENA);
 4180              		.loc 1 1890 29 view .LVU1295
 4181 005c 2268     		ldr	r2, [r4]
 4182              		.loc 1 1890 7 view .LVU1296
 4183 005e 002A     		cmp	r2, #0
 4184 0060 F8DB     		blt	.L274
 4185 0062 2AE0     		b	.L271
 4186              	.LVL342:
 4187              	.L268:
1853:Drivers/STM32F4xx_HAL_Driver/Src/stm32f4xx_ll_usb.c **** 
 4188              		.loc 1 1853 5 is_stmt 1 view .LVU1297
1853:Drivers/STM32F4xx_HAL_Driver/Src/stm32f4xx_ll_usb.c **** 
 4189              		.loc 1 1853 28 is_stmt 0 view .LVU1298
 4190 0064 D1F80035 		ldr	r3, [r1, #1280]
 4191              	.LVL343:
1853:Drivers/STM32F4xx_HAL_Driver/Src/stm32f4xx_ll_usb.c **** 
 4192              		.loc 1 1853 28 view .LVU1299
 4193 0068 43F08043 		orr	r3, r3, #1073741824
 4194 006c C1F80035 		str	r3, [r1, #1280]
1855:Drivers/STM32F4xx_HAL_Driver/Src/stm32f4xx_ll_usb.c ****     {
 4195              		.loc 1 1855 5 is_stmt 1 view .LVU1300
1855:Drivers/STM32F4xx_HAL_Driver/Src/stm32f4xx_ll_usb.c ****     {
 4196              		.loc 1 1855 14 is_stmt 0 view .LVU1301
 4197 0070 C36A     		ldr	r3, [r0, #44]
1855:Drivers/STM32F4xx_HAL_Driver/Src/stm32f4xx_ll_usb.c ****     {
 4198              		.loc 1 1855 8 view .LVU1302
 4199 0072 13F47F0F 		tst	r3, #16711680
 4200 0076 1AD1     		bne	.L270
1857:Drivers/STM32F4xx_HAL_Driver/Src/stm32f4xx_ll_usb.c ****       USBx_HC(hcnum)->HCCHAR |= USB_OTG_HCCHAR_CHENA;
 4201              		.loc 1 1857 7 is_stmt 1 view .LVU1303
1857:Drivers/STM32F4xx_HAL_Driver/Src/stm32f4xx_ll_usb.c ****       USBx_HC(hcnum)->HCCHAR |= USB_OTG_HCCHAR_CHENA;
 4202              		.loc 1 1857 30 is_stmt 0 view .LVU1304
ARM GAS  /tmp/ccrTWjYe.s 			page 126


 4203 0078 D1F80035 		ldr	r3, [r1, #1280]
 4204 007c 23F00043 		bic	r3, r3, #-2147483648
 4205 0080 C1F80035 		str	r3, [r1, #1280]
1858:Drivers/STM32F4xx_HAL_Driver/Src/stm32f4xx_ll_usb.c ****       USBx_HC(hcnum)->HCCHAR &= ~USB_OTG_HCCHAR_EPDIR;
 4206              		.loc 1 1858 7 is_stmt 1 view .LVU1305
1858:Drivers/STM32F4xx_HAL_Driver/Src/stm32f4xx_ll_usb.c ****       USBx_HC(hcnum)->HCCHAR &= ~USB_OTG_HCCHAR_EPDIR;
 4207              		.loc 1 1858 30 is_stmt 0 view .LVU1306
 4208 0084 D1F80035 		ldr	r3, [r1, #1280]
 4209 0088 43F00043 		orr	r3, r3, #-2147483648
 4210 008c C1F80035 		str	r3, [r1, #1280]
1859:Drivers/STM32F4xx_HAL_Driver/Src/stm32f4xx_ll_usb.c ****       do
 4211              		.loc 1 1859 7 is_stmt 1 view .LVU1307
1859:Drivers/STM32F4xx_HAL_Driver/Src/stm32f4xx_ll_usb.c ****       do
 4212              		.loc 1 1859 30 is_stmt 0 view .LVU1308
 4213 0090 D1F80035 		ldr	r3, [r1, #1280]
 4214 0094 23F40043 		bic	r3, r3, #32768
 4215 0098 C1F80035 		str	r3, [r1, #1280]
1847:Drivers/STM32F4xx_HAL_Driver/Src/stm32f4xx_ll_usb.c ****   uint32_t HcEpType = (USBx_HC(hcnum)->HCCHAR & USB_OTG_HCCHAR_EPTYP) >> 18;
 4216              		.loc 1 1847 12 view .LVU1309
 4217 009c 0023     		movs	r3, #0
 4218              	.LVL344:
 4219              	.L272:
1860:Drivers/STM32F4xx_HAL_Driver/Src/stm32f4xx_ll_usb.c ****       {
 4220              		.loc 1 1860 7 is_stmt 1 view .LVU1310
1862:Drivers/STM32F4xx_HAL_Driver/Src/stm32f4xx_ll_usb.c ****         {
 4221              		.loc 1 1862 9 view .LVU1311
1862:Drivers/STM32F4xx_HAL_Driver/Src/stm32f4xx_ll_usb.c ****         {
 4222              		.loc 1 1862 12 is_stmt 0 view .LVU1312
 4223 009e 0133     		adds	r3, r3, #1
 4224              	.LVL345:
1862:Drivers/STM32F4xx_HAL_Driver/Src/stm32f4xx_ll_usb.c ****         {
 4225              		.loc 1 1862 12 view .LVU1313
 4226 00a0 B3F57A7F 		cmp	r3, #1000
 4227 00a4 09D8     		bhi	.L271
1867:Drivers/STM32F4xx_HAL_Driver/Src/stm32f4xx_ll_usb.c ****     }
 4228              		.loc 1 1867 29 view .LVU1314
 4229 00a6 2268     		ldr	r2, [r4]
1867:Drivers/STM32F4xx_HAL_Driver/Src/stm32f4xx_ll_usb.c ****     }
 4230              		.loc 1 1867 7 view .LVU1315
 4231 00a8 002A     		cmp	r2, #0
 4232 00aa F8DB     		blt	.L272
 4233 00ac 05E0     		b	.L271
 4234              	.LVL346:
 4235              	.L270:
1871:Drivers/STM32F4xx_HAL_Driver/Src/stm32f4xx_ll_usb.c ****     }
 4236              		.loc 1 1871 7 is_stmt 1 view .LVU1316
1871:Drivers/STM32F4xx_HAL_Driver/Src/stm32f4xx_ll_usb.c ****     }
 4237              		.loc 1 1871 30 is_stmt 0 view .LVU1317
 4238 00ae D1F80035 		ldr	r3, [r1, #1280]
 4239 00b2 43F00043 		orr	r3, r3, #-2147483648
 4240 00b6 C1F80035 		str	r3, [r1, #1280]
 4241              	.LVL347:
 4242              	.L271:
1891:Drivers/STM32F4xx_HAL_Driver/Src/stm32f4xx_ll_usb.c ****     }
1892:Drivers/STM32F4xx_HAL_Driver/Src/stm32f4xx_ll_usb.c ****     else
1893:Drivers/STM32F4xx_HAL_Driver/Src/stm32f4xx_ll_usb.c ****     {
1894:Drivers/STM32F4xx_HAL_Driver/Src/stm32f4xx_ll_usb.c ****       USBx_HC(hcnum)->HCCHAR |= USB_OTG_HCCHAR_CHENA;
ARM GAS  /tmp/ccrTWjYe.s 			page 127


1895:Drivers/STM32F4xx_HAL_Driver/Src/stm32f4xx_ll_usb.c ****     }
1896:Drivers/STM32F4xx_HAL_Driver/Src/stm32f4xx_ll_usb.c ****   }
1897:Drivers/STM32F4xx_HAL_Driver/Src/stm32f4xx_ll_usb.c **** 
1898:Drivers/STM32F4xx_HAL_Driver/Src/stm32f4xx_ll_usb.c ****   return HAL_OK;
 4243              		.loc 1 1898 3 is_stmt 1 view .LVU1318
1899:Drivers/STM32F4xx_HAL_Driver/Src/stm32f4xx_ll_usb.c **** }
 4244              		.loc 1 1899 1 is_stmt 0 view .LVU1319
 4245 00ba 0020     		movs	r0, #0
 4246              	.LVL348:
 4247              		.loc 1 1899 1 view .LVU1320
 4248 00bc 5DF8044B 		ldr	r4, [sp], #4
 4249              	.LCFI57:
 4250              		.cfi_remember_state
 4251              		.cfi_restore 4
 4252              		.cfi_def_cfa_offset 0
 4253 00c0 7047     		bx	lr
 4254              	.LVL349:
 4255              	.L273:
 4256              	.LCFI58:
 4257              		.cfi_restore_state
1894:Drivers/STM32F4xx_HAL_Driver/Src/stm32f4xx_ll_usb.c ****     }
 4258              		.loc 1 1894 7 is_stmt 1 view .LVU1321
1894:Drivers/STM32F4xx_HAL_Driver/Src/stm32f4xx_ll_usb.c ****     }
 4259              		.loc 1 1894 30 is_stmt 0 view .LVU1322
 4260 00c2 D1F80035 		ldr	r3, [r1, #1280]
 4261 00c6 43F00043 		orr	r3, r3, #-2147483648
 4262 00ca C1F80035 		str	r3, [r1, #1280]
 4263 00ce F4E7     		b	.L271
 4264              		.cfi_endproc
 4265              	.LFE173:
 4267              		.section	.text.USB_DoPing,"ax",%progbits
 4268              		.align	1
 4269              		.global	USB_DoPing
 4270              		.syntax unified
 4271              		.thumb
 4272              		.thumb_func
 4273              		.fpu fpv4-sp-d16
 4275              	USB_DoPing:
 4276              	.LVL350:
 4277              	.LFB174:
1900:Drivers/STM32F4xx_HAL_Driver/Src/stm32f4xx_ll_usb.c **** 
1901:Drivers/STM32F4xx_HAL_Driver/Src/stm32f4xx_ll_usb.c **** /**
1902:Drivers/STM32F4xx_HAL_Driver/Src/stm32f4xx_ll_usb.c ****   * @brief  Initiate Do Ping protocol
1903:Drivers/STM32F4xx_HAL_Driver/Src/stm32f4xx_ll_usb.c ****   * @param  USBx  Selected device
1904:Drivers/STM32F4xx_HAL_Driver/Src/stm32f4xx_ll_usb.c ****   * @param  hc_num  Host Channel number
1905:Drivers/STM32F4xx_HAL_Driver/Src/stm32f4xx_ll_usb.c ****   *         This parameter can be a value from 1 to 15
1906:Drivers/STM32F4xx_HAL_Driver/Src/stm32f4xx_ll_usb.c ****   * @retval HAL state
1907:Drivers/STM32F4xx_HAL_Driver/Src/stm32f4xx_ll_usb.c ****   */
1908:Drivers/STM32F4xx_HAL_Driver/Src/stm32f4xx_ll_usb.c **** HAL_StatusTypeDef USB_DoPing(USB_OTG_GlobalTypeDef *USBx, uint8_t ch_num)
1909:Drivers/STM32F4xx_HAL_Driver/Src/stm32f4xx_ll_usb.c **** {
 4278              		.loc 1 1909 1 is_stmt 1 view -0
 4279              		.cfi_startproc
 4280              		@ args = 0, pretend = 0, frame = 0
 4281              		@ frame_needed = 0, uses_anonymous_args = 0
 4282              		@ link register save eliminated.
1910:Drivers/STM32F4xx_HAL_Driver/Src/stm32f4xx_ll_usb.c ****   uint32_t USBx_BASE = (uint32_t)USBx;
 4283              		.loc 1 1910 3 view .LVU1324
ARM GAS  /tmp/ccrTWjYe.s 			page 128


1911:Drivers/STM32F4xx_HAL_Driver/Src/stm32f4xx_ll_usb.c ****   uint32_t chnum = (uint32_t)ch_num;
 4284              		.loc 1 1911 3 view .LVU1325
1912:Drivers/STM32F4xx_HAL_Driver/Src/stm32f4xx_ll_usb.c ****   uint32_t num_packets = 1U;
 4285              		.loc 1 1912 3 view .LVU1326
1913:Drivers/STM32F4xx_HAL_Driver/Src/stm32f4xx_ll_usb.c ****   uint32_t tmpreg;
 4286              		.loc 1 1913 3 view .LVU1327
1914:Drivers/STM32F4xx_HAL_Driver/Src/stm32f4xx_ll_usb.c **** 
1915:Drivers/STM32F4xx_HAL_Driver/Src/stm32f4xx_ll_usb.c ****   USBx_HC(chnum)->HCTSIZ = ((num_packets << 19) & USB_OTG_HCTSIZ_PKTCNT) |
 4287              		.loc 1 1915 3 view .LVU1328
 4288 0000 00EB4111 		add	r1, r0, r1, lsl #5
 4289              	.LVL351:
 4290              		.loc 1 1915 26 is_stmt 0 view .LVU1329
 4291 0004 064A     		ldr	r2, .L277
 4292 0006 C1F81025 		str	r2, [r1, #1296]
1916:Drivers/STM32F4xx_HAL_Driver/Src/stm32f4xx_ll_usb.c ****                            USB_OTG_HCTSIZ_DOPING;
1917:Drivers/STM32F4xx_HAL_Driver/Src/stm32f4xx_ll_usb.c **** 
1918:Drivers/STM32F4xx_HAL_Driver/Src/stm32f4xx_ll_usb.c ****   /* Set host channel enable */
1919:Drivers/STM32F4xx_HAL_Driver/Src/stm32f4xx_ll_usb.c ****   tmpreg = USBx_HC(chnum)->HCCHAR;
 4293              		.loc 1 1919 3 is_stmt 1 view .LVU1330
 4294              		.loc 1 1919 10 is_stmt 0 view .LVU1331
 4295 000a D1F80035 		ldr	r3, [r1, #1280]
 4296              	.LVL352:
1920:Drivers/STM32F4xx_HAL_Driver/Src/stm32f4xx_ll_usb.c ****   tmpreg &= ~USB_OTG_HCCHAR_CHDIS;
 4297              		.loc 1 1920 3 is_stmt 1 view .LVU1332
 4298              		.loc 1 1920 10 is_stmt 0 view .LVU1333
 4299 000e 23F08043 		bic	r3, r3, #1073741824
 4300              	.LVL353:
1921:Drivers/STM32F4xx_HAL_Driver/Src/stm32f4xx_ll_usb.c ****   tmpreg |= USB_OTG_HCCHAR_CHENA;
 4301              		.loc 1 1921 3 is_stmt 1 view .LVU1334
 4302              		.loc 1 1921 10 is_stmt 0 view .LVU1335
 4303 0012 43F00043 		orr	r3, r3, #-2147483648
 4304              	.LVL354:
1922:Drivers/STM32F4xx_HAL_Driver/Src/stm32f4xx_ll_usb.c ****   USBx_HC(chnum)->HCCHAR = tmpreg;
 4305              		.loc 1 1922 3 is_stmt 1 view .LVU1336
 4306              		.loc 1 1922 26 is_stmt 0 view .LVU1337
 4307 0016 C1F80035 		str	r3, [r1, #1280]
1923:Drivers/STM32F4xx_HAL_Driver/Src/stm32f4xx_ll_usb.c **** 
1924:Drivers/STM32F4xx_HAL_Driver/Src/stm32f4xx_ll_usb.c ****   return HAL_OK;
 4308              		.loc 1 1924 3 is_stmt 1 view .LVU1338
1925:Drivers/STM32F4xx_HAL_Driver/Src/stm32f4xx_ll_usb.c **** }
 4309              		.loc 1 1925 1 is_stmt 0 view .LVU1339
 4310 001a 0020     		movs	r0, #0
 4311              	.LVL355:
 4312              		.loc 1 1925 1 view .LVU1340
 4313 001c 7047     		bx	lr
 4314              	.L278:
 4315 001e 00BF     		.align	2
 4316              	.L277:
 4317 0020 00000880 		.word	-2146959360
 4318              		.cfi_endproc
 4319              	.LFE174:
 4321              		.section	.text.USB_HC_StartXfer,"ax",%progbits
 4322              		.align	1
 4323              		.global	USB_HC_StartXfer
 4324              		.syntax unified
 4325              		.thumb
 4326              		.thumb_func
ARM GAS  /tmp/ccrTWjYe.s 			page 129


 4327              		.fpu fpv4-sp-d16
 4329              	USB_HC_StartXfer:
 4330              	.LVL356:
 4331              	.LFB171:
1702:Drivers/STM32F4xx_HAL_Driver/Src/stm32f4xx_ll_usb.c ****   uint32_t USBx_BASE = (uint32_t)USBx;
 4332              		.loc 1 1702 1 is_stmt 1 view -0
 4333              		.cfi_startproc
 4334              		@ args = 0, pretend = 0, frame = 0
 4335              		@ frame_needed = 0, uses_anonymous_args = 0
1702:Drivers/STM32F4xx_HAL_Driver/Src/stm32f4xx_ll_usb.c ****   uint32_t USBx_BASE = (uint32_t)USBx;
 4336              		.loc 1 1702 1 is_stmt 0 view .LVU1342
 4337 0000 70B5     		push	{r4, r5, r6, lr}
 4338              	.LCFI59:
 4339              		.cfi_def_cfa_offset 16
 4340              		.cfi_offset 4, -16
 4341              		.cfi_offset 5, -12
 4342              		.cfi_offset 6, -8
 4343              		.cfi_offset 14, -4
 4344 0002 82B0     		sub	sp, sp, #8
 4345              	.LCFI60:
 4346              		.cfi_def_cfa_offset 24
1703:Drivers/STM32F4xx_HAL_Driver/Src/stm32f4xx_ll_usb.c ****   uint32_t ch_num = (uint32_t)hc->ch_num;
 4347              		.loc 1 1703 3 is_stmt 1 view .LVU1343
 4348              	.LVL357:
1704:Drivers/STM32F4xx_HAL_Driver/Src/stm32f4xx_ll_usb.c ****   static __IO uint32_t tmpreg = 0U;
 4349              		.loc 1 1704 3 view .LVU1344
1704:Drivers/STM32F4xx_HAL_Driver/Src/stm32f4xx_ll_usb.c ****   static __IO uint32_t tmpreg = 0U;
 4350              		.loc 1 1704 33 is_stmt 0 view .LVU1345
 4351 0004 4C78     		ldrb	r4, [r1, #1]	@ zero_extendqisi2
 4352              	.LVL358:
1705:Drivers/STM32F4xx_HAL_Driver/Src/stm32f4xx_ll_usb.c ****   uint8_t  is_oddframe;
 4353              		.loc 1 1705 3 is_stmt 1 view .LVU1346
1706:Drivers/STM32F4xx_HAL_Driver/Src/stm32f4xx_ll_usb.c ****   uint16_t len_words;
 4354              		.loc 1 1706 3 view .LVU1347
1707:Drivers/STM32F4xx_HAL_Driver/Src/stm32f4xx_ll_usb.c ****   uint16_t num_packets;
 4355              		.loc 1 1707 3 view .LVU1348
1708:Drivers/STM32F4xx_HAL_Driver/Src/stm32f4xx_ll_usb.c ****   uint16_t max_hc_pkt_count = 256U;
 4356              		.loc 1 1708 3 view .LVU1349
1709:Drivers/STM32F4xx_HAL_Driver/Src/stm32f4xx_ll_usb.c **** 
 4357              		.loc 1 1709 3 view .LVU1350
1711:Drivers/STM32F4xx_HAL_Driver/Src/stm32f4xx_ll_usb.c ****   {
 4358              		.loc 1 1711 3 view .LVU1351
1711:Drivers/STM32F4xx_HAL_Driver/Src/stm32f4xx_ll_usb.c ****   {
 4359              		.loc 1 1711 13 is_stmt 0 view .LVU1352
 4360 0006 C36B     		ldr	r3, [r0, #60]
1711:Drivers/STM32F4xx_HAL_Driver/Src/stm32f4xx_ll_usb.c ****   {
 4361              		.loc 1 1711 6 view .LVU1353
 4362 0008 13F4807F 		tst	r3, #256
 4363 000c 07D0     		beq	.L280
1711:Drivers/STM32F4xx_HAL_Driver/Src/stm32f4xx_ll_usb.c ****   {
 4364              		.loc 1 1711 47 discriminator 1 view .LVU1354
 4365 000e 0B79     		ldrb	r3, [r1, #4]	@ zero_extendqisi2
1711:Drivers/STM32F4xx_HAL_Driver/Src/stm32f4xx_ll_usb.c ****   {
 4366              		.loc 1 1711 41 discriminator 1 view .LVU1355
 4367 0010 2BB9     		cbnz	r3, .L280
1713:Drivers/STM32F4xx_HAL_Driver/Src/stm32f4xx_ll_usb.c ****     {
 4368              		.loc 1 1713 5 is_stmt 1 view .LVU1356
ARM GAS  /tmp/ccrTWjYe.s 			page 130


1713:Drivers/STM32F4xx_HAL_Driver/Src/stm32f4xx_ll_usb.c ****     {
 4369              		.loc 1 1713 8 is_stmt 0 view .LVU1357
 4370 0012 12B9     		cbnz	r2, .L281
1713:Drivers/STM32F4xx_HAL_Driver/Src/stm32f4xx_ll_usb.c ****     {
 4371              		.loc 1 1713 27 discriminator 1 view .LVU1358
 4372 0014 4B79     		ldrb	r3, [r1, #5]	@ zero_extendqisi2
1713:Drivers/STM32F4xx_HAL_Driver/Src/stm32f4xx_ll_usb.c ****     {
 4373              		.loc 1 1713 21 discriminator 1 view .LVU1359
 4374 0016 012B     		cmp	r3, #1
 4375 0018 11D0     		beq	.L294
 4376              	.L281:
1718:Drivers/STM32F4xx_HAL_Driver/Src/stm32f4xx_ll_usb.c ****     {
 4377              		.loc 1 1718 10 is_stmt 1 view .LVU1360
1718:Drivers/STM32F4xx_HAL_Driver/Src/stm32f4xx_ll_usb.c ****     {
 4378              		.loc 1 1718 13 is_stmt 0 view .LVU1361
 4379 001a 012A     		cmp	r2, #1
 4380 001c 13D0     		beq	.L295
 4381              	.L280:
1726:Drivers/STM32F4xx_HAL_Driver/Src/stm32f4xx_ll_usb.c ****   }
 4382              		.loc 1 1726 5 is_stmt 1 view .LVU1362
1730:Drivers/STM32F4xx_HAL_Driver/Src/stm32f4xx_ll_usb.c ****   {
 4383              		.loc 1 1730 3 view .LVU1363
1730:Drivers/STM32F4xx_HAL_Driver/Src/stm32f4xx_ll_usb.c ****   {
 4384              		.loc 1 1730 9 is_stmt 0 view .LVU1364
 4385 001e 0B69     		ldr	r3, [r1, #16]
1730:Drivers/STM32F4xx_HAL_Driver/Src/stm32f4xx_ll_usb.c ****   {
 4386              		.loc 1 1730 6 view .LVU1365
 4387 0020 E3B1     		cbz	r3, .L292
1732:Drivers/STM32F4xx_HAL_Driver/Src/stm32f4xx_ll_usb.c **** 
 4388              		.loc 1 1732 5 is_stmt 1 view .LVU1366
1732:Drivers/STM32F4xx_HAL_Driver/Src/stm32f4xx_ll_usb.c **** 
 4389              		.loc 1 1732 48 is_stmt 0 view .LVU1367
 4390 0022 0D89     		ldrh	r5, [r1, #8]
1732:Drivers/STM32F4xx_HAL_Driver/Src/stm32f4xx_ll_usb.c **** 
 4391              		.loc 1 1732 44 view .LVU1368
 4392 0024 2B44     		add	r3, r3, r5
1732:Drivers/STM32F4xx_HAL_Driver/Src/stm32f4xx_ll_usb.c **** 
 4393              		.loc 1 1732 61 view .LVU1369
 4394 0026 013B     		subs	r3, r3, #1
1732:Drivers/STM32F4xx_HAL_Driver/Src/stm32f4xx_ll_usb.c **** 
 4395              		.loc 1 1732 67 view .LVU1370
 4396 0028 B3FBF5F3 		udiv	r3, r3, r5
1732:Drivers/STM32F4xx_HAL_Driver/Src/stm32f4xx_ll_usb.c **** 
 4397              		.loc 1 1732 17 view .LVU1371
 4398 002c 9BB2     		uxth	r3, r3
 4399              	.LVL359:
1734:Drivers/STM32F4xx_HAL_Driver/Src/stm32f4xx_ll_usb.c ****     {
 4400              		.loc 1 1734 5 is_stmt 1 view .LVU1372
1734:Drivers/STM32F4xx_HAL_Driver/Src/stm32f4xx_ll_usb.c ****     {
 4401              		.loc 1 1734 8 is_stmt 0 view .LVU1373
 4402 002e B3F5807F 		cmp	r3, #256
 4403 0032 14D9     		bls	.L283
1736:Drivers/STM32F4xx_HAL_Driver/Src/stm32f4xx_ll_usb.c ****       hc->xfer_len = (uint32_t)num_packets * hc->max_packet;
 4404              		.loc 1 1736 7 is_stmt 1 view .LVU1374
 4405              	.LVL360:
1737:Drivers/STM32F4xx_HAL_Driver/Src/stm32f4xx_ll_usb.c ****     }
 4406              		.loc 1 1737 7 view .LVU1375
ARM GAS  /tmp/ccrTWjYe.s 			page 131


1737:Drivers/STM32F4xx_HAL_Driver/Src/stm32f4xx_ll_usb.c ****     }
 4407              		.loc 1 1737 44 is_stmt 0 view .LVU1376
 4408 0034 2D02     		lsls	r5, r5, #8
1737:Drivers/STM32F4xx_HAL_Driver/Src/stm32f4xx_ll_usb.c ****     }
 4409              		.loc 1 1737 20 view .LVU1377
 4410 0036 0D61     		str	r5, [r1, #16]
1736:Drivers/STM32F4xx_HAL_Driver/Src/stm32f4xx_ll_usb.c ****       hc->xfer_len = (uint32_t)num_packets * hc->max_packet;
 4411              		.loc 1 1736 19 view .LVU1378
 4412 0038 4FF48073 		mov	r3, #256
 4413 003c 0FE0     		b	.L283
 4414              	.LVL361:
 4415              	.L294:
1715:Drivers/STM32F4xx_HAL_Driver/Src/stm32f4xx_ll_usb.c ****       return HAL_OK;
 4416              		.loc 1 1715 7 is_stmt 1 view .LVU1379
1715:Drivers/STM32F4xx_HAL_Driver/Src/stm32f4xx_ll_usb.c ****       return HAL_OK;
 4417              		.loc 1 1715 13 is_stmt 0 view .LVU1380
 4418 003e 2146     		mov	r1, r4
 4419              	.LVL362:
1715:Drivers/STM32F4xx_HAL_Driver/Src/stm32f4xx_ll_usb.c ****       return HAL_OK;
 4420              		.loc 1 1715 13 view .LVU1381
 4421 0040 FFF7FEFF 		bl	USB_DoPing
 4422              	.LVL363:
1716:Drivers/STM32F4xx_HAL_Driver/Src/stm32f4xx_ll_usb.c ****     }
 4423              		.loc 1 1716 7 is_stmt 1 view .LVU1382
1716:Drivers/STM32F4xx_HAL_Driver/Src/stm32f4xx_ll_usb.c ****     }
 4424              		.loc 1 1716 14 is_stmt 0 view .LVU1383
 4425 0044 74E0     		b	.L282
 4426              	.LVL364:
 4427              	.L295:
1720:Drivers/STM32F4xx_HAL_Driver/Src/stm32f4xx_ll_usb.c ****       hc->do_ping = 0U;
 4428              		.loc 1 1720 7 is_stmt 1 view .LVU1384
1720:Drivers/STM32F4xx_HAL_Driver/Src/stm32f4xx_ll_usb.c ****       hc->do_ping = 0U;
 4429              		.loc 1 1720 33 is_stmt 0 view .LVU1385
 4430 0046 00EB4413 		add	r3, r0, r4, lsl #5
 4431 004a D3F80C55 		ldr	r5, [r3, #1292]
 4432 004e 25F06005 		bic	r5, r5, #96
 4433 0052 C3F80C55 		str	r5, [r3, #1292]
1721:Drivers/STM32F4xx_HAL_Driver/Src/stm32f4xx_ll_usb.c ****     }
 4434              		.loc 1 1721 7 is_stmt 1 view .LVU1386
1721:Drivers/STM32F4xx_HAL_Driver/Src/stm32f4xx_ll_usb.c ****     }
 4435              		.loc 1 1721 19 is_stmt 0 view .LVU1387
 4436 0056 0023     		movs	r3, #0
 4437 0058 4B71     		strb	r3, [r1, #5]
 4438 005a E0E7     		b	.L280
 4439              	.L292:
1742:Drivers/STM32F4xx_HAL_Driver/Src/stm32f4xx_ll_usb.c ****   }
 4440              		.loc 1 1742 17 view .LVU1388
 4441 005c 0123     		movs	r3, #1
 4442              	.L283:
 4443              	.LVL365:
1744:Drivers/STM32F4xx_HAL_Driver/Src/stm32f4xx_ll_usb.c ****   {
 4444              		.loc 1 1744 3 is_stmt 1 view .LVU1389
1744:Drivers/STM32F4xx_HAL_Driver/Src/stm32f4xx_ll_usb.c ****   {
 4445              		.loc 1 1744 9 is_stmt 0 view .LVU1390
 4446 005e CD78     		ldrb	r5, [r1, #3]	@ zero_extendqisi2
1744:Drivers/STM32F4xx_HAL_Driver/Src/stm32f4xx_ll_usb.c ****   {
 4447              		.loc 1 1744 6 view .LVU1391
ARM GAS  /tmp/ccrTWjYe.s 			page 132


 4448 0060 1DB1     		cbz	r5, .L284
1746:Drivers/STM32F4xx_HAL_Driver/Src/stm32f4xx_ll_usb.c ****   }
 4449              		.loc 1 1746 5 is_stmt 1 view .LVU1392
1746:Drivers/STM32F4xx_HAL_Driver/Src/stm32f4xx_ll_usb.c ****   }
 4450              		.loc 1 1746 46 is_stmt 0 view .LVU1393
 4451 0062 0D89     		ldrh	r5, [r1, #8]
1746:Drivers/STM32F4xx_HAL_Driver/Src/stm32f4xx_ll_usb.c ****   }
 4452              		.loc 1 1746 42 view .LVU1394
 4453 0064 05FB03F5 		mul	r5, r5, r3
1746:Drivers/STM32F4xx_HAL_Driver/Src/stm32f4xx_ll_usb.c ****   }
 4454              		.loc 1 1746 18 view .LVU1395
 4455 0068 0D61     		str	r5, [r1, #16]
 4456              	.L284:
1750:Drivers/STM32F4xx_HAL_Driver/Src/stm32f4xx_ll_usb.c ****                             (((uint32_t)num_packets << 19) & USB_OTG_HCTSIZ_PKTCNT) |
 4457              		.loc 1 1750 3 is_stmt 1 view .LVU1396
1750:Drivers/STM32F4xx_HAL_Driver/Src/stm32f4xx_ll_usb.c ****                             (((uint32_t)num_packets << 19) & USB_OTG_HCTSIZ_PKTCNT) |
 4458              		.loc 1 1750 32 is_stmt 0 view .LVU1397
 4459 006a 0D69     		ldr	r5, [r1, #16]
1750:Drivers/STM32F4xx_HAL_Driver/Src/stm32f4xx_ll_usb.c ****                             (((uint32_t)num_packets << 19) & USB_OTG_HCTSIZ_PKTCNT) |
 4460              		.loc 1 1750 43 view .LVU1398
 4461 006c C5F31205 		ubfx	r5, r5, #0, #19
1751:Drivers/STM32F4xx_HAL_Driver/Src/stm32f4xx_ll_usb.c ****                             (((uint32_t)hc->data_pid << 29) & USB_OTG_HCTSIZ_DPID);
 4462              		.loc 1 1751 60 view .LVU1399
 4463 0070 374E     		ldr	r6, .L296
 4464 0072 06EAC343 		and	r3, r6, r3, lsl #19
 4465              	.LVL366:
1750:Drivers/STM32F4xx_HAL_Driver/Src/stm32f4xx_ll_usb.c ****                             (((uint32_t)num_packets << 19) & USB_OTG_HCTSIZ_PKTCNT) |
 4466              		.loc 1 1750 68 view .LVU1400
 4467 0076 1D43     		orrs	r5, r5, r3
1752:Drivers/STM32F4xx_HAL_Driver/Src/stm32f4xx_ll_usb.c **** 
 4468              		.loc 1 1752 43 view .LVU1401
 4469 0078 8B7A     		ldrb	r3, [r1, #10]	@ zero_extendqisi2
1752:Drivers/STM32F4xx_HAL_Driver/Src/stm32f4xx_ll_usb.c **** 
 4470              		.loc 1 1752 54 view .LVU1402
 4471 007a 5B07     		lsls	r3, r3, #29
1752:Drivers/STM32F4xx_HAL_Driver/Src/stm32f4xx_ll_usb.c **** 
 4472              		.loc 1 1752 61 view .LVU1403
 4473 007c 03F0C043 		and	r3, r3, #1610612736
1750:Drivers/STM32F4xx_HAL_Driver/Src/stm32f4xx_ll_usb.c ****                             (((uint32_t)num_packets << 19) & USB_OTG_HCTSIZ_PKTCNT) |
 4474              		.loc 1 1750 3 view .LVU1404
 4475 0080 00EB4414 		add	r4, r0, r4, lsl #5
 4476              	.LVL367:
1751:Drivers/STM32F4xx_HAL_Driver/Src/stm32f4xx_ll_usb.c ****                             (((uint32_t)hc->data_pid << 29) & USB_OTG_HCTSIZ_DPID);
 4477              		.loc 1 1751 85 view .LVU1405
 4478 0084 1D43     		orrs	r5, r5, r3
1750:Drivers/STM32F4xx_HAL_Driver/Src/stm32f4xx_ll_usb.c ****                             (((uint32_t)num_packets << 19) & USB_OTG_HCTSIZ_PKTCNT) |
 4479              		.loc 1 1750 27 view .LVU1406
 4480 0086 C4F81055 		str	r5, [r4, #1296]
1754:Drivers/STM32F4xx_HAL_Driver/Src/stm32f4xx_ll_usb.c ****   {
 4481              		.loc 1 1754 3 is_stmt 1 view .LVU1407
1754:Drivers/STM32F4xx_HAL_Driver/Src/stm32f4xx_ll_usb.c ****   {
 4482              		.loc 1 1754 6 is_stmt 0 view .LVU1408
 4483 008a 12B1     		cbz	r2, .L285
1757:Drivers/STM32F4xx_HAL_Driver/Src/stm32f4xx_ll_usb.c ****   }
 4484              		.loc 1 1757 5 is_stmt 1 view .LVU1409
1757:Drivers/STM32F4xx_HAL_Driver/Src/stm32f4xx_ll_usb.c ****   }
 4485              		.loc 1 1757 42 is_stmt 0 view .LVU1410
ARM GAS  /tmp/ccrTWjYe.s 			page 133


 4486 008c CB68     		ldr	r3, [r1, #12]
1757:Drivers/STM32F4xx_HAL_Driver/Src/stm32f4xx_ll_usb.c ****   }
 4487              		.loc 1 1757 28 view .LVU1411
 4488 008e C4F81435 		str	r3, [r4, #1300]
 4489              	.L285:
1760:Drivers/STM32F4xx_HAL_Driver/Src/stm32f4xx_ll_usb.c ****   USBx_HC(ch_num)->HCCHAR &= ~USB_OTG_HCCHAR_ODDFRM;
 4490              		.loc 1 1760 3 is_stmt 1 view .LVU1412
1760:Drivers/STM32F4xx_HAL_Driver/Src/stm32f4xx_ll_usb.c ****   USBx_HC(ch_num)->HCCHAR &= ~USB_OTG_HCCHAR_ODDFRM;
 4491              		.loc 1 1760 29 is_stmt 0 view .LVU1413
 4492 0092 00F58066 		add	r6, r0, #1024
1760:Drivers/STM32F4xx_HAL_Driver/Src/stm32f4xx_ll_usb.c ****   USBx_HC(ch_num)->HCCHAR &= ~USB_OTG_HCCHAR_ODDFRM;
 4493              		.loc 1 1760 38 view .LVU1414
 4494 0096 B368     		ldr	r3, [r6, #8]
1760:Drivers/STM32F4xx_HAL_Driver/Src/stm32f4xx_ll_usb.c ****   USBx_HC(ch_num)->HCCHAR &= ~USB_OTG_HCCHAR_ODDFRM;
 4495              		.loc 1 1760 67 view .LVU1415
 4496 0098 13F0010F 		tst	r3, #1
 4497              	.LVL368:
1761:Drivers/STM32F4xx_HAL_Driver/Src/stm32f4xx_ll_usb.c ****   USBx_HC(ch_num)->HCCHAR |= (uint32_t)is_oddframe << 29;
 4498              		.loc 1 1761 3 is_stmt 1 view .LVU1416
1761:Drivers/STM32F4xx_HAL_Driver/Src/stm32f4xx_ll_usb.c ****   USBx_HC(ch_num)->HCCHAR |= (uint32_t)is_oddframe << 29;
 4499              		.loc 1 1761 27 is_stmt 0 view .LVU1417
 4500 009c D4F80035 		ldr	r3, [r4, #1280]
 4501 00a0 23F00053 		bic	r3, r3, #536870912
 4502 00a4 C4F80035 		str	r3, [r4, #1280]
1762:Drivers/STM32F4xx_HAL_Driver/Src/stm32f4xx_ll_usb.c **** 
 4503              		.loc 1 1762 3 is_stmt 1 view .LVU1418
1762:Drivers/STM32F4xx_HAL_Driver/Src/stm32f4xx_ll_usb.c **** 
 4504              		.loc 1 1762 27 is_stmt 0 view .LVU1419
 4505 00a8 D4F80035 		ldr	r3, [r4, #1280]
1762:Drivers/STM32F4xx_HAL_Driver/Src/stm32f4xx_ll_usb.c **** 
 4506              		.loc 1 1762 52 view .LVU1420
 4507 00ac 0CBF     		ite	eq
 4508 00ae 4FF00055 		moveq	r5, #536870912
 4509 00b2 0025     		movne	r5, #0
1762:Drivers/STM32F4xx_HAL_Driver/Src/stm32f4xx_ll_usb.c **** 
 4510              		.loc 1 1762 27 view .LVU1421
 4511 00b4 2B43     		orrs	r3, r3, r5
 4512 00b6 C4F80035 		str	r3, [r4, #1280]
1765:Drivers/STM32F4xx_HAL_Driver/Src/stm32f4xx_ll_usb.c ****   tmpreg &= ~USB_OTG_HCCHAR_CHDIS;
 4513              		.loc 1 1765 3 is_stmt 1 view .LVU1422
1765:Drivers/STM32F4xx_HAL_Driver/Src/stm32f4xx_ll_usb.c ****   tmpreg &= ~USB_OTG_HCCHAR_CHDIS;
 4514              		.loc 1 1765 27 is_stmt 0 view .LVU1423
 4515 00ba D4F80055 		ldr	r5, [r4, #1280]
1765:Drivers/STM32F4xx_HAL_Driver/Src/stm32f4xx_ll_usb.c ****   tmpreg &= ~USB_OTG_HCCHAR_CHDIS;
 4516              		.loc 1 1765 10 view .LVU1424
 4517 00be 254B     		ldr	r3, .L296+4
 4518 00c0 1D60     		str	r5, [r3]
1766:Drivers/STM32F4xx_HAL_Driver/Src/stm32f4xx_ll_usb.c **** 
 4519              		.loc 1 1766 3 is_stmt 1 view .LVU1425
1766:Drivers/STM32F4xx_HAL_Driver/Src/stm32f4xx_ll_usb.c **** 
 4520              		.loc 1 1766 10 is_stmt 0 view .LVU1426
 4521 00c2 1D68     		ldr	r5, [r3]
 4522 00c4 25F08045 		bic	r5, r5, #1073741824
 4523 00c8 1D60     		str	r5, [r3]
1769:Drivers/STM32F4xx_HAL_Driver/Src/stm32f4xx_ll_usb.c ****   {
 4524              		.loc 1 1769 3 is_stmt 1 view .LVU1427
1769:Drivers/STM32F4xx_HAL_Driver/Src/stm32f4xx_ll_usb.c ****   {
ARM GAS  /tmp/ccrTWjYe.s 			page 134


 4525              		.loc 1 1769 9 is_stmt 0 view .LVU1428
 4526 00ca CB78     		ldrb	r3, [r1, #3]	@ zero_extendqisi2
1769:Drivers/STM32F4xx_HAL_Driver/Src/stm32f4xx_ll_usb.c ****   {
 4527              		.loc 1 1769 6 view .LVU1429
 4528 00cc C3B1     		cbz	r3, .L286
 4529              	.LVL369:
1771:Drivers/STM32F4xx_HAL_Driver/Src/stm32f4xx_ll_usb.c ****   }
 4530              		.loc 1 1771 5 is_stmt 1 view .LVU1430
1771:Drivers/STM32F4xx_HAL_Driver/Src/stm32f4xx_ll_usb.c ****   }
 4531              		.loc 1 1771 12 is_stmt 0 view .LVU1431
 4532 00ce 214D     		ldr	r5, .L296+4
 4533 00d0 2B68     		ldr	r3, [r5]
 4534 00d2 43F40043 		orr	r3, r3, #32768
 4535 00d6 2B60     		str	r3, [r5]
 4536              	.L287:
1777:Drivers/STM32F4xx_HAL_Driver/Src/stm32f4xx_ll_usb.c ****   USBx_HC(ch_num)->HCCHAR = tmpreg;
 4537              		.loc 1 1777 3 is_stmt 1 view .LVU1432
1777:Drivers/STM32F4xx_HAL_Driver/Src/stm32f4xx_ll_usb.c ****   USBx_HC(ch_num)->HCCHAR = tmpreg;
 4538              		.loc 1 1777 10 is_stmt 0 view .LVU1433
 4539 00d8 1E4B     		ldr	r3, .L296+4
 4540 00da 1D68     		ldr	r5, [r3]
 4541 00dc 45F00045 		orr	r5, r5, #-2147483648
 4542 00e0 1D60     		str	r5, [r3]
1778:Drivers/STM32F4xx_HAL_Driver/Src/stm32f4xx_ll_usb.c **** 
 4543              		.loc 1 1778 3 is_stmt 1 view .LVU1434
1778:Drivers/STM32F4xx_HAL_Driver/Src/stm32f4xx_ll_usb.c **** 
 4544              		.loc 1 1778 27 is_stmt 0 view .LVU1435
 4545 00e2 1B68     		ldr	r3, [r3]
 4546 00e4 C4F80035 		str	r3, [r4, #1280]
1780:Drivers/STM32F4xx_HAL_Driver/Src/stm32f4xx_ll_usb.c ****   {
 4547              		.loc 1 1780 3 is_stmt 1 view .LVU1436
1780:Drivers/STM32F4xx_HAL_Driver/Src/stm32f4xx_ll_usb.c ****   {
 4548              		.loc 1 1780 6 is_stmt 0 view .LVU1437
 4549 00e8 12BB     		cbnz	r2, .L282
1782:Drivers/STM32F4xx_HAL_Driver/Src/stm32f4xx_ll_usb.c ****     {
 4550              		.loc 1 1782 5 is_stmt 1 view .LVU1438
1782:Drivers/STM32F4xx_HAL_Driver/Src/stm32f4xx_ll_usb.c ****     {
 4551              		.loc 1 1782 12 is_stmt 0 view .LVU1439
 4552 00ea CB78     		ldrb	r3, [r1, #3]	@ zero_extendqisi2
1782:Drivers/STM32F4xx_HAL_Driver/Src/stm32f4xx_ll_usb.c ****     {
 4553              		.loc 1 1782 8 view .LVU1440
 4554 00ec 03BB     		cbnz	r3, .L282
1782:Drivers/STM32F4xx_HAL_Driver/Src/stm32f4xx_ll_usb.c ****     {
 4555              		.loc 1 1782 36 discriminator 1 view .LVU1441
 4556 00ee 0B69     		ldr	r3, [r1, #16]
1782:Drivers/STM32F4xx_HAL_Driver/Src/stm32f4xx_ll_usb.c ****     {
 4557              		.loc 1 1782 30 discriminator 1 view .LVU1442
 4558 00f0 F3B1     		cbz	r3, .L282
1784:Drivers/STM32F4xx_HAL_Driver/Src/stm32f4xx_ll_usb.c ****       {
 4559              		.loc 1 1784 7 is_stmt 1 view .LVU1443
1784:Drivers/STM32F4xx_HAL_Driver/Src/stm32f4xx_ll_usb.c ****       {
 4560              		.loc 1 1784 17 is_stmt 0 view .LVU1444
 4561 00f2 CA79     		ldrb	r2, [r1, #7]	@ zero_extendqisi2
 4562              	.LVL370:
1784:Drivers/STM32F4xx_HAL_Driver/Src/stm32f4xx_ll_usb.c ****       {
 4563              		.loc 1 1784 7 view .LVU1445
 4564 00f4 032A     		cmp	r2, #3
ARM GAS  /tmp/ccrTWjYe.s 			page 135


 4565 00f6 14D8     		bhi	.L288
 4566 00f8 DFE802F0 		tbb	[pc, r2]
 4567              	.L290:
 4568 00fc 08       		.byte	(.L291-.L290)/2
 4569 00fd 1D       		.byte	(.L289-.L290)/2
 4570 00fe 08       		.byte	(.L291-.L290)/2
 4571 00ff 1D       		.byte	(.L289-.L290)/2
 4572              	.LVL371:
 4573              		.p2align 1
 4574              	.L286:
1775:Drivers/STM32F4xx_HAL_Driver/Src/stm32f4xx_ll_usb.c ****   }
 4575              		.loc 1 1775 5 is_stmt 1 view .LVU1446
1775:Drivers/STM32F4xx_HAL_Driver/Src/stm32f4xx_ll_usb.c ****   }
 4576              		.loc 1 1775 12 is_stmt 0 view .LVU1447
 4577 0100 144D     		ldr	r5, .L296+4
 4578 0102 2B68     		ldr	r3, [r5]
 4579 0104 23F40043 		bic	r3, r3, #32768
 4580 0108 2B60     		str	r3, [r5]
 4581 010a E5E7     		b	.L287
 4582              	.LVL372:
 4583              	.L291:
1790:Drivers/STM32F4xx_HAL_Driver/Src/stm32f4xx_ll_usb.c **** 
 4584              		.loc 1 1790 11 is_stmt 1 view .LVU1448
1790:Drivers/STM32F4xx_HAL_Driver/Src/stm32f4xx_ll_usb.c **** 
 4585              		.loc 1 1790 48 is_stmt 0 view .LVU1449
 4586 010c 0333     		adds	r3, r3, #3
 4587              	.LVL373:
1793:Drivers/STM32F4xx_HAL_Driver/Src/stm32f4xx_ll_usb.c ****           {
 4588              		.loc 1 1793 11 is_stmt 1 view .LVU1450
1793:Drivers/STM32F4xx_HAL_Driver/Src/stm32f4xx_ll_usb.c ****           {
 4589              		.loc 1 1793 32 is_stmt 0 view .LVU1451
 4590 010e C26A     		ldr	r2, [r0, #44]
1793:Drivers/STM32F4xx_HAL_Driver/Src/stm32f4xx_ll_usb.c ****           {
 4591              		.loc 1 1793 43 view .LVU1452
 4592 0110 92B2     		uxth	r2, r2
1793:Drivers/STM32F4xx_HAL_Driver/Src/stm32f4xx_ll_usb.c ****           {
 4593              		.loc 1 1793 14 view .LVU1453
 4594 0112 C3F38F03 		ubfx	r3, r3, #2, #16
 4595              	.LVL374:
1793:Drivers/STM32F4xx_HAL_Driver/Src/stm32f4xx_ll_usb.c ****           {
 4596              		.loc 1 1793 14 view .LVU1454
 4597 0116 9A42     		cmp	r2, r3
 4598 0118 03D2     		bcs	.L288
1796:Drivers/STM32F4xx_HAL_Driver/Src/stm32f4xx_ll_usb.c ****           }
 4599              		.loc 1 1796 13 is_stmt 1 view .LVU1455
1796:Drivers/STM32F4xx_HAL_Driver/Src/stm32f4xx_ll_usb.c ****           }
 4600              		.loc 1 1796 27 is_stmt 0 view .LVU1456
 4601 011a 8369     		ldr	r3, [r0, #24]
 4602 011c 43F02003 		orr	r3, r3, #32
 4603 0120 8361     		str	r3, [r0, #24]
 4604              	.LVL375:
 4605              	.L288:
1817:Drivers/STM32F4xx_HAL_Driver/Src/stm32f4xx_ll_usb.c ****     }
 4606              		.loc 1 1817 7 is_stmt 1 view .LVU1457
1817:Drivers/STM32F4xx_HAL_Driver/Src/stm32f4xx_ll_usb.c ****     }
 4607              		.loc 1 1817 13 is_stmt 0 view .LVU1458
 4608 0122 0023     		movs	r3, #0
ARM GAS  /tmp/ccrTWjYe.s 			page 136


 4609 0124 0093     		str	r3, [sp]
 4610 0126 0B8A     		ldrh	r3, [r1, #16]
 4611 0128 4A78     		ldrb	r2, [r1, #1]	@ zero_extendqisi2
 4612 012a C968     		ldr	r1, [r1, #12]
 4613              	.LVL376:
1817:Drivers/STM32F4xx_HAL_Driver/Src/stm32f4xx_ll_usb.c ****     }
 4614              		.loc 1 1817 13 view .LVU1459
 4615 012c FFF7FEFF 		bl	USB_WritePacket
 4616              	.LVL377:
 4617              	.L282:
1822:Drivers/STM32F4xx_HAL_Driver/Src/stm32f4xx_ll_usb.c **** 
 4618              		.loc 1 1822 1 view .LVU1460
 4619 0130 0020     		movs	r0, #0
 4620 0132 02B0     		add	sp, sp, #8
 4621              	.LCFI61:
 4622              		.cfi_remember_state
 4623              		.cfi_def_cfa_offset 16
 4624              		@ sp needed
 4625 0134 70BD     		pop	{r4, r5, r6, pc}
 4626              	.LVL378:
 4627              	.L289:
 4628              	.LCFI62:
 4629              		.cfi_restore_state
1803:Drivers/STM32F4xx_HAL_Driver/Src/stm32f4xx_ll_usb.c ****           /* check if there is enough space in FIFO space */
 4630              		.loc 1 1803 11 is_stmt 1 view .LVU1461
1803:Drivers/STM32F4xx_HAL_Driver/Src/stm32f4xx_ll_usb.c ****           /* check if there is enough space in FIFO space */
 4631              		.loc 1 1803 48 is_stmt 0 view .LVU1462
 4632 0136 0333     		adds	r3, r3, #3
 4633              	.LVL379:
1805:Drivers/STM32F4xx_HAL_Driver/Src/stm32f4xx_ll_usb.c ****           {
 4634              		.loc 1 1805 11 is_stmt 1 view .LVU1463
1805:Drivers/STM32F4xx_HAL_Driver/Src/stm32f4xx_ll_usb.c ****           {
 4635              		.loc 1 1805 37 is_stmt 0 view .LVU1464
 4636 0138 3269     		ldr	r2, [r6, #16]
1805:Drivers/STM32F4xx_HAL_Driver/Src/stm32f4xx_ll_usb.c ****           {
 4637              		.loc 1 1805 47 view .LVU1465
 4638 013a 92B2     		uxth	r2, r2
1805:Drivers/STM32F4xx_HAL_Driver/Src/stm32f4xx_ll_usb.c ****           {
 4639              		.loc 1 1805 14 view .LVU1466
 4640 013c C3F38F03 		ubfx	r3, r3, #2, #16
 4641              	.LVL380:
1805:Drivers/STM32F4xx_HAL_Driver/Src/stm32f4xx_ll_usb.c ****           {
 4642              		.loc 1 1805 14 view .LVU1467
 4643 0140 9A42     		cmp	r2, r3
 4644 0142 EED2     		bcs	.L288
1808:Drivers/STM32F4xx_HAL_Driver/Src/stm32f4xx_ll_usb.c ****           }
 4645              		.loc 1 1808 13 is_stmt 1 view .LVU1468
1808:Drivers/STM32F4xx_HAL_Driver/Src/stm32f4xx_ll_usb.c ****           }
 4646              		.loc 1 1808 27 is_stmt 0 view .LVU1469
 4647 0144 8369     		ldr	r3, [r0, #24]
 4648 0146 43F08063 		orr	r3, r3, #67108864
 4649 014a 8361     		str	r3, [r0, #24]
 4650              	.LVL381:
1808:Drivers/STM32F4xx_HAL_Driver/Src/stm32f4xx_ll_usb.c ****           }
 4651              		.loc 1 1808 27 view .LVU1470
 4652 014c E9E7     		b	.L288
 4653              	.L297:
ARM GAS  /tmp/ccrTWjYe.s 			page 137


 4654 014e 00BF     		.align	2
 4655              	.L296:
 4656 0150 0000F81F 		.word	536346624
 4657 0154 00000000 		.word	.LANCHOR0
 4658              		.cfi_endproc
 4659              	.LFE171:
 4661              		.section	.text.USB_StopHost,"ax",%progbits
 4662              		.align	1
 4663              		.global	USB_StopHost
 4664              		.syntax unified
 4665              		.thumb
 4666              		.thumb_func
 4667              		.fpu fpv4-sp-d16
 4669              	USB_StopHost:
 4670              	.LVL382:
 4671              	.LFB175:
1926:Drivers/STM32F4xx_HAL_Driver/Src/stm32f4xx_ll_usb.c **** 
1927:Drivers/STM32F4xx_HAL_Driver/Src/stm32f4xx_ll_usb.c **** /**
1928:Drivers/STM32F4xx_HAL_Driver/Src/stm32f4xx_ll_usb.c ****   * @brief  Stop Host Core
1929:Drivers/STM32F4xx_HAL_Driver/Src/stm32f4xx_ll_usb.c ****   * @param  USBx  Selected device
1930:Drivers/STM32F4xx_HAL_Driver/Src/stm32f4xx_ll_usb.c ****   * @retval HAL state
1931:Drivers/STM32F4xx_HAL_Driver/Src/stm32f4xx_ll_usb.c ****   */
1932:Drivers/STM32F4xx_HAL_Driver/Src/stm32f4xx_ll_usb.c **** HAL_StatusTypeDef USB_StopHost(USB_OTG_GlobalTypeDef *USBx)
1933:Drivers/STM32F4xx_HAL_Driver/Src/stm32f4xx_ll_usb.c **** {
 4672              		.loc 1 1933 1 is_stmt 1 view -0
 4673              		.cfi_startproc
 4674              		@ args = 0, pretend = 0, frame = 0
 4675              		@ frame_needed = 0, uses_anonymous_args = 0
 4676              		.loc 1 1933 1 is_stmt 0 view .LVU1472
 4677 0000 70B5     		push	{r4, r5, r6, lr}
 4678              	.LCFI63:
 4679              		.cfi_def_cfa_offset 16
 4680              		.cfi_offset 4, -16
 4681              		.cfi_offset 5, -12
 4682              		.cfi_offset 6, -8
 4683              		.cfi_offset 14, -4
 4684 0002 0546     		mov	r5, r0
1934:Drivers/STM32F4xx_HAL_Driver/Src/stm32f4xx_ll_usb.c ****   uint32_t USBx_BASE = (uint32_t)USBx;
 4685              		.loc 1 1934 3 is_stmt 1 view .LVU1473
 4686              		.loc 1 1934 12 is_stmt 0 view .LVU1474
 4687 0004 0446     		mov	r4, r0
 4688              	.LVL383:
1935:Drivers/STM32F4xx_HAL_Driver/Src/stm32f4xx_ll_usb.c ****   uint32_t count = 0U;
 4689              		.loc 1 1935 3 is_stmt 1 view .LVU1475
1936:Drivers/STM32F4xx_HAL_Driver/Src/stm32f4xx_ll_usb.c ****   uint32_t value;
 4690              		.loc 1 1936 3 view .LVU1476
1937:Drivers/STM32F4xx_HAL_Driver/Src/stm32f4xx_ll_usb.c ****   uint32_t i;
 4691              		.loc 1 1937 3 view .LVU1477
1938:Drivers/STM32F4xx_HAL_Driver/Src/stm32f4xx_ll_usb.c **** 
1939:Drivers/STM32F4xx_HAL_Driver/Src/stm32f4xx_ll_usb.c **** 
1940:Drivers/STM32F4xx_HAL_Driver/Src/stm32f4xx_ll_usb.c ****   (void)USB_DisableGlobalInt(USBx);
 4692              		.loc 1 1940 3 view .LVU1478
 4693              		.loc 1 1940 9 is_stmt 0 view .LVU1479
 4694 0006 FFF7FEFF 		bl	USB_DisableGlobalInt
 4695              	.LVL384:
1941:Drivers/STM32F4xx_HAL_Driver/Src/stm32f4xx_ll_usb.c **** 
1942:Drivers/STM32F4xx_HAL_Driver/Src/stm32f4xx_ll_usb.c ****   /* Flush FIFO */
ARM GAS  /tmp/ccrTWjYe.s 			page 138


1943:Drivers/STM32F4xx_HAL_Driver/Src/stm32f4xx_ll_usb.c ****   (void)USB_FlushTxFifo(USBx, 0x10U);
 4696              		.loc 1 1943 3 is_stmt 1 view .LVU1480
 4697              		.loc 1 1943 9 is_stmt 0 view .LVU1481
 4698 000a 1021     		movs	r1, #16
 4699 000c 2846     		mov	r0, r5
 4700 000e FFF7FEFF 		bl	USB_FlushTxFifo
 4701              	.LVL385:
1944:Drivers/STM32F4xx_HAL_Driver/Src/stm32f4xx_ll_usb.c ****   (void)USB_FlushRxFifo(USBx);
 4702              		.loc 1 1944 3 is_stmt 1 view .LVU1482
 4703              		.loc 1 1944 9 is_stmt 0 view .LVU1483
 4704 0012 2846     		mov	r0, r5
 4705 0014 FFF7FEFF 		bl	USB_FlushRxFifo
 4706              	.LVL386:
1945:Drivers/STM32F4xx_HAL_Driver/Src/stm32f4xx_ll_usb.c **** 
1946:Drivers/STM32F4xx_HAL_Driver/Src/stm32f4xx_ll_usb.c ****   /* Flush out any leftover queued requests. */
1947:Drivers/STM32F4xx_HAL_Driver/Src/stm32f4xx_ll_usb.c ****   for (i = 0U; i <= 15U; i++)
 4707              		.loc 1 1947 3 is_stmt 1 view .LVU1484
 4708              		.loc 1 1947 10 is_stmt 0 view .LVU1485
 4709 0018 0022     		movs	r2, #0
 4710              		.loc 1 1947 3 view .LVU1486
 4711 001a 0AE0     		b	.L299
 4712              	.LVL387:
 4713              	.L300:
1948:Drivers/STM32F4xx_HAL_Driver/Src/stm32f4xx_ll_usb.c ****   {
1949:Drivers/STM32F4xx_HAL_Driver/Src/stm32f4xx_ll_usb.c ****     value = USBx_HC(i)->HCCHAR;
 4714              		.loc 1 1949 5 is_stmt 1 discriminator 3 view .LVU1487
 4715              		.loc 1 1949 13 is_stmt 0 discriminator 3 view .LVU1488
 4716 001c 04EB4211 		add	r1, r4, r2, lsl #5
 4717              		.loc 1 1949 11 discriminator 3 view .LVU1489
 4718 0020 D1F80035 		ldr	r3, [r1, #1280]
 4719              	.LVL388:
1950:Drivers/STM32F4xx_HAL_Driver/Src/stm32f4xx_ll_usb.c ****     value |=  USB_OTG_HCCHAR_CHDIS;
 4720              		.loc 1 1950 5 is_stmt 1 discriminator 3 view .LVU1490
1951:Drivers/STM32F4xx_HAL_Driver/Src/stm32f4xx_ll_usb.c ****     value &= ~USB_OTG_HCCHAR_CHENA;
 4721              		.loc 1 1951 5 discriminator 3 view .LVU1491
1952:Drivers/STM32F4xx_HAL_Driver/Src/stm32f4xx_ll_usb.c ****     value &= ~USB_OTG_HCCHAR_EPDIR;
 4722              		.loc 1 1952 5 discriminator 3 view .LVU1492
 4723 0024 23F08023 		bic	r3, r3, #-2147450880
 4724              	.LVL389:
 4725              		.loc 1 1952 11 is_stmt 0 discriminator 3 view .LVU1493
 4726 0028 43F08043 		orr	r3, r3, #1073741824
 4727              	.LVL390:
1953:Drivers/STM32F4xx_HAL_Driver/Src/stm32f4xx_ll_usb.c ****     USBx_HC(i)->HCCHAR = value;
 4728              		.loc 1 1953 5 is_stmt 1 discriminator 3 view .LVU1494
 4729              		.loc 1 1953 24 is_stmt 0 discriminator 3 view .LVU1495
 4730 002c C1F80035 		str	r3, [r1, #1280]
1947:Drivers/STM32F4xx_HAL_Driver/Src/stm32f4xx_ll_usb.c ****   {
 4731              		.loc 1 1947 27 discriminator 3 view .LVU1496
 4732 0030 0132     		adds	r2, r2, #1
 4733              	.LVL391:
 4734              	.L299:
1947:Drivers/STM32F4xx_HAL_Driver/Src/stm32f4xx_ll_usb.c ****   {
 4735              		.loc 1 1947 3 discriminator 1 view .LVU1497
 4736 0032 0F2A     		cmp	r2, #15
 4737 0034 F2D9     		bls	.L300
1954:Drivers/STM32F4xx_HAL_Driver/Src/stm32f4xx_ll_usb.c ****   }
1955:Drivers/STM32F4xx_HAL_Driver/Src/stm32f4xx_ll_usb.c **** 
ARM GAS  /tmp/ccrTWjYe.s 			page 139


1956:Drivers/STM32F4xx_HAL_Driver/Src/stm32f4xx_ll_usb.c ****   /* Halt all channels to put them into a known state. */
1957:Drivers/STM32F4xx_HAL_Driver/Src/stm32f4xx_ll_usb.c ****   for (i = 0U; i <= 15U; i++)
 4738              		.loc 1 1957 10 view .LVU1498
 4739 0036 0020     		movs	r0, #0
1935:Drivers/STM32F4xx_HAL_Driver/Src/stm32f4xx_ll_usb.c ****   uint32_t value;
 4740              		.loc 1 1935 12 view .LVU1499
 4741 0038 0346     		mov	r3, r0
 4742 003a 00E0     		b	.L301
 4743              	.LVL392:
 4744              	.L302:
 4745              		.loc 1 1957 27 discriminator 2 view .LVU1500
 4746 003c 0130     		adds	r0, r0, #1
 4747              	.LVL393:
 4748              	.L301:
 4749              		.loc 1 1957 3 discriminator 1 view .LVU1501
 4750 003e 0F28     		cmp	r0, #15
 4751 0040 13D8     		bhi	.L306
1958:Drivers/STM32F4xx_HAL_Driver/Src/stm32f4xx_ll_usb.c ****   {
1959:Drivers/STM32F4xx_HAL_Driver/Src/stm32f4xx_ll_usb.c ****     value = USBx_HC(i)->HCCHAR;
 4752              		.loc 1 1959 5 is_stmt 1 view .LVU1502
 4753              		.loc 1 1959 13 is_stmt 0 view .LVU1503
 4754 0042 04EB4016 		add	r6, r4, r0, lsl #5
 4755 0046 06F5A061 		add	r1, r6, #1280
 4756              		.loc 1 1959 11 view .LVU1504
 4757 004a D6F80025 		ldr	r2, [r6, #1280]
 4758              	.LVL394:
1960:Drivers/STM32F4xx_HAL_Driver/Src/stm32f4xx_ll_usb.c ****     value |= USB_OTG_HCCHAR_CHDIS;
 4759              		.loc 1 1960 5 is_stmt 1 view .LVU1505
1961:Drivers/STM32F4xx_HAL_Driver/Src/stm32f4xx_ll_usb.c ****     value |= USB_OTG_HCCHAR_CHENA;
 4760              		.loc 1 1961 5 view .LVU1506
1962:Drivers/STM32F4xx_HAL_Driver/Src/stm32f4xx_ll_usb.c ****     value &= ~USB_OTG_HCCHAR_EPDIR;
 4761              		.loc 1 1962 5 view .LVU1507
 4762 004e 22F40042 		bic	r2, r2, #32768
 4763              	.LVL395:
 4764              		.loc 1 1962 11 is_stmt 0 view .LVU1508
 4765 0052 42F04042 		orr	r2, r2, #-1073741824
 4766              	.LVL396:
1963:Drivers/STM32F4xx_HAL_Driver/Src/stm32f4xx_ll_usb.c ****     USBx_HC(i)->HCCHAR = value;
 4767              		.loc 1 1963 5 is_stmt 1 view .LVU1509
 4768              		.loc 1 1963 24 is_stmt 0 view .LVU1510
 4769 0056 C6F80025 		str	r2, [r6, #1280]
 4770              	.LVL397:
 4771              	.L303:
1964:Drivers/STM32F4xx_HAL_Driver/Src/stm32f4xx_ll_usb.c **** 
1965:Drivers/STM32F4xx_HAL_Driver/Src/stm32f4xx_ll_usb.c ****     do
 4772              		.loc 1 1965 5 is_stmt 1 view .LVU1511
1966:Drivers/STM32F4xx_HAL_Driver/Src/stm32f4xx_ll_usb.c ****     {
1967:Drivers/STM32F4xx_HAL_Driver/Src/stm32f4xx_ll_usb.c ****       if (++count > 1000U)
 4773              		.loc 1 1967 7 view .LVU1512
 4774              		.loc 1 1967 10 is_stmt 0 view .LVU1513
 4775 005a 0133     		adds	r3, r3, #1
 4776              	.LVL398:
 4777              		.loc 1 1967 10 view .LVU1514
 4778 005c B3F57A7F 		cmp	r3, #1000
 4779 0060 ECD8     		bhi	.L302
1968:Drivers/STM32F4xx_HAL_Driver/Src/stm32f4xx_ll_usb.c ****       {
1969:Drivers/STM32F4xx_HAL_Driver/Src/stm32f4xx_ll_usb.c ****         break;
ARM GAS  /tmp/ccrTWjYe.s 			page 140


1970:Drivers/STM32F4xx_HAL_Driver/Src/stm32f4xx_ll_usb.c ****       }
1971:Drivers/STM32F4xx_HAL_Driver/Src/stm32f4xx_ll_usb.c ****     }
1972:Drivers/STM32F4xx_HAL_Driver/Src/stm32f4xx_ll_usb.c ****     while ((USBx_HC(i)->HCCHAR & USB_OTG_HCCHAR_CHENA) == USB_OTG_HCCHAR_CHENA);
 4780              		.loc 1 1972 23 view .LVU1515
 4781 0062 0A68     		ldr	r2, [r1]
 4782              		.loc 1 1972 5 view .LVU1516
 4783 0064 002A     		cmp	r2, #0
 4784 0066 F8DB     		blt	.L303
 4785 0068 E8E7     		b	.L302
 4786              	.LVL399:
 4787              	.L306:
1973:Drivers/STM32F4xx_HAL_Driver/Src/stm32f4xx_ll_usb.c ****   }
1974:Drivers/STM32F4xx_HAL_Driver/Src/stm32f4xx_ll_usb.c **** 
1975:Drivers/STM32F4xx_HAL_Driver/Src/stm32f4xx_ll_usb.c ****   /* Clear any pending Host interrupts */
1976:Drivers/STM32F4xx_HAL_Driver/Src/stm32f4xx_ll_usb.c ****   USBx_HOST->HAINT = 0xFFFFFFFFU;
 4788              		.loc 1 1976 3 is_stmt 1 view .LVU1517
 4789              		.loc 1 1976 20 is_stmt 0 view .LVU1518
 4790 006a 4FF0FF33 		mov	r3, #-1
 4791              	.LVL400:
 4792              		.loc 1 1976 20 view .LVU1519
 4793 006e C5F81434 		str	r3, [r5, #1044]
1977:Drivers/STM32F4xx_HAL_Driver/Src/stm32f4xx_ll_usb.c ****   USBx->GINTSTS = 0xFFFFFFFFU;
 4794              		.loc 1 1977 3 is_stmt 1 view .LVU1520
 4795              		.loc 1 1977 17 is_stmt 0 view .LVU1521
 4796 0072 6B61     		str	r3, [r5, #20]
1978:Drivers/STM32F4xx_HAL_Driver/Src/stm32f4xx_ll_usb.c ****   (void)USB_EnableGlobalInt(USBx);
 4797              		.loc 1 1978 3 is_stmt 1 view .LVU1522
 4798              		.loc 1 1978 9 is_stmt 0 view .LVU1523
 4799 0074 2846     		mov	r0, r5
 4800              	.LVL401:
 4801              		.loc 1 1978 9 view .LVU1524
 4802 0076 FFF7FEFF 		bl	USB_EnableGlobalInt
 4803              	.LVL402:
1979:Drivers/STM32F4xx_HAL_Driver/Src/stm32f4xx_ll_usb.c **** 
1980:Drivers/STM32F4xx_HAL_Driver/Src/stm32f4xx_ll_usb.c ****   return HAL_OK;
 4804              		.loc 1 1980 3 is_stmt 1 view .LVU1525
1981:Drivers/STM32F4xx_HAL_Driver/Src/stm32f4xx_ll_usb.c **** }
 4805              		.loc 1 1981 1 is_stmt 0 view .LVU1526
 4806 007a 0020     		movs	r0, #0
 4807 007c 70BD     		pop	{r4, r5, r6, pc}
 4808              		.loc 1 1981 1 view .LVU1527
 4809              		.cfi_endproc
 4810              	.LFE175:
 4812              		.section	.text.USB_ActivateRemoteWakeup,"ax",%progbits
 4813              		.align	1
 4814              		.global	USB_ActivateRemoteWakeup
 4815              		.syntax unified
 4816              		.thumb
 4817              		.thumb_func
 4818              		.fpu fpv4-sp-d16
 4820              	USB_ActivateRemoteWakeup:
 4821              	.LVL403:
 4822              	.LFB176:
1982:Drivers/STM32F4xx_HAL_Driver/Src/stm32f4xx_ll_usb.c **** 
1983:Drivers/STM32F4xx_HAL_Driver/Src/stm32f4xx_ll_usb.c **** /**
1984:Drivers/STM32F4xx_HAL_Driver/Src/stm32f4xx_ll_usb.c ****   * @brief  USB_ActivateRemoteWakeup active remote wakeup signalling
1985:Drivers/STM32F4xx_HAL_Driver/Src/stm32f4xx_ll_usb.c ****   * @param  USBx Selected device
ARM GAS  /tmp/ccrTWjYe.s 			page 141


1986:Drivers/STM32F4xx_HAL_Driver/Src/stm32f4xx_ll_usb.c ****   * @retval HAL status
1987:Drivers/STM32F4xx_HAL_Driver/Src/stm32f4xx_ll_usb.c ****   */
1988:Drivers/STM32F4xx_HAL_Driver/Src/stm32f4xx_ll_usb.c **** HAL_StatusTypeDef USB_ActivateRemoteWakeup(USB_OTG_GlobalTypeDef *USBx)
1989:Drivers/STM32F4xx_HAL_Driver/Src/stm32f4xx_ll_usb.c **** {
 4823              		.loc 1 1989 1 is_stmt 1 view -0
 4824              		.cfi_startproc
 4825              		@ args = 0, pretend = 0, frame = 0
 4826              		@ frame_needed = 0, uses_anonymous_args = 0
 4827              		@ link register save eliminated.
1990:Drivers/STM32F4xx_HAL_Driver/Src/stm32f4xx_ll_usb.c ****   uint32_t USBx_BASE = (uint32_t)USBx;
 4828              		.loc 1 1990 3 view .LVU1529
1991:Drivers/STM32F4xx_HAL_Driver/Src/stm32f4xx_ll_usb.c **** 
1992:Drivers/STM32F4xx_HAL_Driver/Src/stm32f4xx_ll_usb.c ****   if ((USBx_DEVICE->DSTS & USB_OTG_DSTS_SUSPSTS) == USB_OTG_DSTS_SUSPSTS)
 4829              		.loc 1 1992 3 view .LVU1530
 4830              		.loc 1 1992 19 is_stmt 0 view .LVU1531
 4831 0000 D0F80838 		ldr	r3, [r0, #2056]
 4832              		.loc 1 1992 8 view .LVU1532
 4833 0004 00F50060 		add	r0, r0, #2048
 4834              	.LVL404:
 4835              		.loc 1 1992 6 view .LVU1533
 4836 0008 13F0010F 		tst	r3, #1
 4837 000c 03D0     		beq	.L308
1993:Drivers/STM32F4xx_HAL_Driver/Src/stm32f4xx_ll_usb.c ****   {
1994:Drivers/STM32F4xx_HAL_Driver/Src/stm32f4xx_ll_usb.c ****     /* active Remote wakeup signalling */
1995:Drivers/STM32F4xx_HAL_Driver/Src/stm32f4xx_ll_usb.c ****     USBx_DEVICE->DCTL |= USB_OTG_DCTL_RWUSIG;
 4838              		.loc 1 1995 5 is_stmt 1 view .LVU1534
 4839              		.loc 1 1995 23 is_stmt 0 view .LVU1535
 4840 000e 4368     		ldr	r3, [r0, #4]
 4841 0010 43F00103 		orr	r3, r3, #1
 4842 0014 4360     		str	r3, [r0, #4]
 4843              	.L308:
1996:Drivers/STM32F4xx_HAL_Driver/Src/stm32f4xx_ll_usb.c ****   }
1997:Drivers/STM32F4xx_HAL_Driver/Src/stm32f4xx_ll_usb.c **** 
1998:Drivers/STM32F4xx_HAL_Driver/Src/stm32f4xx_ll_usb.c ****   return HAL_OK;
 4844              		.loc 1 1998 3 is_stmt 1 view .LVU1536
1999:Drivers/STM32F4xx_HAL_Driver/Src/stm32f4xx_ll_usb.c **** }
 4845              		.loc 1 1999 1 is_stmt 0 view .LVU1537
 4846 0016 0020     		movs	r0, #0
 4847              	.LVL405:
 4848              		.loc 1 1999 1 view .LVU1538
 4849 0018 7047     		bx	lr
 4850              		.cfi_endproc
 4851              	.LFE176:
 4853              		.section	.text.USB_DeActivateRemoteWakeup,"ax",%progbits
 4854              		.align	1
 4855              		.global	USB_DeActivateRemoteWakeup
 4856              		.syntax unified
 4857              		.thumb
 4858              		.thumb_func
 4859              		.fpu fpv4-sp-d16
 4861              	USB_DeActivateRemoteWakeup:
 4862              	.LVL406:
 4863              	.LFB177:
2000:Drivers/STM32F4xx_HAL_Driver/Src/stm32f4xx_ll_usb.c **** 
2001:Drivers/STM32F4xx_HAL_Driver/Src/stm32f4xx_ll_usb.c **** /**
2002:Drivers/STM32F4xx_HAL_Driver/Src/stm32f4xx_ll_usb.c ****   * @brief  USB_DeActivateRemoteWakeup de-active remote wakeup signalling
2003:Drivers/STM32F4xx_HAL_Driver/Src/stm32f4xx_ll_usb.c ****   * @param  USBx Selected device
ARM GAS  /tmp/ccrTWjYe.s 			page 142


2004:Drivers/STM32F4xx_HAL_Driver/Src/stm32f4xx_ll_usb.c ****   * @retval HAL status
2005:Drivers/STM32F4xx_HAL_Driver/Src/stm32f4xx_ll_usb.c ****   */
2006:Drivers/STM32F4xx_HAL_Driver/Src/stm32f4xx_ll_usb.c **** HAL_StatusTypeDef USB_DeActivateRemoteWakeup(USB_OTG_GlobalTypeDef *USBx)
2007:Drivers/STM32F4xx_HAL_Driver/Src/stm32f4xx_ll_usb.c **** {
 4864              		.loc 1 2007 1 is_stmt 1 view -0
 4865              		.cfi_startproc
 4866              		@ args = 0, pretend = 0, frame = 0
 4867              		@ frame_needed = 0, uses_anonymous_args = 0
 4868              		@ link register save eliminated.
2008:Drivers/STM32F4xx_HAL_Driver/Src/stm32f4xx_ll_usb.c ****   uint32_t USBx_BASE = (uint32_t)USBx;
 4869              		.loc 1 2008 3 view .LVU1540
2009:Drivers/STM32F4xx_HAL_Driver/Src/stm32f4xx_ll_usb.c **** 
2010:Drivers/STM32F4xx_HAL_Driver/Src/stm32f4xx_ll_usb.c ****   /* active Remote wakeup signalling */
2011:Drivers/STM32F4xx_HAL_Driver/Src/stm32f4xx_ll_usb.c ****   USBx_DEVICE->DCTL &= ~(USB_OTG_DCTL_RWUSIG);
 4870              		.loc 1 2011 3 view .LVU1541
 4871              		.loc 1 2011 21 is_stmt 0 view .LVU1542
 4872 0000 D0F80438 		ldr	r3, [r0, #2052]
 4873 0004 23F00103 		bic	r3, r3, #1
 4874 0008 C0F80438 		str	r3, [r0, #2052]
2012:Drivers/STM32F4xx_HAL_Driver/Src/stm32f4xx_ll_usb.c **** 
2013:Drivers/STM32F4xx_HAL_Driver/Src/stm32f4xx_ll_usb.c ****   return HAL_OK;
 4875              		.loc 1 2013 3 is_stmt 1 view .LVU1543
2014:Drivers/STM32F4xx_HAL_Driver/Src/stm32f4xx_ll_usb.c **** }
 4876              		.loc 1 2014 1 is_stmt 0 view .LVU1544
 4877 000c 0020     		movs	r0, #0
 4878              	.LVL407:
 4879              		.loc 1 2014 1 view .LVU1545
 4880 000e 7047     		bx	lr
 4881              		.cfi_endproc
 4882              	.LFE177:
 4884              		.section	.bss.tmpreg.8755,"aw",%nobits
 4885              		.align	2
 4886              		.set	.LANCHOR0,. + 0
 4889              	tmpreg.8755:
 4890 0000 00000000 		.space	4
 4891              		.text
 4892              	.Letext0:
 4893              		.file 2 "/opt/gcc-arm-none-eabi-8-2018-q4-major/arm-none-eabi/include/machine/_default_types.h"
 4894              		.file 3 "/opt/gcc-arm-none-eabi-8-2018-q4-major/arm-none-eabi/include/sys/_stdint.h"
 4895              		.file 4 "Drivers/CMSIS/Include/cmsis_gcc.h"
 4896              		.file 5 "Drivers/CMSIS/Include/core_cm4.h"
 4897              		.file 6 "Drivers/CMSIS/Device/ST/STM32F4xx/Include/system_stm32f4xx.h"
 4898              		.file 7 "Drivers/CMSIS/Device/ST/STM32F4xx/Include/stm32f407xx.h"
 4899              		.file 8 "Drivers/STM32F4xx_HAL_Driver/Inc/stm32f4xx_hal_def.h"
 4900              		.file 9 "Drivers/STM32F4xx_HAL_Driver/Inc/stm32f4xx_ll_usb.h"
 4901              		.file 10 "Drivers/STM32F4xx_HAL_Driver/Inc/stm32f4xx_hal.h"
ARM GAS  /tmp/ccrTWjYe.s 			page 143


DEFINED SYMBOLS
                            *ABS*:0000000000000000 stm32f4xx_ll_usb.c
     /tmp/ccrTWjYe.s:18     .text.USB_CoreReset:0000000000000000 $t
     /tmp/ccrTWjYe.s:25     .text.USB_CoreReset:0000000000000000 USB_CoreReset
     /tmp/ccrTWjYe.s:100    .text.USB_CoreReset:0000000000000038 $d
     /tmp/ccrTWjYe.s:105    .text.USB_CoreInit:0000000000000000 $t
     /tmp/ccrTWjYe.s:112    .text.USB_CoreInit:0000000000000000 USB_CoreInit
     /tmp/ccrTWjYe.s:245    .text.USB_SetTurnaroundTime:0000000000000000 $t
     /tmp/ccrTWjYe.s:252    .text.USB_SetTurnaroundTime:0000000000000000 USB_SetTurnaroundTime
     /tmp/ccrTWjYe.s:437    .text.USB_SetTurnaroundTime:00000000000000c4 $d
     /tmp/ccrTWjYe.s:451    .text.USB_EnableGlobalInt:0000000000000000 $t
     /tmp/ccrTWjYe.s:458    .text.USB_EnableGlobalInt:0000000000000000 USB_EnableGlobalInt
     /tmp/ccrTWjYe.s:481    .text.USB_DisableGlobalInt:0000000000000000 $t
     /tmp/ccrTWjYe.s:488    .text.USB_DisableGlobalInt:0000000000000000 USB_DisableGlobalInt
     /tmp/ccrTWjYe.s:511    .text.USB_SetCurrentMode:0000000000000000 $t
     /tmp/ccrTWjYe.s:518    .text.USB_SetCurrentMode:0000000000000000 USB_SetCurrentMode
     /tmp/ccrTWjYe.s:579    .text.USB_FlushTxFifo:0000000000000000 $t
     /tmp/ccrTWjYe.s:586    .text.USB_FlushTxFifo:0000000000000000 USB_FlushTxFifo
     /tmp/ccrTWjYe.s:636    .text.USB_FlushTxFifo:0000000000000024 $d
     /tmp/ccrTWjYe.s:641    .text.USB_FlushRxFifo:0000000000000000 $t
     /tmp/ccrTWjYe.s:648    .text.USB_FlushRxFifo:0000000000000000 USB_FlushRxFifo
     /tmp/ccrTWjYe.s:694    .text.USB_FlushRxFifo:0000000000000020 $d
     /tmp/ccrTWjYe.s:699    .text.USB_SetDevSpeed:0000000000000000 $t
     /tmp/ccrTWjYe.s:706    .text.USB_SetDevSpeed:0000000000000000 USB_SetDevSpeed
     /tmp/ccrTWjYe.s:732    .text.USB_DevInit:0000000000000000 $t
     /tmp/ccrTWjYe.s:739    .text.USB_DevInit:0000000000000000 USB_DevInit
     /tmp/ccrTWjYe.s:1107   .text.USB_DevInit:0000000000000194 $d
     /tmp/ccrTWjYe.s:1113   .text.USB_GetDevSpeed:0000000000000000 $t
     /tmp/ccrTWjYe.s:1120   .text.USB_GetDevSpeed:0000000000000000 USB_GetDevSpeed
     /tmp/ccrTWjYe.s:1178   .text.USB_ActivateEndpoint:0000000000000000 $t
     /tmp/ccrTWjYe.s:1185   .text.USB_ActivateEndpoint:0000000000000000 USB_ActivateEndpoint
     /tmp/ccrTWjYe.s:1312   .text.USB_ActivateDedicatedEndpoint:0000000000000000 $t
     /tmp/ccrTWjYe.s:1319   .text.USB_ActivateDedicatedEndpoint:0000000000000000 USB_ActivateDedicatedEndpoint
     /tmp/ccrTWjYe.s:1455   .text.USB_DeactivateEndpoint:0000000000000000 $t
     /tmp/ccrTWjYe.s:1462   .text.USB_DeactivateEndpoint:0000000000000000 USB_DeactivateEndpoint
     /tmp/ccrTWjYe.s:1582   .text.USB_DeactivateEndpoint:0000000000000088 $d
     /tmp/ccrTWjYe.s:1588   .text.USB_DeactivateDedicatedEndpoint:0000000000000000 $t
     /tmp/ccrTWjYe.s:1595   .text.USB_DeactivateDedicatedEndpoint:0000000000000000 USB_DeactivateDedicatedEndpoint
     /tmp/ccrTWjYe.s:1676   .text.USB_EP0StartXfer:0000000000000000 $t
     /tmp/ccrTWjYe.s:1683   .text.USB_EP0StartXfer:0000000000000000 USB_EP0StartXfer
     /tmp/ccrTWjYe.s:1925   .text.USB_WritePacket:0000000000000000 $t
     /tmp/ccrTWjYe.s:1932   .text.USB_WritePacket:0000000000000000 USB_WritePacket
     /tmp/ccrTWjYe.s:2002   .text.USB_EPStartXfer:0000000000000000 $t
     /tmp/ccrTWjYe.s:2009   .text.USB_EPStartXfer:0000000000000000 USB_EPStartXfer
     /tmp/ccrTWjYe.s:2404   .text.USB_EPStartXfer:0000000000000214 $d
     /tmp/ccrTWjYe.s:2409   .text.USB_ReadPacket:0000000000000000 $t
     /tmp/ccrTWjYe.s:2416   .text.USB_ReadPacket:0000000000000000 USB_ReadPacket
     /tmp/ccrTWjYe.s:2482   .text.USB_EPSetStall:0000000000000000 $t
     /tmp/ccrTWjYe.s:2489   .text.USB_EPSetStall:0000000000000000 USB_EPSetStall
     /tmp/ccrTWjYe.s:2570   .text.USB_EPClearStall:0000000000000000 $t
     /tmp/ccrTWjYe.s:2577   .text.USB_EPClearStall:0000000000000000 USB_EPClearStall
     /tmp/ccrTWjYe.s:2660   .text.USB_StopDevice:0000000000000000 $t
     /tmp/ccrTWjYe.s:2667   .text.USB_StopDevice:0000000000000000 USB_StopDevice
     /tmp/ccrTWjYe.s:2757   .text.USB_SetDevAddress:0000000000000000 $t
     /tmp/ccrTWjYe.s:2764   .text.USB_SetDevAddress:0000000000000000 USB_SetDevAddress
     /tmp/ccrTWjYe.s:2799   .text.USB_DevConnect:0000000000000000 $t
     /tmp/ccrTWjYe.s:2806   .text.USB_DevConnect:0000000000000000 USB_DevConnect
ARM GAS  /tmp/ccrTWjYe.s 			page 144


     /tmp/ccrTWjYe.s:2840   .text.USB_DevDisconnect:0000000000000000 $t
     /tmp/ccrTWjYe.s:2847   .text.USB_DevDisconnect:0000000000000000 USB_DevDisconnect
     /tmp/ccrTWjYe.s:2881   .text.USB_ReadInterrupts:0000000000000000 $t
     /tmp/ccrTWjYe.s:2888   .text.USB_ReadInterrupts:0000000000000000 USB_ReadInterrupts
     /tmp/ccrTWjYe.s:2915   .text.USB_ReadDevAllOutEpInterrupt:0000000000000000 $t
     /tmp/ccrTWjYe.s:2922   .text.USB_ReadDevAllOutEpInterrupt:0000000000000000 USB_ReadDevAllOutEpInterrupt
     /tmp/ccrTWjYe.s:2955   .text.USB_ReadDevAllInEpInterrupt:0000000000000000 $t
     /tmp/ccrTWjYe.s:2962   .text.USB_ReadDevAllInEpInterrupt:0000000000000000 USB_ReadDevAllInEpInterrupt
     /tmp/ccrTWjYe.s:2995   .text.USB_ReadDevOutEPInterrupt:0000000000000000 $t
     /tmp/ccrTWjYe.s:3002   .text.USB_ReadDevOutEPInterrupt:0000000000000000 USB_ReadDevOutEPInterrupt
     /tmp/ccrTWjYe.s:3036   .text.USB_ReadDevInEPInterrupt:0000000000000000 $t
     /tmp/ccrTWjYe.s:3043   .text.USB_ReadDevInEPInterrupt:0000000000000000 USB_ReadDevInEPInterrupt
     /tmp/ccrTWjYe.s:3102   .text.USB_ClearInterrupts:0000000000000000 $t
     /tmp/ccrTWjYe.s:3109   .text.USB_ClearInterrupts:0000000000000000 USB_ClearInterrupts
     /tmp/ccrTWjYe.s:3130   .text.USB_GetMode:0000000000000000 $t
     /tmp/ccrTWjYe.s:3137   .text.USB_GetMode:0000000000000000 USB_GetMode
     /tmp/ccrTWjYe.s:3156   .text.USB_ActivateSetup:0000000000000000 $t
     /tmp/ccrTWjYe.s:3163   .text.USB_ActivateSetup:0000000000000000 USB_ActivateSetup
     /tmp/ccrTWjYe.s:3212   .text.USB_EP0_OutStart:0000000000000000 $t
     /tmp/ccrTWjYe.s:3219   .text.USB_EP0_OutStart:0000000000000000 USB_EP0_OutStart
     /tmp/ccrTWjYe.s:3302   .text.USB_EP0_OutStart:000000000000005c $d
     /tmp/ccrTWjYe.s:3307   .text.USB_InitFSLSPClkSel:0000000000000000 $t
     /tmp/ccrTWjYe.s:3314   .text.USB_InitFSLSPClkSel:0000000000000000 USB_InitFSLSPClkSel
     /tmp/ccrTWjYe.s:3385   .text.USB_ResetPort:0000000000000000 $t
     /tmp/ccrTWjYe.s:3392   .text.USB_ResetPort:0000000000000000 USB_ResetPort
     /tmp/ccrTWjYe.s:3461   .text.USB_DriveVbus:0000000000000000 $t
     /tmp/ccrTWjYe.s:3468   .text.USB_DriveVbus:0000000000000000 USB_DriveVbus
     /tmp/ccrTWjYe.s:3547   .text.USB_HostInit:0000000000000000 $t
     /tmp/ccrTWjYe.s:3554   .text.USB_HostInit:0000000000000000 USB_HostInit
     /tmp/ccrTWjYe.s:3760   .text.USB_HostInit:00000000000000f0 $d
     /tmp/ccrTWjYe.s:3767   .text.USB_GetHostSpeed:0000000000000000 $t
     /tmp/ccrTWjYe.s:3774   .text.USB_GetHostSpeed:0000000000000000 USB_GetHostSpeed
     /tmp/ccrTWjYe.s:3812   .text.USB_GetCurrentFrame:0000000000000000 $t
     /tmp/ccrTWjYe.s:3819   .text.USB_GetCurrentFrame:0000000000000000 USB_GetCurrentFrame
     /tmp/ccrTWjYe.s:3842   .text.USB_HC_Init:0000000000000000 $t
     /tmp/ccrTWjYe.s:3849   .text.USB_HC_Init:0000000000000000 USB_HC_Init
     /tmp/ccrTWjYe.s:3883   .text.USB_HC_Init:000000000000001e $d
     /tmp/ccrTWjYe.s:3887   .text.USB_HC_Init:0000000000000022 $t
     /tmp/ccrTWjYe.s:4069   .text.USB_HC_ReadInterrupt:0000000000000000 $t
     /tmp/ccrTWjYe.s:4076   .text.USB_HC_ReadInterrupt:0000000000000000 USB_HC_ReadInterrupt
     /tmp/ccrTWjYe.s:4099   .text.USB_HC_Halt:0000000000000000 $t
     /tmp/ccrTWjYe.s:4106   .text.USB_HC_Halt:0000000000000000 USB_HC_Halt
     /tmp/ccrTWjYe.s:4268   .text.USB_DoPing:0000000000000000 $t
     /tmp/ccrTWjYe.s:4275   .text.USB_DoPing:0000000000000000 USB_DoPing
     /tmp/ccrTWjYe.s:4317   .text.USB_DoPing:0000000000000020 $d
     /tmp/ccrTWjYe.s:4322   .text.USB_HC_StartXfer:0000000000000000 $t
     /tmp/ccrTWjYe.s:4329   .text.USB_HC_StartXfer:0000000000000000 USB_HC_StartXfer
     /tmp/ccrTWjYe.s:4568   .text.USB_HC_StartXfer:00000000000000fc $d
     /tmp/ccrTWjYe.s:4573   .text.USB_HC_StartXfer:0000000000000100 $t
     /tmp/ccrTWjYe.s:4656   .text.USB_HC_StartXfer:0000000000000150 $d
     /tmp/ccrTWjYe.s:4662   .text.USB_StopHost:0000000000000000 $t
     /tmp/ccrTWjYe.s:4669   .text.USB_StopHost:0000000000000000 USB_StopHost
     /tmp/ccrTWjYe.s:4813   .text.USB_ActivateRemoteWakeup:0000000000000000 $t
     /tmp/ccrTWjYe.s:4820   .text.USB_ActivateRemoteWakeup:0000000000000000 USB_ActivateRemoteWakeup
     /tmp/ccrTWjYe.s:4854   .text.USB_DeActivateRemoteWakeup:0000000000000000 $t
     /tmp/ccrTWjYe.s:4861   .text.USB_DeActivateRemoteWakeup:0000000000000000 USB_DeActivateRemoteWakeup
     /tmp/ccrTWjYe.s:4885   .bss.tmpreg.8755:0000000000000000 $d
ARM GAS  /tmp/ccrTWjYe.s 			page 145


     /tmp/ccrTWjYe.s:4889   .bss.tmpreg.8755:0000000000000000 tmpreg.8755

UNDEFINED SYMBOLS
HAL_Delay
