ARM GAS  /tmp/ccT1bBgQ.s 			page 1


   1              		.cpu cortex-m4
   2              		.eabi_attribute 27, 1
   3              		.eabi_attribute 28, 1
   4              		.eabi_attribute 20, 1
   5              		.eabi_attribute 21, 1
   6              		.eabi_attribute 23, 3
   7              		.eabi_attribute 24, 1
   8              		.eabi_attribute 25, 1
   9              		.eabi_attribute 26, 1
  10              		.eabi_attribute 30, 1
  11              		.eabi_attribute 34, 1
  12              		.eabi_attribute 18, 4
  13              		.file	"usbd_ctlreq.c"
  14              		.text
  15              	.Ltext0:
  16              		.cfi_sections	.debug_frame
  17              		.section	.text.USBD_GetLen,"ax",%progbits
  18              		.align	1
  19              		.arch armv7e-m
  20              		.syntax unified
  21              		.thumb
  22              		.thumb_func
  23              		.fpu fpv4-sp-d16
  25              	USBD_GetLen:
  26              	.LVL0:
  27              	.LFB146:
  28              		.file 1 "Middlewares/ST/STM32_USB_Device_Library/Core/Src/usbd_ctlreq.c"
   1:Middlewares/ST/STM32_USB_Device_Library/Core/Src/usbd_ctlreq.c **** /**
   2:Middlewares/ST/STM32_USB_Device_Library/Core/Src/usbd_ctlreq.c ****   ******************************************************************************
   3:Middlewares/ST/STM32_USB_Device_Library/Core/Src/usbd_ctlreq.c ****   * @file    usbd_req.c
   4:Middlewares/ST/STM32_USB_Device_Library/Core/Src/usbd_ctlreq.c ****   * @author  MCD Application Team
   5:Middlewares/ST/STM32_USB_Device_Library/Core/Src/usbd_ctlreq.c ****   * @brief   This file provides the standard USB requests following chapter 9.
   6:Middlewares/ST/STM32_USB_Device_Library/Core/Src/usbd_ctlreq.c ****   ******************************************************************************
   7:Middlewares/ST/STM32_USB_Device_Library/Core/Src/usbd_ctlreq.c ****   * @attention
   8:Middlewares/ST/STM32_USB_Device_Library/Core/Src/usbd_ctlreq.c ****   *
   9:Middlewares/ST/STM32_USB_Device_Library/Core/Src/usbd_ctlreq.c ****   * <h2><center>&copy; Copyright (c) 2015 STMicroelectronics.
  10:Middlewares/ST/STM32_USB_Device_Library/Core/Src/usbd_ctlreq.c ****   * All rights reserved.</center></h2>
  11:Middlewares/ST/STM32_USB_Device_Library/Core/Src/usbd_ctlreq.c ****   *
  12:Middlewares/ST/STM32_USB_Device_Library/Core/Src/usbd_ctlreq.c ****   * This software component is licensed by ST under Ultimate Liberty license
  13:Middlewares/ST/STM32_USB_Device_Library/Core/Src/usbd_ctlreq.c ****   * SLA0044, the "License"; You may not use this file except in compliance with
  14:Middlewares/ST/STM32_USB_Device_Library/Core/Src/usbd_ctlreq.c ****   * the License. You may obtain a copy of the License at:
  15:Middlewares/ST/STM32_USB_Device_Library/Core/Src/usbd_ctlreq.c ****   *                      http://www.st.com/SLA0044
  16:Middlewares/ST/STM32_USB_Device_Library/Core/Src/usbd_ctlreq.c ****   *
  17:Middlewares/ST/STM32_USB_Device_Library/Core/Src/usbd_ctlreq.c ****   ******************************************************************************
  18:Middlewares/ST/STM32_USB_Device_Library/Core/Src/usbd_ctlreq.c ****   */
  19:Middlewares/ST/STM32_USB_Device_Library/Core/Src/usbd_ctlreq.c **** 
  20:Middlewares/ST/STM32_USB_Device_Library/Core/Src/usbd_ctlreq.c **** /* Includes ------------------------------------------------------------------*/
  21:Middlewares/ST/STM32_USB_Device_Library/Core/Src/usbd_ctlreq.c **** #include "usbd_ctlreq.h"
  22:Middlewares/ST/STM32_USB_Device_Library/Core/Src/usbd_ctlreq.c **** #include "usbd_ioreq.h"
  23:Middlewares/ST/STM32_USB_Device_Library/Core/Src/usbd_ctlreq.c **** 
  24:Middlewares/ST/STM32_USB_Device_Library/Core/Src/usbd_ctlreq.c **** 
  25:Middlewares/ST/STM32_USB_Device_Library/Core/Src/usbd_ctlreq.c **** /** @addtogroup STM32_USBD_STATE_DEVICE_LIBRARY
  26:Middlewares/ST/STM32_USB_Device_Library/Core/Src/usbd_ctlreq.c ****   * @{
  27:Middlewares/ST/STM32_USB_Device_Library/Core/Src/usbd_ctlreq.c ****   */
  28:Middlewares/ST/STM32_USB_Device_Library/Core/Src/usbd_ctlreq.c **** 
  29:Middlewares/ST/STM32_USB_Device_Library/Core/Src/usbd_ctlreq.c **** 
  30:Middlewares/ST/STM32_USB_Device_Library/Core/Src/usbd_ctlreq.c **** /** @defgroup USBD_REQ
ARM GAS  /tmp/ccT1bBgQ.s 			page 2


  31:Middlewares/ST/STM32_USB_Device_Library/Core/Src/usbd_ctlreq.c ****   * @brief USB standard requests module
  32:Middlewares/ST/STM32_USB_Device_Library/Core/Src/usbd_ctlreq.c ****   * @{
  33:Middlewares/ST/STM32_USB_Device_Library/Core/Src/usbd_ctlreq.c ****   */
  34:Middlewares/ST/STM32_USB_Device_Library/Core/Src/usbd_ctlreq.c **** 
  35:Middlewares/ST/STM32_USB_Device_Library/Core/Src/usbd_ctlreq.c **** /** @defgroup USBD_REQ_Private_TypesDefinitions
  36:Middlewares/ST/STM32_USB_Device_Library/Core/Src/usbd_ctlreq.c ****   * @{
  37:Middlewares/ST/STM32_USB_Device_Library/Core/Src/usbd_ctlreq.c ****   */
  38:Middlewares/ST/STM32_USB_Device_Library/Core/Src/usbd_ctlreq.c **** /**
  39:Middlewares/ST/STM32_USB_Device_Library/Core/Src/usbd_ctlreq.c ****   * @}
  40:Middlewares/ST/STM32_USB_Device_Library/Core/Src/usbd_ctlreq.c ****   */
  41:Middlewares/ST/STM32_USB_Device_Library/Core/Src/usbd_ctlreq.c **** 
  42:Middlewares/ST/STM32_USB_Device_Library/Core/Src/usbd_ctlreq.c **** 
  43:Middlewares/ST/STM32_USB_Device_Library/Core/Src/usbd_ctlreq.c **** /** @defgroup USBD_REQ_Private_Defines
  44:Middlewares/ST/STM32_USB_Device_Library/Core/Src/usbd_ctlreq.c ****   * @{
  45:Middlewares/ST/STM32_USB_Device_Library/Core/Src/usbd_ctlreq.c ****   */
  46:Middlewares/ST/STM32_USB_Device_Library/Core/Src/usbd_ctlreq.c **** 
  47:Middlewares/ST/STM32_USB_Device_Library/Core/Src/usbd_ctlreq.c **** /**
  48:Middlewares/ST/STM32_USB_Device_Library/Core/Src/usbd_ctlreq.c ****   * @}
  49:Middlewares/ST/STM32_USB_Device_Library/Core/Src/usbd_ctlreq.c ****   */
  50:Middlewares/ST/STM32_USB_Device_Library/Core/Src/usbd_ctlreq.c **** 
  51:Middlewares/ST/STM32_USB_Device_Library/Core/Src/usbd_ctlreq.c **** 
  52:Middlewares/ST/STM32_USB_Device_Library/Core/Src/usbd_ctlreq.c **** /** @defgroup USBD_REQ_Private_Macros
  53:Middlewares/ST/STM32_USB_Device_Library/Core/Src/usbd_ctlreq.c ****   * @{
  54:Middlewares/ST/STM32_USB_Device_Library/Core/Src/usbd_ctlreq.c ****   */
  55:Middlewares/ST/STM32_USB_Device_Library/Core/Src/usbd_ctlreq.c **** /**
  56:Middlewares/ST/STM32_USB_Device_Library/Core/Src/usbd_ctlreq.c ****   * @}
  57:Middlewares/ST/STM32_USB_Device_Library/Core/Src/usbd_ctlreq.c ****   */
  58:Middlewares/ST/STM32_USB_Device_Library/Core/Src/usbd_ctlreq.c **** 
  59:Middlewares/ST/STM32_USB_Device_Library/Core/Src/usbd_ctlreq.c **** 
  60:Middlewares/ST/STM32_USB_Device_Library/Core/Src/usbd_ctlreq.c **** /** @defgroup USBD_REQ_Private_Variables
  61:Middlewares/ST/STM32_USB_Device_Library/Core/Src/usbd_ctlreq.c ****   * @{
  62:Middlewares/ST/STM32_USB_Device_Library/Core/Src/usbd_ctlreq.c ****   */
  63:Middlewares/ST/STM32_USB_Device_Library/Core/Src/usbd_ctlreq.c **** /**
  64:Middlewares/ST/STM32_USB_Device_Library/Core/Src/usbd_ctlreq.c ****   * @}
  65:Middlewares/ST/STM32_USB_Device_Library/Core/Src/usbd_ctlreq.c ****   */
  66:Middlewares/ST/STM32_USB_Device_Library/Core/Src/usbd_ctlreq.c **** 
  67:Middlewares/ST/STM32_USB_Device_Library/Core/Src/usbd_ctlreq.c **** 
  68:Middlewares/ST/STM32_USB_Device_Library/Core/Src/usbd_ctlreq.c **** /** @defgroup USBD_REQ_Private_FunctionPrototypes
  69:Middlewares/ST/STM32_USB_Device_Library/Core/Src/usbd_ctlreq.c ****   * @{
  70:Middlewares/ST/STM32_USB_Device_Library/Core/Src/usbd_ctlreq.c ****   */
  71:Middlewares/ST/STM32_USB_Device_Library/Core/Src/usbd_ctlreq.c **** static void USBD_GetDescriptor(USBD_HandleTypeDef *pdev ,
  72:Middlewares/ST/STM32_USB_Device_Library/Core/Src/usbd_ctlreq.c ****                                USBD_SetupReqTypedef *req);
  73:Middlewares/ST/STM32_USB_Device_Library/Core/Src/usbd_ctlreq.c **** 
  74:Middlewares/ST/STM32_USB_Device_Library/Core/Src/usbd_ctlreq.c **** static void USBD_SetAddress(USBD_HandleTypeDef *pdev ,
  75:Middlewares/ST/STM32_USB_Device_Library/Core/Src/usbd_ctlreq.c ****                             USBD_SetupReqTypedef *req);
  76:Middlewares/ST/STM32_USB_Device_Library/Core/Src/usbd_ctlreq.c **** 
  77:Middlewares/ST/STM32_USB_Device_Library/Core/Src/usbd_ctlreq.c **** static void USBD_SetConfig(USBD_HandleTypeDef *pdev ,
  78:Middlewares/ST/STM32_USB_Device_Library/Core/Src/usbd_ctlreq.c ****                            USBD_SetupReqTypedef *req);
  79:Middlewares/ST/STM32_USB_Device_Library/Core/Src/usbd_ctlreq.c **** 
  80:Middlewares/ST/STM32_USB_Device_Library/Core/Src/usbd_ctlreq.c **** static void USBD_GetConfig(USBD_HandleTypeDef *pdev ,
  81:Middlewares/ST/STM32_USB_Device_Library/Core/Src/usbd_ctlreq.c ****                            USBD_SetupReqTypedef *req);
  82:Middlewares/ST/STM32_USB_Device_Library/Core/Src/usbd_ctlreq.c **** 
  83:Middlewares/ST/STM32_USB_Device_Library/Core/Src/usbd_ctlreq.c **** static void USBD_GetStatus(USBD_HandleTypeDef *pdev ,
  84:Middlewares/ST/STM32_USB_Device_Library/Core/Src/usbd_ctlreq.c ****                            USBD_SetupReqTypedef *req);
  85:Middlewares/ST/STM32_USB_Device_Library/Core/Src/usbd_ctlreq.c **** 
  86:Middlewares/ST/STM32_USB_Device_Library/Core/Src/usbd_ctlreq.c **** static void USBD_SetFeature(USBD_HandleTypeDef *pdev ,
  87:Middlewares/ST/STM32_USB_Device_Library/Core/Src/usbd_ctlreq.c ****                             USBD_SetupReqTypedef *req);
ARM GAS  /tmp/ccT1bBgQ.s 			page 3


  88:Middlewares/ST/STM32_USB_Device_Library/Core/Src/usbd_ctlreq.c **** 
  89:Middlewares/ST/STM32_USB_Device_Library/Core/Src/usbd_ctlreq.c **** static void USBD_ClrFeature(USBD_HandleTypeDef *pdev ,
  90:Middlewares/ST/STM32_USB_Device_Library/Core/Src/usbd_ctlreq.c ****                             USBD_SetupReqTypedef *req);
  91:Middlewares/ST/STM32_USB_Device_Library/Core/Src/usbd_ctlreq.c **** 
  92:Middlewares/ST/STM32_USB_Device_Library/Core/Src/usbd_ctlreq.c **** static uint8_t USBD_GetLen(uint8_t *buf);
  93:Middlewares/ST/STM32_USB_Device_Library/Core/Src/usbd_ctlreq.c **** 
  94:Middlewares/ST/STM32_USB_Device_Library/Core/Src/usbd_ctlreq.c **** /**
  95:Middlewares/ST/STM32_USB_Device_Library/Core/Src/usbd_ctlreq.c ****   * @}
  96:Middlewares/ST/STM32_USB_Device_Library/Core/Src/usbd_ctlreq.c ****   */
  97:Middlewares/ST/STM32_USB_Device_Library/Core/Src/usbd_ctlreq.c **** 
  98:Middlewares/ST/STM32_USB_Device_Library/Core/Src/usbd_ctlreq.c **** 
  99:Middlewares/ST/STM32_USB_Device_Library/Core/Src/usbd_ctlreq.c **** /** @defgroup USBD_REQ_Private_Functions
 100:Middlewares/ST/STM32_USB_Device_Library/Core/Src/usbd_ctlreq.c ****   * @{
 101:Middlewares/ST/STM32_USB_Device_Library/Core/Src/usbd_ctlreq.c ****   */
 102:Middlewares/ST/STM32_USB_Device_Library/Core/Src/usbd_ctlreq.c **** 
 103:Middlewares/ST/STM32_USB_Device_Library/Core/Src/usbd_ctlreq.c **** 
 104:Middlewares/ST/STM32_USB_Device_Library/Core/Src/usbd_ctlreq.c **** /**
 105:Middlewares/ST/STM32_USB_Device_Library/Core/Src/usbd_ctlreq.c **** * @brief  USBD_StdDevReq
 106:Middlewares/ST/STM32_USB_Device_Library/Core/Src/usbd_ctlreq.c **** *         Handle standard usb device requests
 107:Middlewares/ST/STM32_USB_Device_Library/Core/Src/usbd_ctlreq.c **** * @param  pdev: device instance
 108:Middlewares/ST/STM32_USB_Device_Library/Core/Src/usbd_ctlreq.c **** * @param  req: usb request
 109:Middlewares/ST/STM32_USB_Device_Library/Core/Src/usbd_ctlreq.c **** * @retval status
 110:Middlewares/ST/STM32_USB_Device_Library/Core/Src/usbd_ctlreq.c **** */
 111:Middlewares/ST/STM32_USB_Device_Library/Core/Src/usbd_ctlreq.c **** USBD_StatusTypeDef  USBD_StdDevReq (USBD_HandleTypeDef *pdev , USBD_SetupReqTypedef  *req)
 112:Middlewares/ST/STM32_USB_Device_Library/Core/Src/usbd_ctlreq.c **** {
 113:Middlewares/ST/STM32_USB_Device_Library/Core/Src/usbd_ctlreq.c ****   USBD_StatusTypeDef ret = USBD_OK;
 114:Middlewares/ST/STM32_USB_Device_Library/Core/Src/usbd_ctlreq.c **** 
 115:Middlewares/ST/STM32_USB_Device_Library/Core/Src/usbd_ctlreq.c ****   switch (req->bmRequest & USB_REQ_TYPE_MASK)
 116:Middlewares/ST/STM32_USB_Device_Library/Core/Src/usbd_ctlreq.c ****   {
 117:Middlewares/ST/STM32_USB_Device_Library/Core/Src/usbd_ctlreq.c ****   case USB_REQ_TYPE_CLASS:
 118:Middlewares/ST/STM32_USB_Device_Library/Core/Src/usbd_ctlreq.c ****   case USB_REQ_TYPE_VENDOR:
 119:Middlewares/ST/STM32_USB_Device_Library/Core/Src/usbd_ctlreq.c ****     pdev->pClass->Setup(pdev, req);
 120:Middlewares/ST/STM32_USB_Device_Library/Core/Src/usbd_ctlreq.c ****     break;
 121:Middlewares/ST/STM32_USB_Device_Library/Core/Src/usbd_ctlreq.c **** 
 122:Middlewares/ST/STM32_USB_Device_Library/Core/Src/usbd_ctlreq.c ****   case USB_REQ_TYPE_STANDARD:
 123:Middlewares/ST/STM32_USB_Device_Library/Core/Src/usbd_ctlreq.c **** 
 124:Middlewares/ST/STM32_USB_Device_Library/Core/Src/usbd_ctlreq.c ****     switch (req->bRequest)
 125:Middlewares/ST/STM32_USB_Device_Library/Core/Src/usbd_ctlreq.c ****     {
 126:Middlewares/ST/STM32_USB_Device_Library/Core/Src/usbd_ctlreq.c ****     case USB_REQ_GET_DESCRIPTOR:
 127:Middlewares/ST/STM32_USB_Device_Library/Core/Src/usbd_ctlreq.c **** 
 128:Middlewares/ST/STM32_USB_Device_Library/Core/Src/usbd_ctlreq.c ****       USBD_GetDescriptor (pdev, req);
 129:Middlewares/ST/STM32_USB_Device_Library/Core/Src/usbd_ctlreq.c ****       break;
 130:Middlewares/ST/STM32_USB_Device_Library/Core/Src/usbd_ctlreq.c **** 
 131:Middlewares/ST/STM32_USB_Device_Library/Core/Src/usbd_ctlreq.c ****     case USB_REQ_SET_ADDRESS:
 132:Middlewares/ST/STM32_USB_Device_Library/Core/Src/usbd_ctlreq.c ****       USBD_SetAddress (pdev, req);
 133:Middlewares/ST/STM32_USB_Device_Library/Core/Src/usbd_ctlreq.c ****       break;
 134:Middlewares/ST/STM32_USB_Device_Library/Core/Src/usbd_ctlreq.c **** 
 135:Middlewares/ST/STM32_USB_Device_Library/Core/Src/usbd_ctlreq.c ****     case USB_REQ_SET_CONFIGURATION:
 136:Middlewares/ST/STM32_USB_Device_Library/Core/Src/usbd_ctlreq.c ****       USBD_SetConfig (pdev, req);
 137:Middlewares/ST/STM32_USB_Device_Library/Core/Src/usbd_ctlreq.c ****       break;
 138:Middlewares/ST/STM32_USB_Device_Library/Core/Src/usbd_ctlreq.c **** 
 139:Middlewares/ST/STM32_USB_Device_Library/Core/Src/usbd_ctlreq.c ****     case USB_REQ_GET_CONFIGURATION:
 140:Middlewares/ST/STM32_USB_Device_Library/Core/Src/usbd_ctlreq.c ****       USBD_GetConfig (pdev, req);
 141:Middlewares/ST/STM32_USB_Device_Library/Core/Src/usbd_ctlreq.c ****       break;
 142:Middlewares/ST/STM32_USB_Device_Library/Core/Src/usbd_ctlreq.c **** 
 143:Middlewares/ST/STM32_USB_Device_Library/Core/Src/usbd_ctlreq.c ****     case USB_REQ_GET_STATUS:
 144:Middlewares/ST/STM32_USB_Device_Library/Core/Src/usbd_ctlreq.c ****       USBD_GetStatus (pdev, req);
ARM GAS  /tmp/ccT1bBgQ.s 			page 4


 145:Middlewares/ST/STM32_USB_Device_Library/Core/Src/usbd_ctlreq.c ****       break;
 146:Middlewares/ST/STM32_USB_Device_Library/Core/Src/usbd_ctlreq.c **** 
 147:Middlewares/ST/STM32_USB_Device_Library/Core/Src/usbd_ctlreq.c **** 
 148:Middlewares/ST/STM32_USB_Device_Library/Core/Src/usbd_ctlreq.c ****     case USB_REQ_SET_FEATURE:
 149:Middlewares/ST/STM32_USB_Device_Library/Core/Src/usbd_ctlreq.c ****       USBD_SetFeature (pdev, req);
 150:Middlewares/ST/STM32_USB_Device_Library/Core/Src/usbd_ctlreq.c ****       break;
 151:Middlewares/ST/STM32_USB_Device_Library/Core/Src/usbd_ctlreq.c **** 
 152:Middlewares/ST/STM32_USB_Device_Library/Core/Src/usbd_ctlreq.c ****     case USB_REQ_CLEAR_FEATURE:
 153:Middlewares/ST/STM32_USB_Device_Library/Core/Src/usbd_ctlreq.c ****       USBD_ClrFeature (pdev, req);
 154:Middlewares/ST/STM32_USB_Device_Library/Core/Src/usbd_ctlreq.c ****       break;
 155:Middlewares/ST/STM32_USB_Device_Library/Core/Src/usbd_ctlreq.c **** 
 156:Middlewares/ST/STM32_USB_Device_Library/Core/Src/usbd_ctlreq.c ****     default:
 157:Middlewares/ST/STM32_USB_Device_Library/Core/Src/usbd_ctlreq.c ****       USBD_CtlError(pdev, req);
 158:Middlewares/ST/STM32_USB_Device_Library/Core/Src/usbd_ctlreq.c ****       break;
 159:Middlewares/ST/STM32_USB_Device_Library/Core/Src/usbd_ctlreq.c ****     }
 160:Middlewares/ST/STM32_USB_Device_Library/Core/Src/usbd_ctlreq.c ****     break;
 161:Middlewares/ST/STM32_USB_Device_Library/Core/Src/usbd_ctlreq.c **** 
 162:Middlewares/ST/STM32_USB_Device_Library/Core/Src/usbd_ctlreq.c ****   default:
 163:Middlewares/ST/STM32_USB_Device_Library/Core/Src/usbd_ctlreq.c ****     USBD_CtlError(pdev, req);
 164:Middlewares/ST/STM32_USB_Device_Library/Core/Src/usbd_ctlreq.c ****     break;
 165:Middlewares/ST/STM32_USB_Device_Library/Core/Src/usbd_ctlreq.c ****   }
 166:Middlewares/ST/STM32_USB_Device_Library/Core/Src/usbd_ctlreq.c **** 
 167:Middlewares/ST/STM32_USB_Device_Library/Core/Src/usbd_ctlreq.c ****   return ret;
 168:Middlewares/ST/STM32_USB_Device_Library/Core/Src/usbd_ctlreq.c **** }
 169:Middlewares/ST/STM32_USB_Device_Library/Core/Src/usbd_ctlreq.c **** 
 170:Middlewares/ST/STM32_USB_Device_Library/Core/Src/usbd_ctlreq.c **** /**
 171:Middlewares/ST/STM32_USB_Device_Library/Core/Src/usbd_ctlreq.c **** * @brief  USBD_StdItfReq
 172:Middlewares/ST/STM32_USB_Device_Library/Core/Src/usbd_ctlreq.c **** *         Handle standard usb interface requests
 173:Middlewares/ST/STM32_USB_Device_Library/Core/Src/usbd_ctlreq.c **** * @param  pdev: device instance
 174:Middlewares/ST/STM32_USB_Device_Library/Core/Src/usbd_ctlreq.c **** * @param  req: usb request
 175:Middlewares/ST/STM32_USB_Device_Library/Core/Src/usbd_ctlreq.c **** * @retval status
 176:Middlewares/ST/STM32_USB_Device_Library/Core/Src/usbd_ctlreq.c **** */
 177:Middlewares/ST/STM32_USB_Device_Library/Core/Src/usbd_ctlreq.c **** USBD_StatusTypeDef  USBD_StdItfReq (USBD_HandleTypeDef *pdev , USBD_SetupReqTypedef  *req)
 178:Middlewares/ST/STM32_USB_Device_Library/Core/Src/usbd_ctlreq.c **** {
 179:Middlewares/ST/STM32_USB_Device_Library/Core/Src/usbd_ctlreq.c ****   USBD_StatusTypeDef ret = USBD_OK;
 180:Middlewares/ST/STM32_USB_Device_Library/Core/Src/usbd_ctlreq.c **** 
 181:Middlewares/ST/STM32_USB_Device_Library/Core/Src/usbd_ctlreq.c ****   switch (req->bmRequest & USB_REQ_TYPE_MASK)
 182:Middlewares/ST/STM32_USB_Device_Library/Core/Src/usbd_ctlreq.c ****   {
 183:Middlewares/ST/STM32_USB_Device_Library/Core/Src/usbd_ctlreq.c ****   case USB_REQ_TYPE_CLASS:
 184:Middlewares/ST/STM32_USB_Device_Library/Core/Src/usbd_ctlreq.c ****   case USB_REQ_TYPE_VENDOR:
 185:Middlewares/ST/STM32_USB_Device_Library/Core/Src/usbd_ctlreq.c ****   case USB_REQ_TYPE_STANDARD:
 186:Middlewares/ST/STM32_USB_Device_Library/Core/Src/usbd_ctlreq.c ****     switch (pdev->dev_state)
 187:Middlewares/ST/STM32_USB_Device_Library/Core/Src/usbd_ctlreq.c ****     {
 188:Middlewares/ST/STM32_USB_Device_Library/Core/Src/usbd_ctlreq.c ****     case USBD_STATE_DEFAULT:
 189:Middlewares/ST/STM32_USB_Device_Library/Core/Src/usbd_ctlreq.c ****     case USBD_STATE_ADDRESSED:
 190:Middlewares/ST/STM32_USB_Device_Library/Core/Src/usbd_ctlreq.c ****     case USBD_STATE_CONFIGURED:
 191:Middlewares/ST/STM32_USB_Device_Library/Core/Src/usbd_ctlreq.c **** 
 192:Middlewares/ST/STM32_USB_Device_Library/Core/Src/usbd_ctlreq.c ****       if (LOBYTE(req->wIndex) <= USBD_MAX_NUM_INTERFACES)
 193:Middlewares/ST/STM32_USB_Device_Library/Core/Src/usbd_ctlreq.c ****       {
 194:Middlewares/ST/STM32_USB_Device_Library/Core/Src/usbd_ctlreq.c ****         ret = (USBD_StatusTypeDef)pdev->pClass->Setup (pdev, req);
 195:Middlewares/ST/STM32_USB_Device_Library/Core/Src/usbd_ctlreq.c **** 
 196:Middlewares/ST/STM32_USB_Device_Library/Core/Src/usbd_ctlreq.c ****         if ((req->wLength == 0U) && (ret == USBD_OK))
 197:Middlewares/ST/STM32_USB_Device_Library/Core/Src/usbd_ctlreq.c ****         {
 198:Middlewares/ST/STM32_USB_Device_Library/Core/Src/usbd_ctlreq.c ****           USBD_CtlSendStatus(pdev);
 199:Middlewares/ST/STM32_USB_Device_Library/Core/Src/usbd_ctlreq.c ****         }
 200:Middlewares/ST/STM32_USB_Device_Library/Core/Src/usbd_ctlreq.c ****       }
 201:Middlewares/ST/STM32_USB_Device_Library/Core/Src/usbd_ctlreq.c ****       else
ARM GAS  /tmp/ccT1bBgQ.s 			page 5


 202:Middlewares/ST/STM32_USB_Device_Library/Core/Src/usbd_ctlreq.c ****       {
 203:Middlewares/ST/STM32_USB_Device_Library/Core/Src/usbd_ctlreq.c ****         USBD_CtlError(pdev, req);
 204:Middlewares/ST/STM32_USB_Device_Library/Core/Src/usbd_ctlreq.c ****       }
 205:Middlewares/ST/STM32_USB_Device_Library/Core/Src/usbd_ctlreq.c ****       break;
 206:Middlewares/ST/STM32_USB_Device_Library/Core/Src/usbd_ctlreq.c **** 
 207:Middlewares/ST/STM32_USB_Device_Library/Core/Src/usbd_ctlreq.c ****     default:
 208:Middlewares/ST/STM32_USB_Device_Library/Core/Src/usbd_ctlreq.c ****       USBD_CtlError(pdev, req);
 209:Middlewares/ST/STM32_USB_Device_Library/Core/Src/usbd_ctlreq.c ****       break;
 210:Middlewares/ST/STM32_USB_Device_Library/Core/Src/usbd_ctlreq.c ****     }
 211:Middlewares/ST/STM32_USB_Device_Library/Core/Src/usbd_ctlreq.c ****     break;
 212:Middlewares/ST/STM32_USB_Device_Library/Core/Src/usbd_ctlreq.c **** 
 213:Middlewares/ST/STM32_USB_Device_Library/Core/Src/usbd_ctlreq.c ****   default:
 214:Middlewares/ST/STM32_USB_Device_Library/Core/Src/usbd_ctlreq.c ****     USBD_CtlError(pdev, req);
 215:Middlewares/ST/STM32_USB_Device_Library/Core/Src/usbd_ctlreq.c ****     break;
 216:Middlewares/ST/STM32_USB_Device_Library/Core/Src/usbd_ctlreq.c ****   }
 217:Middlewares/ST/STM32_USB_Device_Library/Core/Src/usbd_ctlreq.c **** 
 218:Middlewares/ST/STM32_USB_Device_Library/Core/Src/usbd_ctlreq.c ****   return USBD_OK;
 219:Middlewares/ST/STM32_USB_Device_Library/Core/Src/usbd_ctlreq.c **** }
 220:Middlewares/ST/STM32_USB_Device_Library/Core/Src/usbd_ctlreq.c **** 
 221:Middlewares/ST/STM32_USB_Device_Library/Core/Src/usbd_ctlreq.c **** /**
 222:Middlewares/ST/STM32_USB_Device_Library/Core/Src/usbd_ctlreq.c **** * @brief  USBD_StdEPReq
 223:Middlewares/ST/STM32_USB_Device_Library/Core/Src/usbd_ctlreq.c **** *         Handle standard usb endpoint requests
 224:Middlewares/ST/STM32_USB_Device_Library/Core/Src/usbd_ctlreq.c **** * @param  pdev: device instance
 225:Middlewares/ST/STM32_USB_Device_Library/Core/Src/usbd_ctlreq.c **** * @param  req: usb request
 226:Middlewares/ST/STM32_USB_Device_Library/Core/Src/usbd_ctlreq.c **** * @retval status
 227:Middlewares/ST/STM32_USB_Device_Library/Core/Src/usbd_ctlreq.c **** */
 228:Middlewares/ST/STM32_USB_Device_Library/Core/Src/usbd_ctlreq.c **** USBD_StatusTypeDef  USBD_StdEPReq (USBD_HandleTypeDef *pdev , USBD_SetupReqTypedef  *req)
 229:Middlewares/ST/STM32_USB_Device_Library/Core/Src/usbd_ctlreq.c **** {
 230:Middlewares/ST/STM32_USB_Device_Library/Core/Src/usbd_ctlreq.c **** 
 231:Middlewares/ST/STM32_USB_Device_Library/Core/Src/usbd_ctlreq.c ****   uint8_t   ep_addr;
 232:Middlewares/ST/STM32_USB_Device_Library/Core/Src/usbd_ctlreq.c ****   USBD_StatusTypeDef ret = USBD_OK;
 233:Middlewares/ST/STM32_USB_Device_Library/Core/Src/usbd_ctlreq.c ****   USBD_EndpointTypeDef   *pep;
 234:Middlewares/ST/STM32_USB_Device_Library/Core/Src/usbd_ctlreq.c ****   ep_addr  = LOBYTE(req->wIndex);
 235:Middlewares/ST/STM32_USB_Device_Library/Core/Src/usbd_ctlreq.c **** 
 236:Middlewares/ST/STM32_USB_Device_Library/Core/Src/usbd_ctlreq.c ****   switch (req->bmRequest & USB_REQ_TYPE_MASK)
 237:Middlewares/ST/STM32_USB_Device_Library/Core/Src/usbd_ctlreq.c ****   {
 238:Middlewares/ST/STM32_USB_Device_Library/Core/Src/usbd_ctlreq.c **** 
 239:Middlewares/ST/STM32_USB_Device_Library/Core/Src/usbd_ctlreq.c ****   case USB_REQ_TYPE_CLASS:
 240:Middlewares/ST/STM32_USB_Device_Library/Core/Src/usbd_ctlreq.c ****   case USB_REQ_TYPE_VENDOR:
 241:Middlewares/ST/STM32_USB_Device_Library/Core/Src/usbd_ctlreq.c ****     pdev->pClass->Setup (pdev, req);
 242:Middlewares/ST/STM32_USB_Device_Library/Core/Src/usbd_ctlreq.c ****     break;
 243:Middlewares/ST/STM32_USB_Device_Library/Core/Src/usbd_ctlreq.c **** 
 244:Middlewares/ST/STM32_USB_Device_Library/Core/Src/usbd_ctlreq.c ****   case USB_REQ_TYPE_STANDARD:
 245:Middlewares/ST/STM32_USB_Device_Library/Core/Src/usbd_ctlreq.c ****     /* Check if it is a class request */
 246:Middlewares/ST/STM32_USB_Device_Library/Core/Src/usbd_ctlreq.c ****     if ((req->bmRequest & 0x60U) == 0x20U)
 247:Middlewares/ST/STM32_USB_Device_Library/Core/Src/usbd_ctlreq.c ****     {
 248:Middlewares/ST/STM32_USB_Device_Library/Core/Src/usbd_ctlreq.c ****       ret = (USBD_StatusTypeDef)pdev->pClass->Setup (pdev, req);
 249:Middlewares/ST/STM32_USB_Device_Library/Core/Src/usbd_ctlreq.c **** 
 250:Middlewares/ST/STM32_USB_Device_Library/Core/Src/usbd_ctlreq.c ****       return ret;
 251:Middlewares/ST/STM32_USB_Device_Library/Core/Src/usbd_ctlreq.c ****     }
 252:Middlewares/ST/STM32_USB_Device_Library/Core/Src/usbd_ctlreq.c **** 
 253:Middlewares/ST/STM32_USB_Device_Library/Core/Src/usbd_ctlreq.c ****     switch (req->bRequest)
 254:Middlewares/ST/STM32_USB_Device_Library/Core/Src/usbd_ctlreq.c ****     {
 255:Middlewares/ST/STM32_USB_Device_Library/Core/Src/usbd_ctlreq.c **** 
 256:Middlewares/ST/STM32_USB_Device_Library/Core/Src/usbd_ctlreq.c ****     case USB_REQ_SET_FEATURE :
 257:Middlewares/ST/STM32_USB_Device_Library/Core/Src/usbd_ctlreq.c **** 
 258:Middlewares/ST/STM32_USB_Device_Library/Core/Src/usbd_ctlreq.c ****       switch (pdev->dev_state)
ARM GAS  /tmp/ccT1bBgQ.s 			page 6


 259:Middlewares/ST/STM32_USB_Device_Library/Core/Src/usbd_ctlreq.c ****       {
 260:Middlewares/ST/STM32_USB_Device_Library/Core/Src/usbd_ctlreq.c ****       case USBD_STATE_ADDRESSED:
 261:Middlewares/ST/STM32_USB_Device_Library/Core/Src/usbd_ctlreq.c ****         if ((ep_addr != 0x00U) && (ep_addr != 0x80U))
 262:Middlewares/ST/STM32_USB_Device_Library/Core/Src/usbd_ctlreq.c ****         {
 263:Middlewares/ST/STM32_USB_Device_Library/Core/Src/usbd_ctlreq.c ****           USBD_LL_StallEP(pdev, ep_addr);
 264:Middlewares/ST/STM32_USB_Device_Library/Core/Src/usbd_ctlreq.c ****           USBD_LL_StallEP(pdev, 0x80U);
 265:Middlewares/ST/STM32_USB_Device_Library/Core/Src/usbd_ctlreq.c ****         }
 266:Middlewares/ST/STM32_USB_Device_Library/Core/Src/usbd_ctlreq.c ****         else
 267:Middlewares/ST/STM32_USB_Device_Library/Core/Src/usbd_ctlreq.c ****         {
 268:Middlewares/ST/STM32_USB_Device_Library/Core/Src/usbd_ctlreq.c ****           USBD_CtlError(pdev, req);
 269:Middlewares/ST/STM32_USB_Device_Library/Core/Src/usbd_ctlreq.c ****         }
 270:Middlewares/ST/STM32_USB_Device_Library/Core/Src/usbd_ctlreq.c ****         break;
 271:Middlewares/ST/STM32_USB_Device_Library/Core/Src/usbd_ctlreq.c **** 
 272:Middlewares/ST/STM32_USB_Device_Library/Core/Src/usbd_ctlreq.c ****       case USBD_STATE_CONFIGURED:
 273:Middlewares/ST/STM32_USB_Device_Library/Core/Src/usbd_ctlreq.c ****         if (req->wValue == USB_FEATURE_EP_HALT)
 274:Middlewares/ST/STM32_USB_Device_Library/Core/Src/usbd_ctlreq.c ****         {
 275:Middlewares/ST/STM32_USB_Device_Library/Core/Src/usbd_ctlreq.c ****           if ((ep_addr != 0x00U) && (ep_addr != 0x80U) && (req->wLength == 0x00U))
 276:Middlewares/ST/STM32_USB_Device_Library/Core/Src/usbd_ctlreq.c ****           {
 277:Middlewares/ST/STM32_USB_Device_Library/Core/Src/usbd_ctlreq.c ****             USBD_LL_StallEP(pdev, ep_addr);
 278:Middlewares/ST/STM32_USB_Device_Library/Core/Src/usbd_ctlreq.c ****           }
 279:Middlewares/ST/STM32_USB_Device_Library/Core/Src/usbd_ctlreq.c ****         }
 280:Middlewares/ST/STM32_USB_Device_Library/Core/Src/usbd_ctlreq.c ****         USBD_CtlSendStatus(pdev);
 281:Middlewares/ST/STM32_USB_Device_Library/Core/Src/usbd_ctlreq.c **** 
 282:Middlewares/ST/STM32_USB_Device_Library/Core/Src/usbd_ctlreq.c ****         break;
 283:Middlewares/ST/STM32_USB_Device_Library/Core/Src/usbd_ctlreq.c **** 
 284:Middlewares/ST/STM32_USB_Device_Library/Core/Src/usbd_ctlreq.c ****       default:
 285:Middlewares/ST/STM32_USB_Device_Library/Core/Src/usbd_ctlreq.c ****         USBD_CtlError(pdev, req);
 286:Middlewares/ST/STM32_USB_Device_Library/Core/Src/usbd_ctlreq.c ****         break;
 287:Middlewares/ST/STM32_USB_Device_Library/Core/Src/usbd_ctlreq.c ****       }
 288:Middlewares/ST/STM32_USB_Device_Library/Core/Src/usbd_ctlreq.c ****       break;
 289:Middlewares/ST/STM32_USB_Device_Library/Core/Src/usbd_ctlreq.c **** 
 290:Middlewares/ST/STM32_USB_Device_Library/Core/Src/usbd_ctlreq.c ****     case USB_REQ_CLEAR_FEATURE :
 291:Middlewares/ST/STM32_USB_Device_Library/Core/Src/usbd_ctlreq.c **** 
 292:Middlewares/ST/STM32_USB_Device_Library/Core/Src/usbd_ctlreq.c ****       switch (pdev->dev_state)
 293:Middlewares/ST/STM32_USB_Device_Library/Core/Src/usbd_ctlreq.c ****       {
 294:Middlewares/ST/STM32_USB_Device_Library/Core/Src/usbd_ctlreq.c ****       case USBD_STATE_ADDRESSED:
 295:Middlewares/ST/STM32_USB_Device_Library/Core/Src/usbd_ctlreq.c ****         if ((ep_addr != 0x00U) && (ep_addr != 0x80U))
 296:Middlewares/ST/STM32_USB_Device_Library/Core/Src/usbd_ctlreq.c ****         {
 297:Middlewares/ST/STM32_USB_Device_Library/Core/Src/usbd_ctlreq.c ****           USBD_LL_StallEP(pdev, ep_addr);
 298:Middlewares/ST/STM32_USB_Device_Library/Core/Src/usbd_ctlreq.c ****           USBD_LL_StallEP(pdev, 0x80U);
 299:Middlewares/ST/STM32_USB_Device_Library/Core/Src/usbd_ctlreq.c ****         }
 300:Middlewares/ST/STM32_USB_Device_Library/Core/Src/usbd_ctlreq.c ****         else
 301:Middlewares/ST/STM32_USB_Device_Library/Core/Src/usbd_ctlreq.c ****         {
 302:Middlewares/ST/STM32_USB_Device_Library/Core/Src/usbd_ctlreq.c ****           USBD_CtlError(pdev, req);
 303:Middlewares/ST/STM32_USB_Device_Library/Core/Src/usbd_ctlreq.c ****         }
 304:Middlewares/ST/STM32_USB_Device_Library/Core/Src/usbd_ctlreq.c ****         break;
 305:Middlewares/ST/STM32_USB_Device_Library/Core/Src/usbd_ctlreq.c **** 
 306:Middlewares/ST/STM32_USB_Device_Library/Core/Src/usbd_ctlreq.c ****       case USBD_STATE_CONFIGURED:
 307:Middlewares/ST/STM32_USB_Device_Library/Core/Src/usbd_ctlreq.c ****         if (req->wValue == USB_FEATURE_EP_HALT)
 308:Middlewares/ST/STM32_USB_Device_Library/Core/Src/usbd_ctlreq.c ****         {
 309:Middlewares/ST/STM32_USB_Device_Library/Core/Src/usbd_ctlreq.c ****           if ((ep_addr & 0x7FU) != 0x00U)
 310:Middlewares/ST/STM32_USB_Device_Library/Core/Src/usbd_ctlreq.c ****           {
 311:Middlewares/ST/STM32_USB_Device_Library/Core/Src/usbd_ctlreq.c ****             USBD_LL_ClearStallEP(pdev, ep_addr);
 312:Middlewares/ST/STM32_USB_Device_Library/Core/Src/usbd_ctlreq.c ****           }
 313:Middlewares/ST/STM32_USB_Device_Library/Core/Src/usbd_ctlreq.c ****           USBD_CtlSendStatus(pdev);
 314:Middlewares/ST/STM32_USB_Device_Library/Core/Src/usbd_ctlreq.c ****         }
 315:Middlewares/ST/STM32_USB_Device_Library/Core/Src/usbd_ctlreq.c ****         break;
ARM GAS  /tmp/ccT1bBgQ.s 			page 7


 316:Middlewares/ST/STM32_USB_Device_Library/Core/Src/usbd_ctlreq.c **** 
 317:Middlewares/ST/STM32_USB_Device_Library/Core/Src/usbd_ctlreq.c ****       default:
 318:Middlewares/ST/STM32_USB_Device_Library/Core/Src/usbd_ctlreq.c ****         USBD_CtlError(pdev, req);
 319:Middlewares/ST/STM32_USB_Device_Library/Core/Src/usbd_ctlreq.c ****         break;
 320:Middlewares/ST/STM32_USB_Device_Library/Core/Src/usbd_ctlreq.c ****       }
 321:Middlewares/ST/STM32_USB_Device_Library/Core/Src/usbd_ctlreq.c ****       break;
 322:Middlewares/ST/STM32_USB_Device_Library/Core/Src/usbd_ctlreq.c **** 
 323:Middlewares/ST/STM32_USB_Device_Library/Core/Src/usbd_ctlreq.c ****     case USB_REQ_GET_STATUS:
 324:Middlewares/ST/STM32_USB_Device_Library/Core/Src/usbd_ctlreq.c ****       switch (pdev->dev_state)
 325:Middlewares/ST/STM32_USB_Device_Library/Core/Src/usbd_ctlreq.c ****       {
 326:Middlewares/ST/STM32_USB_Device_Library/Core/Src/usbd_ctlreq.c ****       case USBD_STATE_ADDRESSED:
 327:Middlewares/ST/STM32_USB_Device_Library/Core/Src/usbd_ctlreq.c ****         if ((ep_addr != 0x00U) && (ep_addr != 0x80U))
 328:Middlewares/ST/STM32_USB_Device_Library/Core/Src/usbd_ctlreq.c ****         {
 329:Middlewares/ST/STM32_USB_Device_Library/Core/Src/usbd_ctlreq.c ****           USBD_CtlError(pdev, req);
 330:Middlewares/ST/STM32_USB_Device_Library/Core/Src/usbd_ctlreq.c ****           break;
 331:Middlewares/ST/STM32_USB_Device_Library/Core/Src/usbd_ctlreq.c ****         }
 332:Middlewares/ST/STM32_USB_Device_Library/Core/Src/usbd_ctlreq.c ****         pep = ((ep_addr & 0x80U) == 0x80U) ? &pdev->ep_in[ep_addr & 0x7FU]:\
 333:Middlewares/ST/STM32_USB_Device_Library/Core/Src/usbd_ctlreq.c ****           &pdev->ep_out[ep_addr & 0x7FU];
 334:Middlewares/ST/STM32_USB_Device_Library/Core/Src/usbd_ctlreq.c **** 
 335:Middlewares/ST/STM32_USB_Device_Library/Core/Src/usbd_ctlreq.c ****           pep->status = 0x0000U;
 336:Middlewares/ST/STM32_USB_Device_Library/Core/Src/usbd_ctlreq.c **** 
 337:Middlewares/ST/STM32_USB_Device_Library/Core/Src/usbd_ctlreq.c ****           USBD_CtlSendData (pdev, (uint8_t *)(void *)&pep->status, 2U);
 338:Middlewares/ST/STM32_USB_Device_Library/Core/Src/usbd_ctlreq.c ****           break;
 339:Middlewares/ST/STM32_USB_Device_Library/Core/Src/usbd_ctlreq.c **** 
 340:Middlewares/ST/STM32_USB_Device_Library/Core/Src/usbd_ctlreq.c ****       case USBD_STATE_CONFIGURED:
 341:Middlewares/ST/STM32_USB_Device_Library/Core/Src/usbd_ctlreq.c ****         if((ep_addr & 0x80U) == 0x80U)
 342:Middlewares/ST/STM32_USB_Device_Library/Core/Src/usbd_ctlreq.c ****         {
 343:Middlewares/ST/STM32_USB_Device_Library/Core/Src/usbd_ctlreq.c ****           if (pdev->ep_in[ep_addr & 0xFU].is_used == 0U)
 344:Middlewares/ST/STM32_USB_Device_Library/Core/Src/usbd_ctlreq.c ****           {
 345:Middlewares/ST/STM32_USB_Device_Library/Core/Src/usbd_ctlreq.c ****             USBD_CtlError(pdev, req);
 346:Middlewares/ST/STM32_USB_Device_Library/Core/Src/usbd_ctlreq.c ****             break;
 347:Middlewares/ST/STM32_USB_Device_Library/Core/Src/usbd_ctlreq.c ****           }
 348:Middlewares/ST/STM32_USB_Device_Library/Core/Src/usbd_ctlreq.c ****         }
 349:Middlewares/ST/STM32_USB_Device_Library/Core/Src/usbd_ctlreq.c ****         else
 350:Middlewares/ST/STM32_USB_Device_Library/Core/Src/usbd_ctlreq.c ****         {
 351:Middlewares/ST/STM32_USB_Device_Library/Core/Src/usbd_ctlreq.c ****           if (pdev->ep_out[ep_addr & 0xFU].is_used == 0U)
 352:Middlewares/ST/STM32_USB_Device_Library/Core/Src/usbd_ctlreq.c ****           {
 353:Middlewares/ST/STM32_USB_Device_Library/Core/Src/usbd_ctlreq.c ****             USBD_CtlError(pdev, req);
 354:Middlewares/ST/STM32_USB_Device_Library/Core/Src/usbd_ctlreq.c ****             break;
 355:Middlewares/ST/STM32_USB_Device_Library/Core/Src/usbd_ctlreq.c ****           }
 356:Middlewares/ST/STM32_USB_Device_Library/Core/Src/usbd_ctlreq.c ****         }
 357:Middlewares/ST/STM32_USB_Device_Library/Core/Src/usbd_ctlreq.c **** 
 358:Middlewares/ST/STM32_USB_Device_Library/Core/Src/usbd_ctlreq.c ****         pep = ((ep_addr & 0x80U) == 0x80U) ? &pdev->ep_in[ep_addr & 0x7FU]:\
 359:Middlewares/ST/STM32_USB_Device_Library/Core/Src/usbd_ctlreq.c ****           &pdev->ep_out[ep_addr & 0x7FU];
 360:Middlewares/ST/STM32_USB_Device_Library/Core/Src/usbd_ctlreq.c **** 
 361:Middlewares/ST/STM32_USB_Device_Library/Core/Src/usbd_ctlreq.c ****           if ((ep_addr == 0x00U) || (ep_addr == 0x80U))
 362:Middlewares/ST/STM32_USB_Device_Library/Core/Src/usbd_ctlreq.c ****           {
 363:Middlewares/ST/STM32_USB_Device_Library/Core/Src/usbd_ctlreq.c ****             pep->status = 0x0000U;
 364:Middlewares/ST/STM32_USB_Device_Library/Core/Src/usbd_ctlreq.c ****           }
 365:Middlewares/ST/STM32_USB_Device_Library/Core/Src/usbd_ctlreq.c ****           else if(USBD_LL_IsStallEP(pdev, ep_addr))
 366:Middlewares/ST/STM32_USB_Device_Library/Core/Src/usbd_ctlreq.c ****           {
 367:Middlewares/ST/STM32_USB_Device_Library/Core/Src/usbd_ctlreq.c ****             pep->status = 0x0001U;
 368:Middlewares/ST/STM32_USB_Device_Library/Core/Src/usbd_ctlreq.c ****           }
 369:Middlewares/ST/STM32_USB_Device_Library/Core/Src/usbd_ctlreq.c ****           else
 370:Middlewares/ST/STM32_USB_Device_Library/Core/Src/usbd_ctlreq.c ****           {
 371:Middlewares/ST/STM32_USB_Device_Library/Core/Src/usbd_ctlreq.c ****             pep->status = 0x0000U;
 372:Middlewares/ST/STM32_USB_Device_Library/Core/Src/usbd_ctlreq.c ****           }
ARM GAS  /tmp/ccT1bBgQ.s 			page 8


 373:Middlewares/ST/STM32_USB_Device_Library/Core/Src/usbd_ctlreq.c **** 
 374:Middlewares/ST/STM32_USB_Device_Library/Core/Src/usbd_ctlreq.c ****           USBD_CtlSendData (pdev, (uint8_t *)(void *)&pep->status, 2U);
 375:Middlewares/ST/STM32_USB_Device_Library/Core/Src/usbd_ctlreq.c ****           break;
 376:Middlewares/ST/STM32_USB_Device_Library/Core/Src/usbd_ctlreq.c **** 
 377:Middlewares/ST/STM32_USB_Device_Library/Core/Src/usbd_ctlreq.c ****       default:
 378:Middlewares/ST/STM32_USB_Device_Library/Core/Src/usbd_ctlreq.c ****         USBD_CtlError(pdev, req);
 379:Middlewares/ST/STM32_USB_Device_Library/Core/Src/usbd_ctlreq.c ****         break;
 380:Middlewares/ST/STM32_USB_Device_Library/Core/Src/usbd_ctlreq.c ****       }
 381:Middlewares/ST/STM32_USB_Device_Library/Core/Src/usbd_ctlreq.c ****       break;
 382:Middlewares/ST/STM32_USB_Device_Library/Core/Src/usbd_ctlreq.c **** 
 383:Middlewares/ST/STM32_USB_Device_Library/Core/Src/usbd_ctlreq.c ****     default:
 384:Middlewares/ST/STM32_USB_Device_Library/Core/Src/usbd_ctlreq.c ****       USBD_CtlError(pdev, req);
 385:Middlewares/ST/STM32_USB_Device_Library/Core/Src/usbd_ctlreq.c ****       break;
 386:Middlewares/ST/STM32_USB_Device_Library/Core/Src/usbd_ctlreq.c ****     }
 387:Middlewares/ST/STM32_USB_Device_Library/Core/Src/usbd_ctlreq.c ****     break;
 388:Middlewares/ST/STM32_USB_Device_Library/Core/Src/usbd_ctlreq.c **** 
 389:Middlewares/ST/STM32_USB_Device_Library/Core/Src/usbd_ctlreq.c ****   default:
 390:Middlewares/ST/STM32_USB_Device_Library/Core/Src/usbd_ctlreq.c ****     USBD_CtlError(pdev, req);
 391:Middlewares/ST/STM32_USB_Device_Library/Core/Src/usbd_ctlreq.c ****     break;
 392:Middlewares/ST/STM32_USB_Device_Library/Core/Src/usbd_ctlreq.c ****   }
 393:Middlewares/ST/STM32_USB_Device_Library/Core/Src/usbd_ctlreq.c **** 
 394:Middlewares/ST/STM32_USB_Device_Library/Core/Src/usbd_ctlreq.c ****   return ret;
 395:Middlewares/ST/STM32_USB_Device_Library/Core/Src/usbd_ctlreq.c **** }
 396:Middlewares/ST/STM32_USB_Device_Library/Core/Src/usbd_ctlreq.c **** /**
 397:Middlewares/ST/STM32_USB_Device_Library/Core/Src/usbd_ctlreq.c **** * @brief  USBD_GetDescriptor
 398:Middlewares/ST/STM32_USB_Device_Library/Core/Src/usbd_ctlreq.c **** *         Handle Get Descriptor requests
 399:Middlewares/ST/STM32_USB_Device_Library/Core/Src/usbd_ctlreq.c **** * @param  pdev: device instance
 400:Middlewares/ST/STM32_USB_Device_Library/Core/Src/usbd_ctlreq.c **** * @param  req: usb request
 401:Middlewares/ST/STM32_USB_Device_Library/Core/Src/usbd_ctlreq.c **** * @retval status
 402:Middlewares/ST/STM32_USB_Device_Library/Core/Src/usbd_ctlreq.c **** */
 403:Middlewares/ST/STM32_USB_Device_Library/Core/Src/usbd_ctlreq.c **** static void USBD_GetDescriptor(USBD_HandleTypeDef *pdev ,
 404:Middlewares/ST/STM32_USB_Device_Library/Core/Src/usbd_ctlreq.c ****                                USBD_SetupReqTypedef *req)
 405:Middlewares/ST/STM32_USB_Device_Library/Core/Src/usbd_ctlreq.c **** {
 406:Middlewares/ST/STM32_USB_Device_Library/Core/Src/usbd_ctlreq.c ****   uint16_t len;
 407:Middlewares/ST/STM32_USB_Device_Library/Core/Src/usbd_ctlreq.c ****   uint8_t *pbuf;
 408:Middlewares/ST/STM32_USB_Device_Library/Core/Src/usbd_ctlreq.c **** 
 409:Middlewares/ST/STM32_USB_Device_Library/Core/Src/usbd_ctlreq.c **** 
 410:Middlewares/ST/STM32_USB_Device_Library/Core/Src/usbd_ctlreq.c ****   switch (req->wValue >> 8)
 411:Middlewares/ST/STM32_USB_Device_Library/Core/Src/usbd_ctlreq.c ****   {
 412:Middlewares/ST/STM32_USB_Device_Library/Core/Src/usbd_ctlreq.c **** #if (USBD_LPM_ENABLED == 1U)
 413:Middlewares/ST/STM32_USB_Device_Library/Core/Src/usbd_ctlreq.c ****   case USB_DESC_TYPE_BOS:
 414:Middlewares/ST/STM32_USB_Device_Library/Core/Src/usbd_ctlreq.c ****     pbuf = pdev->pDesc->GetBOSDescriptor(pdev->dev_speed, &len);
 415:Middlewares/ST/STM32_USB_Device_Library/Core/Src/usbd_ctlreq.c ****     break;
 416:Middlewares/ST/STM32_USB_Device_Library/Core/Src/usbd_ctlreq.c **** #endif
 417:Middlewares/ST/STM32_USB_Device_Library/Core/Src/usbd_ctlreq.c ****   case USB_DESC_TYPE_DEVICE:
 418:Middlewares/ST/STM32_USB_Device_Library/Core/Src/usbd_ctlreq.c ****     pbuf = pdev->pDesc->GetDeviceDescriptor(pdev->dev_speed, &len);
 419:Middlewares/ST/STM32_USB_Device_Library/Core/Src/usbd_ctlreq.c ****     break;
 420:Middlewares/ST/STM32_USB_Device_Library/Core/Src/usbd_ctlreq.c **** 
 421:Middlewares/ST/STM32_USB_Device_Library/Core/Src/usbd_ctlreq.c ****   case USB_DESC_TYPE_CONFIGURATION:
 422:Middlewares/ST/STM32_USB_Device_Library/Core/Src/usbd_ctlreq.c ****     if(pdev->dev_speed == USBD_SPEED_HIGH )
 423:Middlewares/ST/STM32_USB_Device_Library/Core/Src/usbd_ctlreq.c ****     {
 424:Middlewares/ST/STM32_USB_Device_Library/Core/Src/usbd_ctlreq.c ****       pbuf   = (uint8_t *)pdev->pClass->GetHSConfigDescriptor(&len);
 425:Middlewares/ST/STM32_USB_Device_Library/Core/Src/usbd_ctlreq.c ****       pbuf[1] = USB_DESC_TYPE_CONFIGURATION;
 426:Middlewares/ST/STM32_USB_Device_Library/Core/Src/usbd_ctlreq.c ****     }
 427:Middlewares/ST/STM32_USB_Device_Library/Core/Src/usbd_ctlreq.c ****     else
 428:Middlewares/ST/STM32_USB_Device_Library/Core/Src/usbd_ctlreq.c ****     {
 429:Middlewares/ST/STM32_USB_Device_Library/Core/Src/usbd_ctlreq.c ****       pbuf   = (uint8_t *)pdev->pClass->GetFSConfigDescriptor(&len);
ARM GAS  /tmp/ccT1bBgQ.s 			page 9


 430:Middlewares/ST/STM32_USB_Device_Library/Core/Src/usbd_ctlreq.c ****       pbuf[1] = USB_DESC_TYPE_CONFIGURATION;
 431:Middlewares/ST/STM32_USB_Device_Library/Core/Src/usbd_ctlreq.c ****     }
 432:Middlewares/ST/STM32_USB_Device_Library/Core/Src/usbd_ctlreq.c ****     break;
 433:Middlewares/ST/STM32_USB_Device_Library/Core/Src/usbd_ctlreq.c **** 
 434:Middlewares/ST/STM32_USB_Device_Library/Core/Src/usbd_ctlreq.c ****   case USB_DESC_TYPE_STRING:
 435:Middlewares/ST/STM32_USB_Device_Library/Core/Src/usbd_ctlreq.c ****     switch ((uint8_t)(req->wValue))
 436:Middlewares/ST/STM32_USB_Device_Library/Core/Src/usbd_ctlreq.c ****     {
 437:Middlewares/ST/STM32_USB_Device_Library/Core/Src/usbd_ctlreq.c ****     case USBD_IDX_LANGID_STR:
 438:Middlewares/ST/STM32_USB_Device_Library/Core/Src/usbd_ctlreq.c ****      pbuf = pdev->pDesc->GetLangIDStrDescriptor(pdev->dev_speed, &len);
 439:Middlewares/ST/STM32_USB_Device_Library/Core/Src/usbd_ctlreq.c ****       break;
 440:Middlewares/ST/STM32_USB_Device_Library/Core/Src/usbd_ctlreq.c **** 
 441:Middlewares/ST/STM32_USB_Device_Library/Core/Src/usbd_ctlreq.c ****     case USBD_IDX_MFC_STR:
 442:Middlewares/ST/STM32_USB_Device_Library/Core/Src/usbd_ctlreq.c ****       pbuf = pdev->pDesc->GetManufacturerStrDescriptor(pdev->dev_speed, &len);
 443:Middlewares/ST/STM32_USB_Device_Library/Core/Src/usbd_ctlreq.c ****       break;
 444:Middlewares/ST/STM32_USB_Device_Library/Core/Src/usbd_ctlreq.c **** 
 445:Middlewares/ST/STM32_USB_Device_Library/Core/Src/usbd_ctlreq.c ****     case USBD_IDX_PRODUCT_STR:
 446:Middlewares/ST/STM32_USB_Device_Library/Core/Src/usbd_ctlreq.c ****       pbuf = pdev->pDesc->GetProductStrDescriptor(pdev->dev_speed, &len);
 447:Middlewares/ST/STM32_USB_Device_Library/Core/Src/usbd_ctlreq.c ****       break;
 448:Middlewares/ST/STM32_USB_Device_Library/Core/Src/usbd_ctlreq.c **** 
 449:Middlewares/ST/STM32_USB_Device_Library/Core/Src/usbd_ctlreq.c ****     case USBD_IDX_SERIAL_STR:
 450:Middlewares/ST/STM32_USB_Device_Library/Core/Src/usbd_ctlreq.c ****       pbuf = pdev->pDesc->GetSerialStrDescriptor(pdev->dev_speed, &len);
 451:Middlewares/ST/STM32_USB_Device_Library/Core/Src/usbd_ctlreq.c ****       break;
 452:Middlewares/ST/STM32_USB_Device_Library/Core/Src/usbd_ctlreq.c **** 
 453:Middlewares/ST/STM32_USB_Device_Library/Core/Src/usbd_ctlreq.c ****     case USBD_IDX_CONFIG_STR:
 454:Middlewares/ST/STM32_USB_Device_Library/Core/Src/usbd_ctlreq.c ****       pbuf = pdev->pDesc->GetConfigurationStrDescriptor(pdev->dev_speed, &len);
 455:Middlewares/ST/STM32_USB_Device_Library/Core/Src/usbd_ctlreq.c ****       break;
 456:Middlewares/ST/STM32_USB_Device_Library/Core/Src/usbd_ctlreq.c **** 
 457:Middlewares/ST/STM32_USB_Device_Library/Core/Src/usbd_ctlreq.c ****     case USBD_IDX_INTERFACE_STR:
 458:Middlewares/ST/STM32_USB_Device_Library/Core/Src/usbd_ctlreq.c ****       pbuf = pdev->pDesc->GetInterfaceStrDescriptor(pdev->dev_speed, &len);
 459:Middlewares/ST/STM32_USB_Device_Library/Core/Src/usbd_ctlreq.c ****       break;
 460:Middlewares/ST/STM32_USB_Device_Library/Core/Src/usbd_ctlreq.c **** 
 461:Middlewares/ST/STM32_USB_Device_Library/Core/Src/usbd_ctlreq.c ****     default:
 462:Middlewares/ST/STM32_USB_Device_Library/Core/Src/usbd_ctlreq.c **** #if (USBD_SUPPORT_USER_STRING == 1U)
 463:Middlewares/ST/STM32_USB_Device_Library/Core/Src/usbd_ctlreq.c ****       pbuf = pdev->pClass->GetUsrStrDescriptor(pdev, (req->wValue) , &len);
 464:Middlewares/ST/STM32_USB_Device_Library/Core/Src/usbd_ctlreq.c ****       break;
 465:Middlewares/ST/STM32_USB_Device_Library/Core/Src/usbd_ctlreq.c **** #else
 466:Middlewares/ST/STM32_USB_Device_Library/Core/Src/usbd_ctlreq.c ****        USBD_CtlError(pdev , req);
 467:Middlewares/ST/STM32_USB_Device_Library/Core/Src/usbd_ctlreq.c ****       return;
 468:Middlewares/ST/STM32_USB_Device_Library/Core/Src/usbd_ctlreq.c **** #endif
 469:Middlewares/ST/STM32_USB_Device_Library/Core/Src/usbd_ctlreq.c ****     }
 470:Middlewares/ST/STM32_USB_Device_Library/Core/Src/usbd_ctlreq.c ****     break;
 471:Middlewares/ST/STM32_USB_Device_Library/Core/Src/usbd_ctlreq.c ****   case USB_DESC_TYPE_DEVICE_QUALIFIER:
 472:Middlewares/ST/STM32_USB_Device_Library/Core/Src/usbd_ctlreq.c **** 
 473:Middlewares/ST/STM32_USB_Device_Library/Core/Src/usbd_ctlreq.c ****     if(pdev->dev_speed == USBD_SPEED_HIGH)
 474:Middlewares/ST/STM32_USB_Device_Library/Core/Src/usbd_ctlreq.c ****     {
 475:Middlewares/ST/STM32_USB_Device_Library/Core/Src/usbd_ctlreq.c ****       pbuf = (uint8_t *)pdev->pClass->GetDeviceQualifierDescriptor(&len);
 476:Middlewares/ST/STM32_USB_Device_Library/Core/Src/usbd_ctlreq.c ****       break;
 477:Middlewares/ST/STM32_USB_Device_Library/Core/Src/usbd_ctlreq.c ****     }
 478:Middlewares/ST/STM32_USB_Device_Library/Core/Src/usbd_ctlreq.c ****     else
 479:Middlewares/ST/STM32_USB_Device_Library/Core/Src/usbd_ctlreq.c ****     {
 480:Middlewares/ST/STM32_USB_Device_Library/Core/Src/usbd_ctlreq.c ****       USBD_CtlError(pdev , req);
 481:Middlewares/ST/STM32_USB_Device_Library/Core/Src/usbd_ctlreq.c ****       return;
 482:Middlewares/ST/STM32_USB_Device_Library/Core/Src/usbd_ctlreq.c ****     }
 483:Middlewares/ST/STM32_USB_Device_Library/Core/Src/usbd_ctlreq.c **** 
 484:Middlewares/ST/STM32_USB_Device_Library/Core/Src/usbd_ctlreq.c ****   case USB_DESC_TYPE_OTHER_SPEED_CONFIGURATION:
 485:Middlewares/ST/STM32_USB_Device_Library/Core/Src/usbd_ctlreq.c ****     if(pdev->dev_speed == USBD_SPEED_HIGH  )
 486:Middlewares/ST/STM32_USB_Device_Library/Core/Src/usbd_ctlreq.c ****     {
ARM GAS  /tmp/ccT1bBgQ.s 			page 10


 487:Middlewares/ST/STM32_USB_Device_Library/Core/Src/usbd_ctlreq.c ****       pbuf   = (uint8_t *)pdev->pClass->GetOtherSpeedConfigDescriptor(&len);
 488:Middlewares/ST/STM32_USB_Device_Library/Core/Src/usbd_ctlreq.c ****       pbuf[1] = USB_DESC_TYPE_OTHER_SPEED_CONFIGURATION;
 489:Middlewares/ST/STM32_USB_Device_Library/Core/Src/usbd_ctlreq.c ****       break;
 490:Middlewares/ST/STM32_USB_Device_Library/Core/Src/usbd_ctlreq.c ****     }
 491:Middlewares/ST/STM32_USB_Device_Library/Core/Src/usbd_ctlreq.c ****     else
 492:Middlewares/ST/STM32_USB_Device_Library/Core/Src/usbd_ctlreq.c ****     {
 493:Middlewares/ST/STM32_USB_Device_Library/Core/Src/usbd_ctlreq.c ****       USBD_CtlError(pdev , req);
 494:Middlewares/ST/STM32_USB_Device_Library/Core/Src/usbd_ctlreq.c ****       return;
 495:Middlewares/ST/STM32_USB_Device_Library/Core/Src/usbd_ctlreq.c ****     }
 496:Middlewares/ST/STM32_USB_Device_Library/Core/Src/usbd_ctlreq.c **** 
 497:Middlewares/ST/STM32_USB_Device_Library/Core/Src/usbd_ctlreq.c ****   default:
 498:Middlewares/ST/STM32_USB_Device_Library/Core/Src/usbd_ctlreq.c ****      USBD_CtlError(pdev , req);
 499:Middlewares/ST/STM32_USB_Device_Library/Core/Src/usbd_ctlreq.c ****     return;
 500:Middlewares/ST/STM32_USB_Device_Library/Core/Src/usbd_ctlreq.c ****   }
 501:Middlewares/ST/STM32_USB_Device_Library/Core/Src/usbd_ctlreq.c **** 
 502:Middlewares/ST/STM32_USB_Device_Library/Core/Src/usbd_ctlreq.c ****   if((len != 0U) && (req->wLength != 0U))
 503:Middlewares/ST/STM32_USB_Device_Library/Core/Src/usbd_ctlreq.c ****   {
 504:Middlewares/ST/STM32_USB_Device_Library/Core/Src/usbd_ctlreq.c **** 
 505:Middlewares/ST/STM32_USB_Device_Library/Core/Src/usbd_ctlreq.c ****     len = MIN(len, req->wLength);
 506:Middlewares/ST/STM32_USB_Device_Library/Core/Src/usbd_ctlreq.c **** 
 507:Middlewares/ST/STM32_USB_Device_Library/Core/Src/usbd_ctlreq.c ****     USBD_CtlSendData (pdev, pbuf, len);
 508:Middlewares/ST/STM32_USB_Device_Library/Core/Src/usbd_ctlreq.c ****   }
 509:Middlewares/ST/STM32_USB_Device_Library/Core/Src/usbd_ctlreq.c **** 
 510:Middlewares/ST/STM32_USB_Device_Library/Core/Src/usbd_ctlreq.c ****   if(req->wLength == 0U)
 511:Middlewares/ST/STM32_USB_Device_Library/Core/Src/usbd_ctlreq.c ****   {
 512:Middlewares/ST/STM32_USB_Device_Library/Core/Src/usbd_ctlreq.c ****    USBD_CtlSendStatus(pdev);
 513:Middlewares/ST/STM32_USB_Device_Library/Core/Src/usbd_ctlreq.c ****   }
 514:Middlewares/ST/STM32_USB_Device_Library/Core/Src/usbd_ctlreq.c **** }
 515:Middlewares/ST/STM32_USB_Device_Library/Core/Src/usbd_ctlreq.c **** 
 516:Middlewares/ST/STM32_USB_Device_Library/Core/Src/usbd_ctlreq.c **** /**
 517:Middlewares/ST/STM32_USB_Device_Library/Core/Src/usbd_ctlreq.c **** * @brief  USBD_SetAddress
 518:Middlewares/ST/STM32_USB_Device_Library/Core/Src/usbd_ctlreq.c **** *         Set device address
 519:Middlewares/ST/STM32_USB_Device_Library/Core/Src/usbd_ctlreq.c **** * @param  pdev: device instance
 520:Middlewares/ST/STM32_USB_Device_Library/Core/Src/usbd_ctlreq.c **** * @param  req: usb request
 521:Middlewares/ST/STM32_USB_Device_Library/Core/Src/usbd_ctlreq.c **** * @retval status
 522:Middlewares/ST/STM32_USB_Device_Library/Core/Src/usbd_ctlreq.c **** */
 523:Middlewares/ST/STM32_USB_Device_Library/Core/Src/usbd_ctlreq.c **** static void USBD_SetAddress(USBD_HandleTypeDef *pdev ,
 524:Middlewares/ST/STM32_USB_Device_Library/Core/Src/usbd_ctlreq.c ****                             USBD_SetupReqTypedef *req)
 525:Middlewares/ST/STM32_USB_Device_Library/Core/Src/usbd_ctlreq.c **** {
 526:Middlewares/ST/STM32_USB_Device_Library/Core/Src/usbd_ctlreq.c ****   uint8_t  dev_addr;
 527:Middlewares/ST/STM32_USB_Device_Library/Core/Src/usbd_ctlreq.c **** 
 528:Middlewares/ST/STM32_USB_Device_Library/Core/Src/usbd_ctlreq.c ****   if ((req->wIndex == 0U) && (req->wLength == 0U) && (req->wValue < 128U))
 529:Middlewares/ST/STM32_USB_Device_Library/Core/Src/usbd_ctlreq.c ****   {
 530:Middlewares/ST/STM32_USB_Device_Library/Core/Src/usbd_ctlreq.c ****     dev_addr = (uint8_t)(req->wValue) & 0x7FU;
 531:Middlewares/ST/STM32_USB_Device_Library/Core/Src/usbd_ctlreq.c **** 
 532:Middlewares/ST/STM32_USB_Device_Library/Core/Src/usbd_ctlreq.c ****     if (pdev->dev_state == USBD_STATE_CONFIGURED)
 533:Middlewares/ST/STM32_USB_Device_Library/Core/Src/usbd_ctlreq.c ****     {
 534:Middlewares/ST/STM32_USB_Device_Library/Core/Src/usbd_ctlreq.c ****       USBD_CtlError(pdev , req);
 535:Middlewares/ST/STM32_USB_Device_Library/Core/Src/usbd_ctlreq.c ****     }
 536:Middlewares/ST/STM32_USB_Device_Library/Core/Src/usbd_ctlreq.c ****     else
 537:Middlewares/ST/STM32_USB_Device_Library/Core/Src/usbd_ctlreq.c ****     {
 538:Middlewares/ST/STM32_USB_Device_Library/Core/Src/usbd_ctlreq.c ****       pdev->dev_address = dev_addr;
 539:Middlewares/ST/STM32_USB_Device_Library/Core/Src/usbd_ctlreq.c ****       USBD_LL_SetUSBAddress(pdev, dev_addr);
 540:Middlewares/ST/STM32_USB_Device_Library/Core/Src/usbd_ctlreq.c ****       USBD_CtlSendStatus(pdev);
 541:Middlewares/ST/STM32_USB_Device_Library/Core/Src/usbd_ctlreq.c **** 
 542:Middlewares/ST/STM32_USB_Device_Library/Core/Src/usbd_ctlreq.c ****       if (dev_addr != 0U)
 543:Middlewares/ST/STM32_USB_Device_Library/Core/Src/usbd_ctlreq.c ****       {
ARM GAS  /tmp/ccT1bBgQ.s 			page 11


 544:Middlewares/ST/STM32_USB_Device_Library/Core/Src/usbd_ctlreq.c ****         pdev->dev_state = USBD_STATE_ADDRESSED;
 545:Middlewares/ST/STM32_USB_Device_Library/Core/Src/usbd_ctlreq.c ****       }
 546:Middlewares/ST/STM32_USB_Device_Library/Core/Src/usbd_ctlreq.c ****       else
 547:Middlewares/ST/STM32_USB_Device_Library/Core/Src/usbd_ctlreq.c ****       {
 548:Middlewares/ST/STM32_USB_Device_Library/Core/Src/usbd_ctlreq.c ****         pdev->dev_state = USBD_STATE_DEFAULT;
 549:Middlewares/ST/STM32_USB_Device_Library/Core/Src/usbd_ctlreq.c ****       }
 550:Middlewares/ST/STM32_USB_Device_Library/Core/Src/usbd_ctlreq.c ****     }
 551:Middlewares/ST/STM32_USB_Device_Library/Core/Src/usbd_ctlreq.c ****   }
 552:Middlewares/ST/STM32_USB_Device_Library/Core/Src/usbd_ctlreq.c ****   else
 553:Middlewares/ST/STM32_USB_Device_Library/Core/Src/usbd_ctlreq.c ****   {
 554:Middlewares/ST/STM32_USB_Device_Library/Core/Src/usbd_ctlreq.c ****     USBD_CtlError(pdev, req);
 555:Middlewares/ST/STM32_USB_Device_Library/Core/Src/usbd_ctlreq.c ****   }
 556:Middlewares/ST/STM32_USB_Device_Library/Core/Src/usbd_ctlreq.c **** }
 557:Middlewares/ST/STM32_USB_Device_Library/Core/Src/usbd_ctlreq.c **** 
 558:Middlewares/ST/STM32_USB_Device_Library/Core/Src/usbd_ctlreq.c **** /**
 559:Middlewares/ST/STM32_USB_Device_Library/Core/Src/usbd_ctlreq.c **** * @brief  USBD_SetConfig
 560:Middlewares/ST/STM32_USB_Device_Library/Core/Src/usbd_ctlreq.c **** *         Handle Set device configuration request
 561:Middlewares/ST/STM32_USB_Device_Library/Core/Src/usbd_ctlreq.c **** * @param  pdev: device instance
 562:Middlewares/ST/STM32_USB_Device_Library/Core/Src/usbd_ctlreq.c **** * @param  req: usb request
 563:Middlewares/ST/STM32_USB_Device_Library/Core/Src/usbd_ctlreq.c **** * @retval status
 564:Middlewares/ST/STM32_USB_Device_Library/Core/Src/usbd_ctlreq.c **** */
 565:Middlewares/ST/STM32_USB_Device_Library/Core/Src/usbd_ctlreq.c **** static void USBD_SetConfig(USBD_HandleTypeDef *pdev, USBD_SetupReqTypedef *req)
 566:Middlewares/ST/STM32_USB_Device_Library/Core/Src/usbd_ctlreq.c **** {
 567:Middlewares/ST/STM32_USB_Device_Library/Core/Src/usbd_ctlreq.c ****   static uint8_t cfgidx;
 568:Middlewares/ST/STM32_USB_Device_Library/Core/Src/usbd_ctlreq.c **** 
 569:Middlewares/ST/STM32_USB_Device_Library/Core/Src/usbd_ctlreq.c ****   cfgidx = (uint8_t)(req->wValue);
 570:Middlewares/ST/STM32_USB_Device_Library/Core/Src/usbd_ctlreq.c **** 
 571:Middlewares/ST/STM32_USB_Device_Library/Core/Src/usbd_ctlreq.c ****   if (cfgidx > USBD_MAX_NUM_CONFIGURATION)
 572:Middlewares/ST/STM32_USB_Device_Library/Core/Src/usbd_ctlreq.c ****   {
 573:Middlewares/ST/STM32_USB_Device_Library/Core/Src/usbd_ctlreq.c ****     USBD_CtlError(pdev, req);
 574:Middlewares/ST/STM32_USB_Device_Library/Core/Src/usbd_ctlreq.c ****   }
 575:Middlewares/ST/STM32_USB_Device_Library/Core/Src/usbd_ctlreq.c ****   else
 576:Middlewares/ST/STM32_USB_Device_Library/Core/Src/usbd_ctlreq.c ****   {
 577:Middlewares/ST/STM32_USB_Device_Library/Core/Src/usbd_ctlreq.c ****     switch (pdev->dev_state)
 578:Middlewares/ST/STM32_USB_Device_Library/Core/Src/usbd_ctlreq.c ****     {
 579:Middlewares/ST/STM32_USB_Device_Library/Core/Src/usbd_ctlreq.c ****     case USBD_STATE_ADDRESSED:
 580:Middlewares/ST/STM32_USB_Device_Library/Core/Src/usbd_ctlreq.c ****       if (cfgidx)
 581:Middlewares/ST/STM32_USB_Device_Library/Core/Src/usbd_ctlreq.c ****       {
 582:Middlewares/ST/STM32_USB_Device_Library/Core/Src/usbd_ctlreq.c ****         pdev->dev_config = cfgidx;
 583:Middlewares/ST/STM32_USB_Device_Library/Core/Src/usbd_ctlreq.c ****         pdev->dev_state = USBD_STATE_CONFIGURED;
 584:Middlewares/ST/STM32_USB_Device_Library/Core/Src/usbd_ctlreq.c ****         if(USBD_SetClassConfig(pdev, cfgidx) == USBD_FAIL)
 585:Middlewares/ST/STM32_USB_Device_Library/Core/Src/usbd_ctlreq.c ****         {
 586:Middlewares/ST/STM32_USB_Device_Library/Core/Src/usbd_ctlreq.c ****           USBD_CtlError(pdev, req);
 587:Middlewares/ST/STM32_USB_Device_Library/Core/Src/usbd_ctlreq.c ****           return;
 588:Middlewares/ST/STM32_USB_Device_Library/Core/Src/usbd_ctlreq.c ****         }
 589:Middlewares/ST/STM32_USB_Device_Library/Core/Src/usbd_ctlreq.c ****         USBD_CtlSendStatus(pdev);
 590:Middlewares/ST/STM32_USB_Device_Library/Core/Src/usbd_ctlreq.c ****       }
 591:Middlewares/ST/STM32_USB_Device_Library/Core/Src/usbd_ctlreq.c ****       else
 592:Middlewares/ST/STM32_USB_Device_Library/Core/Src/usbd_ctlreq.c ****       {
 593:Middlewares/ST/STM32_USB_Device_Library/Core/Src/usbd_ctlreq.c ****         USBD_CtlSendStatus(pdev);
 594:Middlewares/ST/STM32_USB_Device_Library/Core/Src/usbd_ctlreq.c ****       }
 595:Middlewares/ST/STM32_USB_Device_Library/Core/Src/usbd_ctlreq.c ****       break;
 596:Middlewares/ST/STM32_USB_Device_Library/Core/Src/usbd_ctlreq.c **** 
 597:Middlewares/ST/STM32_USB_Device_Library/Core/Src/usbd_ctlreq.c ****     case USBD_STATE_CONFIGURED:
 598:Middlewares/ST/STM32_USB_Device_Library/Core/Src/usbd_ctlreq.c ****       if (cfgidx == 0U)
 599:Middlewares/ST/STM32_USB_Device_Library/Core/Src/usbd_ctlreq.c ****       {
 600:Middlewares/ST/STM32_USB_Device_Library/Core/Src/usbd_ctlreq.c ****         pdev->dev_state = USBD_STATE_ADDRESSED;
ARM GAS  /tmp/ccT1bBgQ.s 			page 12


 601:Middlewares/ST/STM32_USB_Device_Library/Core/Src/usbd_ctlreq.c ****         pdev->dev_config = cfgidx;
 602:Middlewares/ST/STM32_USB_Device_Library/Core/Src/usbd_ctlreq.c ****         USBD_ClrClassConfig(pdev, cfgidx);
 603:Middlewares/ST/STM32_USB_Device_Library/Core/Src/usbd_ctlreq.c ****         USBD_CtlSendStatus(pdev);
 604:Middlewares/ST/STM32_USB_Device_Library/Core/Src/usbd_ctlreq.c ****       }
 605:Middlewares/ST/STM32_USB_Device_Library/Core/Src/usbd_ctlreq.c ****       else if (cfgidx != pdev->dev_config)
 606:Middlewares/ST/STM32_USB_Device_Library/Core/Src/usbd_ctlreq.c ****       {
 607:Middlewares/ST/STM32_USB_Device_Library/Core/Src/usbd_ctlreq.c ****         /* Clear old configuration */
 608:Middlewares/ST/STM32_USB_Device_Library/Core/Src/usbd_ctlreq.c ****         USBD_ClrClassConfig(pdev, (uint8_t)pdev->dev_config);
 609:Middlewares/ST/STM32_USB_Device_Library/Core/Src/usbd_ctlreq.c **** 
 610:Middlewares/ST/STM32_USB_Device_Library/Core/Src/usbd_ctlreq.c ****         /* set new configuration */
 611:Middlewares/ST/STM32_USB_Device_Library/Core/Src/usbd_ctlreq.c ****         pdev->dev_config = cfgidx;
 612:Middlewares/ST/STM32_USB_Device_Library/Core/Src/usbd_ctlreq.c ****         if(USBD_SetClassConfig(pdev, cfgidx) == USBD_FAIL)
 613:Middlewares/ST/STM32_USB_Device_Library/Core/Src/usbd_ctlreq.c ****         {
 614:Middlewares/ST/STM32_USB_Device_Library/Core/Src/usbd_ctlreq.c ****           USBD_CtlError(pdev, req);
 615:Middlewares/ST/STM32_USB_Device_Library/Core/Src/usbd_ctlreq.c ****           return;
 616:Middlewares/ST/STM32_USB_Device_Library/Core/Src/usbd_ctlreq.c ****         }
 617:Middlewares/ST/STM32_USB_Device_Library/Core/Src/usbd_ctlreq.c ****         USBD_CtlSendStatus(pdev);
 618:Middlewares/ST/STM32_USB_Device_Library/Core/Src/usbd_ctlreq.c ****       }
 619:Middlewares/ST/STM32_USB_Device_Library/Core/Src/usbd_ctlreq.c ****       else
 620:Middlewares/ST/STM32_USB_Device_Library/Core/Src/usbd_ctlreq.c ****       {
 621:Middlewares/ST/STM32_USB_Device_Library/Core/Src/usbd_ctlreq.c ****         USBD_CtlSendStatus(pdev);
 622:Middlewares/ST/STM32_USB_Device_Library/Core/Src/usbd_ctlreq.c ****       }
 623:Middlewares/ST/STM32_USB_Device_Library/Core/Src/usbd_ctlreq.c ****       break;
 624:Middlewares/ST/STM32_USB_Device_Library/Core/Src/usbd_ctlreq.c **** 
 625:Middlewares/ST/STM32_USB_Device_Library/Core/Src/usbd_ctlreq.c ****     default:
 626:Middlewares/ST/STM32_USB_Device_Library/Core/Src/usbd_ctlreq.c ****       USBD_CtlError(pdev, req);
 627:Middlewares/ST/STM32_USB_Device_Library/Core/Src/usbd_ctlreq.c ****       USBD_ClrClassConfig(pdev, cfgidx);
 628:Middlewares/ST/STM32_USB_Device_Library/Core/Src/usbd_ctlreq.c ****       break;
 629:Middlewares/ST/STM32_USB_Device_Library/Core/Src/usbd_ctlreq.c ****     }
 630:Middlewares/ST/STM32_USB_Device_Library/Core/Src/usbd_ctlreq.c ****   }
 631:Middlewares/ST/STM32_USB_Device_Library/Core/Src/usbd_ctlreq.c **** }
 632:Middlewares/ST/STM32_USB_Device_Library/Core/Src/usbd_ctlreq.c **** 
 633:Middlewares/ST/STM32_USB_Device_Library/Core/Src/usbd_ctlreq.c **** /**
 634:Middlewares/ST/STM32_USB_Device_Library/Core/Src/usbd_ctlreq.c **** * @brief  USBD_GetConfig
 635:Middlewares/ST/STM32_USB_Device_Library/Core/Src/usbd_ctlreq.c **** *         Handle Get device configuration request
 636:Middlewares/ST/STM32_USB_Device_Library/Core/Src/usbd_ctlreq.c **** * @param  pdev: device instance
 637:Middlewares/ST/STM32_USB_Device_Library/Core/Src/usbd_ctlreq.c **** * @param  req: usb request
 638:Middlewares/ST/STM32_USB_Device_Library/Core/Src/usbd_ctlreq.c **** * @retval status
 639:Middlewares/ST/STM32_USB_Device_Library/Core/Src/usbd_ctlreq.c **** */
 640:Middlewares/ST/STM32_USB_Device_Library/Core/Src/usbd_ctlreq.c **** static void USBD_GetConfig(USBD_HandleTypeDef *pdev, USBD_SetupReqTypedef *req)
 641:Middlewares/ST/STM32_USB_Device_Library/Core/Src/usbd_ctlreq.c **** {
 642:Middlewares/ST/STM32_USB_Device_Library/Core/Src/usbd_ctlreq.c ****   if (req->wLength != 1U)
 643:Middlewares/ST/STM32_USB_Device_Library/Core/Src/usbd_ctlreq.c ****   {
 644:Middlewares/ST/STM32_USB_Device_Library/Core/Src/usbd_ctlreq.c ****     USBD_CtlError(pdev , req);
 645:Middlewares/ST/STM32_USB_Device_Library/Core/Src/usbd_ctlreq.c ****   }
 646:Middlewares/ST/STM32_USB_Device_Library/Core/Src/usbd_ctlreq.c ****   else
 647:Middlewares/ST/STM32_USB_Device_Library/Core/Src/usbd_ctlreq.c ****   {
 648:Middlewares/ST/STM32_USB_Device_Library/Core/Src/usbd_ctlreq.c ****     switch (pdev->dev_state)
 649:Middlewares/ST/STM32_USB_Device_Library/Core/Src/usbd_ctlreq.c ****     {
 650:Middlewares/ST/STM32_USB_Device_Library/Core/Src/usbd_ctlreq.c ****     case USBD_STATE_DEFAULT:
 651:Middlewares/ST/STM32_USB_Device_Library/Core/Src/usbd_ctlreq.c ****     case USBD_STATE_ADDRESSED:
 652:Middlewares/ST/STM32_USB_Device_Library/Core/Src/usbd_ctlreq.c ****       pdev->dev_default_config = 0U;
 653:Middlewares/ST/STM32_USB_Device_Library/Core/Src/usbd_ctlreq.c ****       USBD_CtlSendData (pdev, (uint8_t *)(void *)&pdev->dev_default_config, 1U);
 654:Middlewares/ST/STM32_USB_Device_Library/Core/Src/usbd_ctlreq.c ****       break;
 655:Middlewares/ST/STM32_USB_Device_Library/Core/Src/usbd_ctlreq.c **** 
 656:Middlewares/ST/STM32_USB_Device_Library/Core/Src/usbd_ctlreq.c ****     case USBD_STATE_CONFIGURED:
 657:Middlewares/ST/STM32_USB_Device_Library/Core/Src/usbd_ctlreq.c ****       USBD_CtlSendData (pdev, (uint8_t *)(void *)&pdev->dev_config, 1U);
ARM GAS  /tmp/ccT1bBgQ.s 			page 13


 658:Middlewares/ST/STM32_USB_Device_Library/Core/Src/usbd_ctlreq.c ****       break;
 659:Middlewares/ST/STM32_USB_Device_Library/Core/Src/usbd_ctlreq.c **** 
 660:Middlewares/ST/STM32_USB_Device_Library/Core/Src/usbd_ctlreq.c ****     default:
 661:Middlewares/ST/STM32_USB_Device_Library/Core/Src/usbd_ctlreq.c ****       USBD_CtlError(pdev , req);
 662:Middlewares/ST/STM32_USB_Device_Library/Core/Src/usbd_ctlreq.c ****       break;
 663:Middlewares/ST/STM32_USB_Device_Library/Core/Src/usbd_ctlreq.c ****     }
 664:Middlewares/ST/STM32_USB_Device_Library/Core/Src/usbd_ctlreq.c ****   }
 665:Middlewares/ST/STM32_USB_Device_Library/Core/Src/usbd_ctlreq.c **** }
 666:Middlewares/ST/STM32_USB_Device_Library/Core/Src/usbd_ctlreq.c **** 
 667:Middlewares/ST/STM32_USB_Device_Library/Core/Src/usbd_ctlreq.c **** /**
 668:Middlewares/ST/STM32_USB_Device_Library/Core/Src/usbd_ctlreq.c **** * @brief  USBD_GetStatus
 669:Middlewares/ST/STM32_USB_Device_Library/Core/Src/usbd_ctlreq.c **** *         Handle Get Status request
 670:Middlewares/ST/STM32_USB_Device_Library/Core/Src/usbd_ctlreq.c **** * @param  pdev: device instance
 671:Middlewares/ST/STM32_USB_Device_Library/Core/Src/usbd_ctlreq.c **** * @param  req: usb request
 672:Middlewares/ST/STM32_USB_Device_Library/Core/Src/usbd_ctlreq.c **** * @retval status
 673:Middlewares/ST/STM32_USB_Device_Library/Core/Src/usbd_ctlreq.c **** */
 674:Middlewares/ST/STM32_USB_Device_Library/Core/Src/usbd_ctlreq.c **** static void USBD_GetStatus(USBD_HandleTypeDef *pdev, USBD_SetupReqTypedef *req)
 675:Middlewares/ST/STM32_USB_Device_Library/Core/Src/usbd_ctlreq.c **** {
 676:Middlewares/ST/STM32_USB_Device_Library/Core/Src/usbd_ctlreq.c ****   switch (pdev->dev_state)
 677:Middlewares/ST/STM32_USB_Device_Library/Core/Src/usbd_ctlreq.c ****   {
 678:Middlewares/ST/STM32_USB_Device_Library/Core/Src/usbd_ctlreq.c ****   case USBD_STATE_DEFAULT:
 679:Middlewares/ST/STM32_USB_Device_Library/Core/Src/usbd_ctlreq.c ****   case USBD_STATE_ADDRESSED:
 680:Middlewares/ST/STM32_USB_Device_Library/Core/Src/usbd_ctlreq.c ****   case USBD_STATE_CONFIGURED:
 681:Middlewares/ST/STM32_USB_Device_Library/Core/Src/usbd_ctlreq.c ****     if(req->wLength != 0x2U)
 682:Middlewares/ST/STM32_USB_Device_Library/Core/Src/usbd_ctlreq.c ****     {
 683:Middlewares/ST/STM32_USB_Device_Library/Core/Src/usbd_ctlreq.c ****       USBD_CtlError(pdev, req);
 684:Middlewares/ST/STM32_USB_Device_Library/Core/Src/usbd_ctlreq.c ****       break;
 685:Middlewares/ST/STM32_USB_Device_Library/Core/Src/usbd_ctlreq.c ****     }
 686:Middlewares/ST/STM32_USB_Device_Library/Core/Src/usbd_ctlreq.c **** 
 687:Middlewares/ST/STM32_USB_Device_Library/Core/Src/usbd_ctlreq.c **** #if ( USBD_SELF_POWERED == 1U)
 688:Middlewares/ST/STM32_USB_Device_Library/Core/Src/usbd_ctlreq.c ****     pdev->dev_config_status = USB_CONFIG_SELF_POWERED;
 689:Middlewares/ST/STM32_USB_Device_Library/Core/Src/usbd_ctlreq.c **** #else
 690:Middlewares/ST/STM32_USB_Device_Library/Core/Src/usbd_ctlreq.c ****     pdev->dev_config_status = 0U;
 691:Middlewares/ST/STM32_USB_Device_Library/Core/Src/usbd_ctlreq.c **** #endif
 692:Middlewares/ST/STM32_USB_Device_Library/Core/Src/usbd_ctlreq.c **** 
 693:Middlewares/ST/STM32_USB_Device_Library/Core/Src/usbd_ctlreq.c ****     if (pdev->dev_remote_wakeup)
 694:Middlewares/ST/STM32_USB_Device_Library/Core/Src/usbd_ctlreq.c ****     {
 695:Middlewares/ST/STM32_USB_Device_Library/Core/Src/usbd_ctlreq.c ****       pdev->dev_config_status |= USB_CONFIG_REMOTE_WAKEUP;
 696:Middlewares/ST/STM32_USB_Device_Library/Core/Src/usbd_ctlreq.c ****     }
 697:Middlewares/ST/STM32_USB_Device_Library/Core/Src/usbd_ctlreq.c **** 
 698:Middlewares/ST/STM32_USB_Device_Library/Core/Src/usbd_ctlreq.c ****     USBD_CtlSendData (pdev, (uint8_t *)(void *)&pdev->dev_config_status, 2U);
 699:Middlewares/ST/STM32_USB_Device_Library/Core/Src/usbd_ctlreq.c ****     break;
 700:Middlewares/ST/STM32_USB_Device_Library/Core/Src/usbd_ctlreq.c **** 
 701:Middlewares/ST/STM32_USB_Device_Library/Core/Src/usbd_ctlreq.c ****   default :
 702:Middlewares/ST/STM32_USB_Device_Library/Core/Src/usbd_ctlreq.c ****     USBD_CtlError(pdev , req);
 703:Middlewares/ST/STM32_USB_Device_Library/Core/Src/usbd_ctlreq.c ****     break;
 704:Middlewares/ST/STM32_USB_Device_Library/Core/Src/usbd_ctlreq.c ****   }
 705:Middlewares/ST/STM32_USB_Device_Library/Core/Src/usbd_ctlreq.c **** }
 706:Middlewares/ST/STM32_USB_Device_Library/Core/Src/usbd_ctlreq.c **** 
 707:Middlewares/ST/STM32_USB_Device_Library/Core/Src/usbd_ctlreq.c **** 
 708:Middlewares/ST/STM32_USB_Device_Library/Core/Src/usbd_ctlreq.c **** /**
 709:Middlewares/ST/STM32_USB_Device_Library/Core/Src/usbd_ctlreq.c **** * @brief  USBD_SetFeature
 710:Middlewares/ST/STM32_USB_Device_Library/Core/Src/usbd_ctlreq.c **** *         Handle Set device feature request
 711:Middlewares/ST/STM32_USB_Device_Library/Core/Src/usbd_ctlreq.c **** * @param  pdev: device instance
 712:Middlewares/ST/STM32_USB_Device_Library/Core/Src/usbd_ctlreq.c **** * @param  req: usb request
 713:Middlewares/ST/STM32_USB_Device_Library/Core/Src/usbd_ctlreq.c **** * @retval status
 714:Middlewares/ST/STM32_USB_Device_Library/Core/Src/usbd_ctlreq.c **** */
ARM GAS  /tmp/ccT1bBgQ.s 			page 14


 715:Middlewares/ST/STM32_USB_Device_Library/Core/Src/usbd_ctlreq.c **** static void USBD_SetFeature(USBD_HandleTypeDef *pdev ,
 716:Middlewares/ST/STM32_USB_Device_Library/Core/Src/usbd_ctlreq.c ****                             USBD_SetupReqTypedef *req)
 717:Middlewares/ST/STM32_USB_Device_Library/Core/Src/usbd_ctlreq.c **** {
 718:Middlewares/ST/STM32_USB_Device_Library/Core/Src/usbd_ctlreq.c **** 
 719:Middlewares/ST/STM32_USB_Device_Library/Core/Src/usbd_ctlreq.c ****   if (req->wValue == USB_FEATURE_REMOTE_WAKEUP)
 720:Middlewares/ST/STM32_USB_Device_Library/Core/Src/usbd_ctlreq.c ****   {
 721:Middlewares/ST/STM32_USB_Device_Library/Core/Src/usbd_ctlreq.c ****     pdev->dev_remote_wakeup = 1U;
 722:Middlewares/ST/STM32_USB_Device_Library/Core/Src/usbd_ctlreq.c ****     USBD_CtlSendStatus(pdev);
 723:Middlewares/ST/STM32_USB_Device_Library/Core/Src/usbd_ctlreq.c ****   }
 724:Middlewares/ST/STM32_USB_Device_Library/Core/Src/usbd_ctlreq.c **** 
 725:Middlewares/ST/STM32_USB_Device_Library/Core/Src/usbd_ctlreq.c **** }
 726:Middlewares/ST/STM32_USB_Device_Library/Core/Src/usbd_ctlreq.c **** 
 727:Middlewares/ST/STM32_USB_Device_Library/Core/Src/usbd_ctlreq.c **** 
 728:Middlewares/ST/STM32_USB_Device_Library/Core/Src/usbd_ctlreq.c **** /**
 729:Middlewares/ST/STM32_USB_Device_Library/Core/Src/usbd_ctlreq.c **** * @brief  USBD_ClrFeature
 730:Middlewares/ST/STM32_USB_Device_Library/Core/Src/usbd_ctlreq.c **** *         Handle clear device feature request
 731:Middlewares/ST/STM32_USB_Device_Library/Core/Src/usbd_ctlreq.c **** * @param  pdev: device instance
 732:Middlewares/ST/STM32_USB_Device_Library/Core/Src/usbd_ctlreq.c **** * @param  req: usb request
 733:Middlewares/ST/STM32_USB_Device_Library/Core/Src/usbd_ctlreq.c **** * @retval status
 734:Middlewares/ST/STM32_USB_Device_Library/Core/Src/usbd_ctlreq.c **** */
 735:Middlewares/ST/STM32_USB_Device_Library/Core/Src/usbd_ctlreq.c **** static void USBD_ClrFeature(USBD_HandleTypeDef *pdev ,
 736:Middlewares/ST/STM32_USB_Device_Library/Core/Src/usbd_ctlreq.c ****                             USBD_SetupReqTypedef *req)
 737:Middlewares/ST/STM32_USB_Device_Library/Core/Src/usbd_ctlreq.c **** {
 738:Middlewares/ST/STM32_USB_Device_Library/Core/Src/usbd_ctlreq.c ****   switch (pdev->dev_state)
 739:Middlewares/ST/STM32_USB_Device_Library/Core/Src/usbd_ctlreq.c ****   {
 740:Middlewares/ST/STM32_USB_Device_Library/Core/Src/usbd_ctlreq.c ****   case USBD_STATE_DEFAULT:
 741:Middlewares/ST/STM32_USB_Device_Library/Core/Src/usbd_ctlreq.c ****   case USBD_STATE_ADDRESSED:
 742:Middlewares/ST/STM32_USB_Device_Library/Core/Src/usbd_ctlreq.c ****   case USBD_STATE_CONFIGURED:
 743:Middlewares/ST/STM32_USB_Device_Library/Core/Src/usbd_ctlreq.c ****     if (req->wValue == USB_FEATURE_REMOTE_WAKEUP)
 744:Middlewares/ST/STM32_USB_Device_Library/Core/Src/usbd_ctlreq.c ****     {
 745:Middlewares/ST/STM32_USB_Device_Library/Core/Src/usbd_ctlreq.c ****       pdev->dev_remote_wakeup = 0U;
 746:Middlewares/ST/STM32_USB_Device_Library/Core/Src/usbd_ctlreq.c ****       USBD_CtlSendStatus(pdev);
 747:Middlewares/ST/STM32_USB_Device_Library/Core/Src/usbd_ctlreq.c ****     }
 748:Middlewares/ST/STM32_USB_Device_Library/Core/Src/usbd_ctlreq.c ****     break;
 749:Middlewares/ST/STM32_USB_Device_Library/Core/Src/usbd_ctlreq.c **** 
 750:Middlewares/ST/STM32_USB_Device_Library/Core/Src/usbd_ctlreq.c ****   default :
 751:Middlewares/ST/STM32_USB_Device_Library/Core/Src/usbd_ctlreq.c ****      USBD_CtlError(pdev , req);
 752:Middlewares/ST/STM32_USB_Device_Library/Core/Src/usbd_ctlreq.c ****     break;
 753:Middlewares/ST/STM32_USB_Device_Library/Core/Src/usbd_ctlreq.c ****   }
 754:Middlewares/ST/STM32_USB_Device_Library/Core/Src/usbd_ctlreq.c **** }
 755:Middlewares/ST/STM32_USB_Device_Library/Core/Src/usbd_ctlreq.c **** 
 756:Middlewares/ST/STM32_USB_Device_Library/Core/Src/usbd_ctlreq.c **** /**
 757:Middlewares/ST/STM32_USB_Device_Library/Core/Src/usbd_ctlreq.c **** * @brief  USBD_ParseSetupRequest
 758:Middlewares/ST/STM32_USB_Device_Library/Core/Src/usbd_ctlreq.c **** *         Copy buffer into setup structure
 759:Middlewares/ST/STM32_USB_Device_Library/Core/Src/usbd_ctlreq.c **** * @param  pdev: device instance
 760:Middlewares/ST/STM32_USB_Device_Library/Core/Src/usbd_ctlreq.c **** * @param  req: usb request
 761:Middlewares/ST/STM32_USB_Device_Library/Core/Src/usbd_ctlreq.c **** * @retval None
 762:Middlewares/ST/STM32_USB_Device_Library/Core/Src/usbd_ctlreq.c **** */
 763:Middlewares/ST/STM32_USB_Device_Library/Core/Src/usbd_ctlreq.c **** 
 764:Middlewares/ST/STM32_USB_Device_Library/Core/Src/usbd_ctlreq.c **** void USBD_ParseSetupRequest(USBD_SetupReqTypedef *req, uint8_t *pdata)
 765:Middlewares/ST/STM32_USB_Device_Library/Core/Src/usbd_ctlreq.c **** {
 766:Middlewares/ST/STM32_USB_Device_Library/Core/Src/usbd_ctlreq.c ****   req->bmRequest     = *(uint8_t *)  (pdata);
 767:Middlewares/ST/STM32_USB_Device_Library/Core/Src/usbd_ctlreq.c ****   req->bRequest      = *(uint8_t *)  (pdata +  1);
 768:Middlewares/ST/STM32_USB_Device_Library/Core/Src/usbd_ctlreq.c ****   req->wValue        = SWAPBYTE      (pdata +  2);
 769:Middlewares/ST/STM32_USB_Device_Library/Core/Src/usbd_ctlreq.c ****   req->wIndex        = SWAPBYTE      (pdata +  4);
 770:Middlewares/ST/STM32_USB_Device_Library/Core/Src/usbd_ctlreq.c ****   req->wLength       = SWAPBYTE      (pdata +  6);
 771:Middlewares/ST/STM32_USB_Device_Library/Core/Src/usbd_ctlreq.c **** 
ARM GAS  /tmp/ccT1bBgQ.s 			page 15


 772:Middlewares/ST/STM32_USB_Device_Library/Core/Src/usbd_ctlreq.c **** }
 773:Middlewares/ST/STM32_USB_Device_Library/Core/Src/usbd_ctlreq.c **** 
 774:Middlewares/ST/STM32_USB_Device_Library/Core/Src/usbd_ctlreq.c **** /**
 775:Middlewares/ST/STM32_USB_Device_Library/Core/Src/usbd_ctlreq.c **** * @brief  USBD_CtlError
 776:Middlewares/ST/STM32_USB_Device_Library/Core/Src/usbd_ctlreq.c **** *         Handle USB low level Error
 777:Middlewares/ST/STM32_USB_Device_Library/Core/Src/usbd_ctlreq.c **** * @param  pdev: device instance
 778:Middlewares/ST/STM32_USB_Device_Library/Core/Src/usbd_ctlreq.c **** * @param  req: usb request
 779:Middlewares/ST/STM32_USB_Device_Library/Core/Src/usbd_ctlreq.c **** * @retval None
 780:Middlewares/ST/STM32_USB_Device_Library/Core/Src/usbd_ctlreq.c **** */
 781:Middlewares/ST/STM32_USB_Device_Library/Core/Src/usbd_ctlreq.c **** 
 782:Middlewares/ST/STM32_USB_Device_Library/Core/Src/usbd_ctlreq.c **** void USBD_CtlError( USBD_HandleTypeDef *pdev ,
 783:Middlewares/ST/STM32_USB_Device_Library/Core/Src/usbd_ctlreq.c ****                             USBD_SetupReqTypedef *req)
 784:Middlewares/ST/STM32_USB_Device_Library/Core/Src/usbd_ctlreq.c **** {
 785:Middlewares/ST/STM32_USB_Device_Library/Core/Src/usbd_ctlreq.c ****   USBD_LL_StallEP(pdev , 0x80U);
 786:Middlewares/ST/STM32_USB_Device_Library/Core/Src/usbd_ctlreq.c ****   USBD_LL_StallEP(pdev , 0U);
 787:Middlewares/ST/STM32_USB_Device_Library/Core/Src/usbd_ctlreq.c **** }
 788:Middlewares/ST/STM32_USB_Device_Library/Core/Src/usbd_ctlreq.c **** 
 789:Middlewares/ST/STM32_USB_Device_Library/Core/Src/usbd_ctlreq.c **** 
 790:Middlewares/ST/STM32_USB_Device_Library/Core/Src/usbd_ctlreq.c **** /**
 791:Middlewares/ST/STM32_USB_Device_Library/Core/Src/usbd_ctlreq.c ****   * @brief  USBD_GetString
 792:Middlewares/ST/STM32_USB_Device_Library/Core/Src/usbd_ctlreq.c ****   *         Convert Ascii string into unicode one
 793:Middlewares/ST/STM32_USB_Device_Library/Core/Src/usbd_ctlreq.c ****   * @param  desc : descriptor buffer
 794:Middlewares/ST/STM32_USB_Device_Library/Core/Src/usbd_ctlreq.c ****   * @param  unicode : Formatted string buffer (unicode)
 795:Middlewares/ST/STM32_USB_Device_Library/Core/Src/usbd_ctlreq.c ****   * @param  len : descriptor length
 796:Middlewares/ST/STM32_USB_Device_Library/Core/Src/usbd_ctlreq.c ****   * @retval None
 797:Middlewares/ST/STM32_USB_Device_Library/Core/Src/usbd_ctlreq.c ****   */
 798:Middlewares/ST/STM32_USB_Device_Library/Core/Src/usbd_ctlreq.c **** void USBD_GetString(uint8_t *desc, uint8_t *unicode, uint16_t *len)
 799:Middlewares/ST/STM32_USB_Device_Library/Core/Src/usbd_ctlreq.c **** {
 800:Middlewares/ST/STM32_USB_Device_Library/Core/Src/usbd_ctlreq.c ****   uint8_t idx = 0U;
 801:Middlewares/ST/STM32_USB_Device_Library/Core/Src/usbd_ctlreq.c **** 
 802:Middlewares/ST/STM32_USB_Device_Library/Core/Src/usbd_ctlreq.c ****   if (desc != NULL)
 803:Middlewares/ST/STM32_USB_Device_Library/Core/Src/usbd_ctlreq.c ****   {
 804:Middlewares/ST/STM32_USB_Device_Library/Core/Src/usbd_ctlreq.c ****     *len = (uint16_t)USBD_GetLen(desc) * 2U + 2U;
 805:Middlewares/ST/STM32_USB_Device_Library/Core/Src/usbd_ctlreq.c ****     unicode[idx++] = *(uint8_t *)(void *)len;
 806:Middlewares/ST/STM32_USB_Device_Library/Core/Src/usbd_ctlreq.c ****     unicode[idx++] = USB_DESC_TYPE_STRING;
 807:Middlewares/ST/STM32_USB_Device_Library/Core/Src/usbd_ctlreq.c **** 
 808:Middlewares/ST/STM32_USB_Device_Library/Core/Src/usbd_ctlreq.c ****     while (*desc != '\0')
 809:Middlewares/ST/STM32_USB_Device_Library/Core/Src/usbd_ctlreq.c ****     {
 810:Middlewares/ST/STM32_USB_Device_Library/Core/Src/usbd_ctlreq.c ****       unicode[idx++] = *desc++;
 811:Middlewares/ST/STM32_USB_Device_Library/Core/Src/usbd_ctlreq.c ****       unicode[idx++] =  0U;
 812:Middlewares/ST/STM32_USB_Device_Library/Core/Src/usbd_ctlreq.c ****     }
 813:Middlewares/ST/STM32_USB_Device_Library/Core/Src/usbd_ctlreq.c ****   }
 814:Middlewares/ST/STM32_USB_Device_Library/Core/Src/usbd_ctlreq.c **** }
 815:Middlewares/ST/STM32_USB_Device_Library/Core/Src/usbd_ctlreq.c **** 
 816:Middlewares/ST/STM32_USB_Device_Library/Core/Src/usbd_ctlreq.c **** /**
 817:Middlewares/ST/STM32_USB_Device_Library/Core/Src/usbd_ctlreq.c ****   * @brief  USBD_GetLen
 818:Middlewares/ST/STM32_USB_Device_Library/Core/Src/usbd_ctlreq.c ****   *         return the string length
 819:Middlewares/ST/STM32_USB_Device_Library/Core/Src/usbd_ctlreq.c ****    * @param  buf : pointer to the ascii string buffer
 820:Middlewares/ST/STM32_USB_Device_Library/Core/Src/usbd_ctlreq.c ****   * @retval string length
 821:Middlewares/ST/STM32_USB_Device_Library/Core/Src/usbd_ctlreq.c ****   */
 822:Middlewares/ST/STM32_USB_Device_Library/Core/Src/usbd_ctlreq.c **** static uint8_t USBD_GetLen(uint8_t *buf)
 823:Middlewares/ST/STM32_USB_Device_Library/Core/Src/usbd_ctlreq.c **** {
  29              		.loc 1 823 1 view -0
  30              		.cfi_startproc
  31              		@ args = 0, pretend = 0, frame = 0
  32              		@ frame_needed = 0, uses_anonymous_args = 0
  33              		@ link register save eliminated.
ARM GAS  /tmp/ccT1bBgQ.s 			page 16


 824:Middlewares/ST/STM32_USB_Device_Library/Core/Src/usbd_ctlreq.c ****     uint8_t  len = 0U;
  34              		.loc 1 824 5 view .LVU1
 825:Middlewares/ST/STM32_USB_Device_Library/Core/Src/usbd_ctlreq.c **** 
 826:Middlewares/ST/STM32_USB_Device_Library/Core/Src/usbd_ctlreq.c ****     while (*buf != '\0')
  35              		.loc 1 826 5 view .LVU2
 824:Middlewares/ST/STM32_USB_Device_Library/Core/Src/usbd_ctlreq.c ****     uint8_t  len = 0U;
  36              		.loc 1 824 14 is_stmt 0 view .LVU3
  37 0000 0023     		movs	r3, #0
  38              	.LVL1:
  39              	.L2:
  40              		.loc 1 826 12 view .LVU4
  41 0002 0278     		ldrb	r2, [r0]	@ zero_extendqisi2
  42              		.loc 1 826 11 view .LVU5
  43 0004 1AB1     		cbz	r2, .L4
 827:Middlewares/ST/STM32_USB_Device_Library/Core/Src/usbd_ctlreq.c ****     {
 828:Middlewares/ST/STM32_USB_Device_Library/Core/Src/usbd_ctlreq.c ****         len++;
  44              		.loc 1 828 9 is_stmt 1 view .LVU6
  45              		.loc 1 828 12 is_stmt 0 view .LVU7
  46 0006 0133     		adds	r3, r3, #1
  47              	.LVL2:
  48              		.loc 1 828 12 view .LVU8
  49 0008 DBB2     		uxtb	r3, r3
  50              	.LVL3:
 829:Middlewares/ST/STM32_USB_Device_Library/Core/Src/usbd_ctlreq.c ****         buf++;
  51              		.loc 1 829 9 is_stmt 1 view .LVU9
  52              		.loc 1 829 12 is_stmt 0 view .LVU10
  53 000a 0130     		adds	r0, r0, #1
  54              	.LVL4:
  55              		.loc 1 829 12 view .LVU11
  56 000c F9E7     		b	.L2
  57              	.L4:
 830:Middlewares/ST/STM32_USB_Device_Library/Core/Src/usbd_ctlreq.c ****     }
 831:Middlewares/ST/STM32_USB_Device_Library/Core/Src/usbd_ctlreq.c **** 
 832:Middlewares/ST/STM32_USB_Device_Library/Core/Src/usbd_ctlreq.c ****     return len;
  58              		.loc 1 832 5 is_stmt 1 view .LVU12
 833:Middlewares/ST/STM32_USB_Device_Library/Core/Src/usbd_ctlreq.c **** }
  59              		.loc 1 833 1 is_stmt 0 view .LVU13
  60 000e 1846     		mov	r0, r3
  61              	.LVL5:
  62              		.loc 1 833 1 view .LVU14
  63 0010 7047     		bx	lr
  64              		.cfi_endproc
  65              	.LFE146:
  67              		.section	.text.USBD_SetFeature,"ax",%progbits
  68              		.align	1
  69              		.syntax unified
  70              		.thumb
  71              		.thumb_func
  72              		.fpu fpv4-sp-d16
  74              	USBD_SetFeature:
  75              	.LVL6:
  76              	.LFB141:
 717:Middlewares/ST/STM32_USB_Device_Library/Core/Src/usbd_ctlreq.c **** 
  77              		.loc 1 717 1 is_stmt 1 view -0
  78              		.cfi_startproc
  79              		@ args = 0, pretend = 0, frame = 0
  80              		@ frame_needed = 0, uses_anonymous_args = 0
ARM GAS  /tmp/ccT1bBgQ.s 			page 17


 717:Middlewares/ST/STM32_USB_Device_Library/Core/Src/usbd_ctlreq.c **** 
  81              		.loc 1 717 1 is_stmt 0 view .LVU16
  82 0000 08B5     		push	{r3, lr}
  83              	.LCFI0:
  84              		.cfi_def_cfa_offset 8
  85              		.cfi_offset 3, -8
  86              		.cfi_offset 14, -4
 719:Middlewares/ST/STM32_USB_Device_Library/Core/Src/usbd_ctlreq.c ****   {
  87              		.loc 1 719 3 is_stmt 1 view .LVU17
 719:Middlewares/ST/STM32_USB_Device_Library/Core/Src/usbd_ctlreq.c ****   {
  88              		.loc 1 719 10 is_stmt 0 view .LVU18
  89 0002 4B88     		ldrh	r3, [r1, #2]
 719:Middlewares/ST/STM32_USB_Device_Library/Core/Src/usbd_ctlreq.c ****   {
  90              		.loc 1 719 6 view .LVU19
  91 0004 012B     		cmp	r3, #1
  92 0006 00D0     		beq	.L8
  93              	.LVL7:
  94              	.L5:
 725:Middlewares/ST/STM32_USB_Device_Library/Core/Src/usbd_ctlreq.c **** 
  95              		.loc 1 725 1 view .LVU20
  96 0008 08BD     		pop	{r3, pc}
  97              	.LVL8:
  98              	.L8:
 721:Middlewares/ST/STM32_USB_Device_Library/Core/Src/usbd_ctlreq.c ****     USBD_CtlSendStatus(pdev);
  99              		.loc 1 721 5 is_stmt 1 view .LVU21
 721:Middlewares/ST/STM32_USB_Device_Library/Core/Src/usbd_ctlreq.c ****     USBD_CtlSendStatus(pdev);
 100              		.loc 1 721 29 is_stmt 0 view .LVU22
 101 000a C0F87C32 		str	r3, [r0, #636]
 722:Middlewares/ST/STM32_USB_Device_Library/Core/Src/usbd_ctlreq.c ****   }
 102              		.loc 1 722 5 is_stmt 1 view .LVU23
 103 000e FFF7FEFF 		bl	USBD_CtlSendStatus
 104              	.LVL9:
 725:Middlewares/ST/STM32_USB_Device_Library/Core/Src/usbd_ctlreq.c **** 
 105              		.loc 1 725 1 is_stmt 0 view .LVU24
 106 0012 F9E7     		b	.L5
 107              		.cfi_endproc
 108              	.LFE141:
 110              		.section	.text.USBD_ParseSetupRequest,"ax",%progbits
 111              		.align	1
 112              		.global	USBD_ParseSetupRequest
 113              		.syntax unified
 114              		.thumb
 115              		.thumb_func
 116              		.fpu fpv4-sp-d16
 118              	USBD_ParseSetupRequest:
 119              	.LVL10:
 120              	.LFB143:
 765:Middlewares/ST/STM32_USB_Device_Library/Core/Src/usbd_ctlreq.c ****   req->bmRequest     = *(uint8_t *)  (pdata);
 121              		.loc 1 765 1 is_stmt 1 view -0
 122              		.cfi_startproc
 123              		@ args = 0, pretend = 0, frame = 0
 124              		@ frame_needed = 0, uses_anonymous_args = 0
 125              		@ link register save eliminated.
 766:Middlewares/ST/STM32_USB_Device_Library/Core/Src/usbd_ctlreq.c ****   req->bRequest      = *(uint8_t *)  (pdata +  1);
 126              		.loc 1 766 3 view .LVU26
 766:Middlewares/ST/STM32_USB_Device_Library/Core/Src/usbd_ctlreq.c ****   req->bRequest      = *(uint8_t *)  (pdata +  1);
 127              		.loc 1 766 24 is_stmt 0 view .LVU27
ARM GAS  /tmp/ccT1bBgQ.s 			page 18


 128 0000 0B78     		ldrb	r3, [r1]	@ zero_extendqisi2
 766:Middlewares/ST/STM32_USB_Device_Library/Core/Src/usbd_ctlreq.c ****   req->bRequest      = *(uint8_t *)  (pdata +  1);
 129              		.loc 1 766 22 view .LVU28
 130 0002 0370     		strb	r3, [r0]
 767:Middlewares/ST/STM32_USB_Device_Library/Core/Src/usbd_ctlreq.c ****   req->wValue        = SWAPBYTE      (pdata +  2);
 131              		.loc 1 767 3 is_stmt 1 view .LVU29
 767:Middlewares/ST/STM32_USB_Device_Library/Core/Src/usbd_ctlreq.c ****   req->wValue        = SWAPBYTE      (pdata +  2);
 132              		.loc 1 767 22 is_stmt 0 view .LVU30
 133 0004 4B78     		ldrb	r3, [r1, #1]	@ zero_extendqisi2
 134 0006 4370     		strb	r3, [r0, #1]
 768:Middlewares/ST/STM32_USB_Device_Library/Core/Src/usbd_ctlreq.c ****   req->wIndex        = SWAPBYTE      (pdata +  4);
 135              		.loc 1 768 3 is_stmt 1 view .LVU31
 768:Middlewares/ST/STM32_USB_Device_Library/Core/Src/usbd_ctlreq.c ****   req->wIndex        = SWAPBYTE      (pdata +  4);
 136              		.loc 1 768 24 is_stmt 0 view .LVU32
 137 0008 8B78     		ldrb	r3, [r1, #2]	@ zero_extendqisi2
 138 000a CA78     		ldrb	r2, [r1, #3]	@ zero_extendqisi2
 139 000c 03EB0223 		add	r3, r3, r2, lsl #8
 768:Middlewares/ST/STM32_USB_Device_Library/Core/Src/usbd_ctlreq.c ****   req->wIndex        = SWAPBYTE      (pdata +  4);
 140              		.loc 1 768 22 view .LVU33
 141 0010 4380     		strh	r3, [r0, #2]	@ movhi
 769:Middlewares/ST/STM32_USB_Device_Library/Core/Src/usbd_ctlreq.c ****   req->wLength       = SWAPBYTE      (pdata +  6);
 142              		.loc 1 769 3 is_stmt 1 view .LVU34
 769:Middlewares/ST/STM32_USB_Device_Library/Core/Src/usbd_ctlreq.c ****   req->wLength       = SWAPBYTE      (pdata +  6);
 143              		.loc 1 769 24 is_stmt 0 view .LVU35
 144 0012 0B79     		ldrb	r3, [r1, #4]	@ zero_extendqisi2
 145 0014 4A79     		ldrb	r2, [r1, #5]	@ zero_extendqisi2
 146 0016 03EB0223 		add	r3, r3, r2, lsl #8
 769:Middlewares/ST/STM32_USB_Device_Library/Core/Src/usbd_ctlreq.c ****   req->wLength       = SWAPBYTE      (pdata +  6);
 147              		.loc 1 769 22 view .LVU36
 148 001a 8380     		strh	r3, [r0, #4]	@ movhi
 770:Middlewares/ST/STM32_USB_Device_Library/Core/Src/usbd_ctlreq.c **** 
 149              		.loc 1 770 3 is_stmt 1 view .LVU37
 770:Middlewares/ST/STM32_USB_Device_Library/Core/Src/usbd_ctlreq.c **** 
 150              		.loc 1 770 24 is_stmt 0 view .LVU38
 151 001c 8B79     		ldrb	r3, [r1, #6]	@ zero_extendqisi2
 152 001e CA79     		ldrb	r2, [r1, #7]	@ zero_extendqisi2
 153 0020 03EB0223 		add	r3, r3, r2, lsl #8
 770:Middlewares/ST/STM32_USB_Device_Library/Core/Src/usbd_ctlreq.c **** 
 154              		.loc 1 770 22 view .LVU39
 155 0024 C380     		strh	r3, [r0, #6]	@ movhi
 772:Middlewares/ST/STM32_USB_Device_Library/Core/Src/usbd_ctlreq.c **** 
 156              		.loc 1 772 1 view .LVU40
 157 0026 7047     		bx	lr
 158              		.cfi_endproc
 159              	.LFE143:
 161              		.section	.text.USBD_CtlError,"ax",%progbits
 162              		.align	1
 163              		.global	USBD_CtlError
 164              		.syntax unified
 165              		.thumb
 166              		.thumb_func
 167              		.fpu fpv4-sp-d16
 169              	USBD_CtlError:
 170              	.LVL11:
 171              	.LFB144:
 784:Middlewares/ST/STM32_USB_Device_Library/Core/Src/usbd_ctlreq.c ****   USBD_LL_StallEP(pdev , 0x80U);
 172              		.loc 1 784 1 is_stmt 1 view -0
ARM GAS  /tmp/ccT1bBgQ.s 			page 19


 173              		.cfi_startproc
 174              		@ args = 0, pretend = 0, frame = 0
 175              		@ frame_needed = 0, uses_anonymous_args = 0
 784:Middlewares/ST/STM32_USB_Device_Library/Core/Src/usbd_ctlreq.c ****   USBD_LL_StallEP(pdev , 0x80U);
 176              		.loc 1 784 1 is_stmt 0 view .LVU42
 177 0000 10B5     		push	{r4, lr}
 178              	.LCFI1:
 179              		.cfi_def_cfa_offset 8
 180              		.cfi_offset 4, -8
 181              		.cfi_offset 14, -4
 182 0002 0446     		mov	r4, r0
 785:Middlewares/ST/STM32_USB_Device_Library/Core/Src/usbd_ctlreq.c ****   USBD_LL_StallEP(pdev , 0U);
 183              		.loc 1 785 3 is_stmt 1 view .LVU43
 184 0004 8021     		movs	r1, #128
 185              	.LVL12:
 785:Middlewares/ST/STM32_USB_Device_Library/Core/Src/usbd_ctlreq.c ****   USBD_LL_StallEP(pdev , 0U);
 186              		.loc 1 785 3 is_stmt 0 view .LVU44
 187 0006 FFF7FEFF 		bl	USBD_LL_StallEP
 188              	.LVL13:
 786:Middlewares/ST/STM32_USB_Device_Library/Core/Src/usbd_ctlreq.c **** }
 189              		.loc 1 786 3 is_stmt 1 view .LVU45
 190 000a 0021     		movs	r1, #0
 191 000c 2046     		mov	r0, r4
 192 000e FFF7FEFF 		bl	USBD_LL_StallEP
 193              	.LVL14:
 787:Middlewares/ST/STM32_USB_Device_Library/Core/Src/usbd_ctlreq.c **** 
 194              		.loc 1 787 1 is_stmt 0 view .LVU46
 195 0012 10BD     		pop	{r4, pc}
 787:Middlewares/ST/STM32_USB_Device_Library/Core/Src/usbd_ctlreq.c **** 
 196              		.loc 1 787 1 view .LVU47
 197              		.cfi_endproc
 198              	.LFE144:
 200              		.section	.text.USBD_GetDescriptor,"ax",%progbits
 201              		.align	1
 202              		.syntax unified
 203              		.thumb
 204              		.thumb_func
 205              		.fpu fpv4-sp-d16
 207              	USBD_GetDescriptor:
 208              	.LVL15:
 209              	.LFB136:
 405:Middlewares/ST/STM32_USB_Device_Library/Core/Src/usbd_ctlreq.c ****   uint16_t len;
 210              		.loc 1 405 1 is_stmt 1 view -0
 211              		.cfi_startproc
 212              		@ args = 0, pretend = 0, frame = 8
 213              		@ frame_needed = 0, uses_anonymous_args = 0
 405:Middlewares/ST/STM32_USB_Device_Library/Core/Src/usbd_ctlreq.c ****   uint16_t len;
 214              		.loc 1 405 1 is_stmt 0 view .LVU49
 215 0000 30B5     		push	{r4, r5, lr}
 216              	.LCFI2:
 217              		.cfi_def_cfa_offset 12
 218              		.cfi_offset 4, -12
 219              		.cfi_offset 5, -8
 220              		.cfi_offset 14, -4
 221 0002 83B0     		sub	sp, sp, #12
 222              	.LCFI3:
 223              		.cfi_def_cfa_offset 24
ARM GAS  /tmp/ccT1bBgQ.s 			page 20


 224 0004 0546     		mov	r5, r0
 225 0006 0C46     		mov	r4, r1
 406:Middlewares/ST/STM32_USB_Device_Library/Core/Src/usbd_ctlreq.c ****   uint8_t *pbuf;
 226              		.loc 1 406 3 is_stmt 1 view .LVU50
 407:Middlewares/ST/STM32_USB_Device_Library/Core/Src/usbd_ctlreq.c **** 
 227              		.loc 1 407 3 view .LVU51
 410:Middlewares/ST/STM32_USB_Device_Library/Core/Src/usbd_ctlreq.c ****   {
 228              		.loc 1 410 3 view .LVU52
 410:Middlewares/ST/STM32_USB_Device_Library/Core/Src/usbd_ctlreq.c ****   {
 229              		.loc 1 410 14 is_stmt 0 view .LVU53
 230 0008 4A88     		ldrh	r2, [r1, #2]
 410:Middlewares/ST/STM32_USB_Device_Library/Core/Src/usbd_ctlreq.c ****   {
 231              		.loc 1 410 23 view .LVU54
 232 000a 130A     		lsrs	r3, r2, #8
 410:Middlewares/ST/STM32_USB_Device_Library/Core/Src/usbd_ctlreq.c ****   {
 233              		.loc 1 410 3 view .LVU55
 234 000c 013B     		subs	r3, r3, #1
 235 000e 062B     		cmp	r3, #6
 236 0010 00F28480 		bhi	.L13
 237 0014 DFE803F0 		tbb	[pc, r3]
 238              	.LVL16:
 239              	.L15:
 240 0018 04       		.byte	(.L19-.L15)/2
 241 0019 16       		.byte	(.L18-.L15)/2
 242 001a 2A       		.byte	(.L17-.L15)/2
 243 001b 82       		.byte	(.L13-.L15)/2
 244 001c 82       		.byte	(.L13-.L15)/2
 245 001d 66       		.byte	(.L16-.L15)/2
 246 001e 73       		.byte	(.L14-.L15)/2
 247 001f 00       		.p2align 1
 248              	.L19:
 418:Middlewares/ST/STM32_USB_Device_Library/Core/Src/usbd_ctlreq.c ****     break;
 249              		.loc 1 418 5 is_stmt 1 view .LVU56
 418:Middlewares/ST/STM32_USB_Device_Library/Core/Src/usbd_ctlreq.c ****     break;
 250              		.loc 1 418 16 is_stmt 0 view .LVU57
 251 0020 D0F88832 		ldr	r3, [r0, #648]
 418:Middlewares/ST/STM32_USB_Device_Library/Core/Src/usbd_ctlreq.c ****     break;
 252              		.loc 1 418 23 view .LVU58
 253 0024 1B68     		ldr	r3, [r3]
 418:Middlewares/ST/STM32_USB_Device_Library/Core/Src/usbd_ctlreq.c ****     break;
 254              		.loc 1 418 12 view .LVU59
 255 0026 0DF10601 		add	r1, sp, #6
 256 002a 007C     		ldrb	r0, [r0, #16]	@ zero_extendqisi2
 257              	.LVL17:
 418:Middlewares/ST/STM32_USB_Device_Library/Core/Src/usbd_ctlreq.c ****     break;
 258              		.loc 1 418 12 view .LVU60
 259 002c 9847     		blx	r3
 260              	.LVL18:
 419:Middlewares/ST/STM32_USB_Device_Library/Core/Src/usbd_ctlreq.c **** 
 261              		.loc 1 419 5 is_stmt 1 view .LVU61
 262              	.L20:
 502:Middlewares/ST/STM32_USB_Device_Library/Core/Src/usbd_ctlreq.c ****   {
 263              		.loc 1 502 3 view .LVU62
 502:Middlewares/ST/STM32_USB_Device_Library/Core/Src/usbd_ctlreq.c ****   {
 264              		.loc 1 502 11 is_stmt 0 view .LVU63
 265 002e BDF80620 		ldrh	r2, [sp, #6]
 502:Middlewares/ST/STM32_USB_Device_Library/Core/Src/usbd_ctlreq.c ****   {
ARM GAS  /tmp/ccT1bBgQ.s 			page 21


 266              		.loc 1 502 5 view .LVU64
 267 0032 12B1     		cbz	r2, .L33
 502:Middlewares/ST/STM32_USB_Device_Library/Core/Src/usbd_ctlreq.c ****   {
 268              		.loc 1 502 25 discriminator 1 view .LVU65
 269 0034 E388     		ldrh	r3, [r4, #6]
 502:Middlewares/ST/STM32_USB_Device_Library/Core/Src/usbd_ctlreq.c ****   {
 270              		.loc 1 502 18 discriminator 1 view .LVU66
 271 0036 002B     		cmp	r3, #0
 272 0038 74D1     		bne	.L37
 273              	.LVL19:
 274              	.L33:
 510:Middlewares/ST/STM32_USB_Device_Library/Core/Src/usbd_ctlreq.c ****   {
 275              		.loc 1 510 3 is_stmt 1 view .LVU67
 510:Middlewares/ST/STM32_USB_Device_Library/Core/Src/usbd_ctlreq.c ****   {
 276              		.loc 1 510 9 is_stmt 0 view .LVU68
 277 003a E388     		ldrh	r3, [r4, #6]
 510:Middlewares/ST/STM32_USB_Device_Library/Core/Src/usbd_ctlreq.c ****   {
 278              		.loc 1 510 5 view .LVU69
 279 003c 002B     		cmp	r3, #0
 280 003e 7BD0     		beq	.L38
 281              	.L12:
 514:Middlewares/ST/STM32_USB_Device_Library/Core/Src/usbd_ctlreq.c **** 
 282              		.loc 1 514 1 view .LVU70
 283 0040 03B0     		add	sp, sp, #12
 284              	.LCFI4:
 285              		.cfi_remember_state
 286              		.cfi_def_cfa_offset 12
 287              		@ sp needed
 288 0042 30BD     		pop	{r4, r5, pc}
 289              	.LVL20:
 290              	.L18:
 291              	.LCFI5:
 292              		.cfi_restore_state
 422:Middlewares/ST/STM32_USB_Device_Library/Core/Src/usbd_ctlreq.c ****     {
 293              		.loc 1 422 5 is_stmt 1 view .LVU71
 422:Middlewares/ST/STM32_USB_Device_Library/Core/Src/usbd_ctlreq.c ****     {
 294              		.loc 1 422 12 is_stmt 0 view .LVU72
 295 0044 037C     		ldrb	r3, [r0, #16]	@ zero_extendqisi2
 422:Middlewares/ST/STM32_USB_Device_Library/Core/Src/usbd_ctlreq.c ****     {
 296              		.loc 1 422 7 view .LVU73
 297 0046 43B9     		cbnz	r3, .L21
 424:Middlewares/ST/STM32_USB_Device_Library/Core/Src/usbd_ctlreq.c ****       pbuf[1] = USB_DESC_TYPE_CONFIGURATION;
 298              		.loc 1 424 7 is_stmt 1 view .LVU74
 424:Middlewares/ST/STM32_USB_Device_Library/Core/Src/usbd_ctlreq.c ****       pbuf[1] = USB_DESC_TYPE_CONFIGURATION;
 299              		.loc 1 424 31 is_stmt 0 view .LVU75
 300 0048 D0F88C32 		ldr	r3, [r0, #652]
 424:Middlewares/ST/STM32_USB_Device_Library/Core/Src/usbd_ctlreq.c ****       pbuf[1] = USB_DESC_TYPE_CONFIGURATION;
 301              		.loc 1 424 39 view .LVU76
 302 004c 9B6A     		ldr	r3, [r3, #40]
 424:Middlewares/ST/STM32_USB_Device_Library/Core/Src/usbd_ctlreq.c ****       pbuf[1] = USB_DESC_TYPE_CONFIGURATION;
 303              		.loc 1 424 16 view .LVU77
 304 004e 0DF10600 		add	r0, sp, #6
 305              	.LVL21:
 424:Middlewares/ST/STM32_USB_Device_Library/Core/Src/usbd_ctlreq.c ****       pbuf[1] = USB_DESC_TYPE_CONFIGURATION;
 306              		.loc 1 424 16 view .LVU78
 307 0052 9847     		blx	r3
 308              	.LVL22:
ARM GAS  /tmp/ccT1bBgQ.s 			page 22


 425:Middlewares/ST/STM32_USB_Device_Library/Core/Src/usbd_ctlreq.c ****     }
 309              		.loc 1 425 7 is_stmt 1 view .LVU79
 425:Middlewares/ST/STM32_USB_Device_Library/Core/Src/usbd_ctlreq.c ****     }
 310              		.loc 1 425 15 is_stmt 0 view .LVU80
 311 0054 0223     		movs	r3, #2
 312 0056 4370     		strb	r3, [r0, #1]
 313 0058 E9E7     		b	.L20
 314              	.LVL23:
 315              	.L21:
 429:Middlewares/ST/STM32_USB_Device_Library/Core/Src/usbd_ctlreq.c ****       pbuf[1] = USB_DESC_TYPE_CONFIGURATION;
 316              		.loc 1 429 7 is_stmt 1 view .LVU81
 429:Middlewares/ST/STM32_USB_Device_Library/Core/Src/usbd_ctlreq.c ****       pbuf[1] = USB_DESC_TYPE_CONFIGURATION;
 317              		.loc 1 429 31 is_stmt 0 view .LVU82
 318 005a D0F88C32 		ldr	r3, [r0, #652]
 429:Middlewares/ST/STM32_USB_Device_Library/Core/Src/usbd_ctlreq.c ****       pbuf[1] = USB_DESC_TYPE_CONFIGURATION;
 319              		.loc 1 429 39 view .LVU83
 320 005e DB6A     		ldr	r3, [r3, #44]
 429:Middlewares/ST/STM32_USB_Device_Library/Core/Src/usbd_ctlreq.c ****       pbuf[1] = USB_DESC_TYPE_CONFIGURATION;
 321              		.loc 1 429 16 view .LVU84
 322 0060 0DF10600 		add	r0, sp, #6
 323              	.LVL24:
 429:Middlewares/ST/STM32_USB_Device_Library/Core/Src/usbd_ctlreq.c ****       pbuf[1] = USB_DESC_TYPE_CONFIGURATION;
 324              		.loc 1 429 16 view .LVU85
 325 0064 9847     		blx	r3
 326              	.LVL25:
 430:Middlewares/ST/STM32_USB_Device_Library/Core/Src/usbd_ctlreq.c ****     }
 327              		.loc 1 430 7 is_stmt 1 view .LVU86
 430:Middlewares/ST/STM32_USB_Device_Library/Core/Src/usbd_ctlreq.c ****     }
 328              		.loc 1 430 15 is_stmt 0 view .LVU87
 329 0066 0223     		movs	r3, #2
 330 0068 4370     		strb	r3, [r0, #1]
 331 006a E0E7     		b	.L20
 332              	.LVL26:
 333              	.L17:
 435:Middlewares/ST/STM32_USB_Device_Library/Core/Src/usbd_ctlreq.c ****     {
 334              		.loc 1 435 5 is_stmt 1 view .LVU88
 435:Middlewares/ST/STM32_USB_Device_Library/Core/Src/usbd_ctlreq.c ****     {
 335              		.loc 1 435 13 is_stmt 0 view .LVU89
 336 006c D2B2     		uxtb	r2, r2
 337 006e 052A     		cmp	r2, #5
 338 0070 34D8     		bhi	.L22
 339 0072 DFE802F0 		tbb	[pc, r2]
 340              	.L24:
 341 0076 03       		.byte	(.L29-.L24)/2
 342 0077 0B       		.byte	(.L28-.L24)/2
 343 0078 13       		.byte	(.L27-.L24)/2
 344 0079 1B       		.byte	(.L26-.L24)/2
 345 007a 23       		.byte	(.L25-.L24)/2
 346 007b 2B       		.byte	(.L23-.L24)/2
 347              		.p2align 1
 348              	.L29:
 438:Middlewares/ST/STM32_USB_Device_Library/Core/Src/usbd_ctlreq.c ****       break;
 349              		.loc 1 438 6 is_stmt 1 view .LVU90
 438:Middlewares/ST/STM32_USB_Device_Library/Core/Src/usbd_ctlreq.c ****       break;
 350              		.loc 1 438 17 is_stmt 0 view .LVU91
 351 007c D0F88832 		ldr	r3, [r0, #648]
 438:Middlewares/ST/STM32_USB_Device_Library/Core/Src/usbd_ctlreq.c ****       break;
ARM GAS  /tmp/ccT1bBgQ.s 			page 23


 352              		.loc 1 438 24 view .LVU92
 353 0080 5B68     		ldr	r3, [r3, #4]
 438:Middlewares/ST/STM32_USB_Device_Library/Core/Src/usbd_ctlreq.c ****       break;
 354              		.loc 1 438 13 view .LVU93
 355 0082 0DF10601 		add	r1, sp, #6
 356 0086 007C     		ldrb	r0, [r0, #16]	@ zero_extendqisi2
 357              	.LVL27:
 438:Middlewares/ST/STM32_USB_Device_Library/Core/Src/usbd_ctlreq.c ****       break;
 358              		.loc 1 438 13 view .LVU94
 359 0088 9847     		blx	r3
 360              	.LVL28:
 439:Middlewares/ST/STM32_USB_Device_Library/Core/Src/usbd_ctlreq.c **** 
 361              		.loc 1 439 7 is_stmt 1 view .LVU95
 362 008a D0E7     		b	.L20
 363              	.LVL29:
 364              	.L28:
 442:Middlewares/ST/STM32_USB_Device_Library/Core/Src/usbd_ctlreq.c ****       break;
 365              		.loc 1 442 7 view .LVU96
 442:Middlewares/ST/STM32_USB_Device_Library/Core/Src/usbd_ctlreq.c ****       break;
 366              		.loc 1 442 18 is_stmt 0 view .LVU97
 367 008c D0F88832 		ldr	r3, [r0, #648]
 442:Middlewares/ST/STM32_USB_Device_Library/Core/Src/usbd_ctlreq.c ****       break;
 368              		.loc 1 442 25 view .LVU98
 369 0090 9B68     		ldr	r3, [r3, #8]
 442:Middlewares/ST/STM32_USB_Device_Library/Core/Src/usbd_ctlreq.c ****       break;
 370              		.loc 1 442 14 view .LVU99
 371 0092 0DF10601 		add	r1, sp, #6
 372 0096 007C     		ldrb	r0, [r0, #16]	@ zero_extendqisi2
 373              	.LVL30:
 442:Middlewares/ST/STM32_USB_Device_Library/Core/Src/usbd_ctlreq.c ****       break;
 374              		.loc 1 442 14 view .LVU100
 375 0098 9847     		blx	r3
 376              	.LVL31:
 443:Middlewares/ST/STM32_USB_Device_Library/Core/Src/usbd_ctlreq.c **** 
 377              		.loc 1 443 7 is_stmt 1 view .LVU101
 378 009a C8E7     		b	.L20
 379              	.LVL32:
 380              	.L27:
 446:Middlewares/ST/STM32_USB_Device_Library/Core/Src/usbd_ctlreq.c ****       break;
 381              		.loc 1 446 7 view .LVU102
 446:Middlewares/ST/STM32_USB_Device_Library/Core/Src/usbd_ctlreq.c ****       break;
 382              		.loc 1 446 18 is_stmt 0 view .LVU103
 383 009c D0F88832 		ldr	r3, [r0, #648]
 446:Middlewares/ST/STM32_USB_Device_Library/Core/Src/usbd_ctlreq.c ****       break;
 384              		.loc 1 446 25 view .LVU104
 385 00a0 DB68     		ldr	r3, [r3, #12]
 446:Middlewares/ST/STM32_USB_Device_Library/Core/Src/usbd_ctlreq.c ****       break;
 386              		.loc 1 446 14 view .LVU105
 387 00a2 0DF10601 		add	r1, sp, #6
 388 00a6 007C     		ldrb	r0, [r0, #16]	@ zero_extendqisi2
 389              	.LVL33:
 446:Middlewares/ST/STM32_USB_Device_Library/Core/Src/usbd_ctlreq.c ****       break;
 390              		.loc 1 446 14 view .LVU106
 391 00a8 9847     		blx	r3
 392              	.LVL34:
 447:Middlewares/ST/STM32_USB_Device_Library/Core/Src/usbd_ctlreq.c **** 
 393              		.loc 1 447 7 is_stmt 1 view .LVU107
ARM GAS  /tmp/ccT1bBgQ.s 			page 24


 394 00aa C0E7     		b	.L20
 395              	.LVL35:
 396              	.L26:
 450:Middlewares/ST/STM32_USB_Device_Library/Core/Src/usbd_ctlreq.c ****       break;
 397              		.loc 1 450 7 view .LVU108
 450:Middlewares/ST/STM32_USB_Device_Library/Core/Src/usbd_ctlreq.c ****       break;
 398              		.loc 1 450 18 is_stmt 0 view .LVU109
 399 00ac D0F88832 		ldr	r3, [r0, #648]
 450:Middlewares/ST/STM32_USB_Device_Library/Core/Src/usbd_ctlreq.c ****       break;
 400              		.loc 1 450 25 view .LVU110
 401 00b0 1B69     		ldr	r3, [r3, #16]
 450:Middlewares/ST/STM32_USB_Device_Library/Core/Src/usbd_ctlreq.c ****       break;
 402              		.loc 1 450 14 view .LVU111
 403 00b2 0DF10601 		add	r1, sp, #6
 404 00b6 007C     		ldrb	r0, [r0, #16]	@ zero_extendqisi2
 405              	.LVL36:
 450:Middlewares/ST/STM32_USB_Device_Library/Core/Src/usbd_ctlreq.c ****       break;
 406              		.loc 1 450 14 view .LVU112
 407 00b8 9847     		blx	r3
 408              	.LVL37:
 451:Middlewares/ST/STM32_USB_Device_Library/Core/Src/usbd_ctlreq.c **** 
 409              		.loc 1 451 7 is_stmt 1 view .LVU113
 410 00ba B8E7     		b	.L20
 411              	.LVL38:
 412              	.L25:
 454:Middlewares/ST/STM32_USB_Device_Library/Core/Src/usbd_ctlreq.c ****       break;
 413              		.loc 1 454 7 view .LVU114
 454:Middlewares/ST/STM32_USB_Device_Library/Core/Src/usbd_ctlreq.c ****       break;
 414              		.loc 1 454 18 is_stmt 0 view .LVU115
 415 00bc D0F88832 		ldr	r3, [r0, #648]
 454:Middlewares/ST/STM32_USB_Device_Library/Core/Src/usbd_ctlreq.c ****       break;
 416              		.loc 1 454 25 view .LVU116
 417 00c0 5B69     		ldr	r3, [r3, #20]
 454:Middlewares/ST/STM32_USB_Device_Library/Core/Src/usbd_ctlreq.c ****       break;
 418              		.loc 1 454 14 view .LVU117
 419 00c2 0DF10601 		add	r1, sp, #6
 420 00c6 007C     		ldrb	r0, [r0, #16]	@ zero_extendqisi2
 421              	.LVL39:
 454:Middlewares/ST/STM32_USB_Device_Library/Core/Src/usbd_ctlreq.c ****       break;
 422              		.loc 1 454 14 view .LVU118
 423 00c8 9847     		blx	r3
 424              	.LVL40:
 455:Middlewares/ST/STM32_USB_Device_Library/Core/Src/usbd_ctlreq.c **** 
 425              		.loc 1 455 7 is_stmt 1 view .LVU119
 426 00ca B0E7     		b	.L20
 427              	.LVL41:
 428              	.L23:
 458:Middlewares/ST/STM32_USB_Device_Library/Core/Src/usbd_ctlreq.c ****       break;
 429              		.loc 1 458 7 view .LVU120
 458:Middlewares/ST/STM32_USB_Device_Library/Core/Src/usbd_ctlreq.c ****       break;
 430              		.loc 1 458 18 is_stmt 0 view .LVU121
 431 00cc D0F88832 		ldr	r3, [r0, #648]
 458:Middlewares/ST/STM32_USB_Device_Library/Core/Src/usbd_ctlreq.c ****       break;
 432              		.loc 1 458 25 view .LVU122
 433 00d0 9B69     		ldr	r3, [r3, #24]
 458:Middlewares/ST/STM32_USB_Device_Library/Core/Src/usbd_ctlreq.c ****       break;
 434              		.loc 1 458 14 view .LVU123
ARM GAS  /tmp/ccT1bBgQ.s 			page 25


 435 00d2 0DF10601 		add	r1, sp, #6
 436 00d6 007C     		ldrb	r0, [r0, #16]	@ zero_extendqisi2
 437              	.LVL42:
 458:Middlewares/ST/STM32_USB_Device_Library/Core/Src/usbd_ctlreq.c ****       break;
 438              		.loc 1 458 14 view .LVU124
 439 00d8 9847     		blx	r3
 440              	.LVL43:
 459:Middlewares/ST/STM32_USB_Device_Library/Core/Src/usbd_ctlreq.c **** 
 441              		.loc 1 459 7 is_stmt 1 view .LVU125
 442 00da A8E7     		b	.L20
 443              	.LVL44:
 444              	.L22:
 466:Middlewares/ST/STM32_USB_Device_Library/Core/Src/usbd_ctlreq.c ****       return;
 445              		.loc 1 466 8 view .LVU126
 446 00dc 2146     		mov	r1, r4
 447 00de FFF7FEFF 		bl	USBD_CtlError
 448              	.LVL45:
 467:Middlewares/ST/STM32_USB_Device_Library/Core/Src/usbd_ctlreq.c **** #endif
 449              		.loc 1 467 7 view .LVU127
 450 00e2 ADE7     		b	.L12
 451              	.LVL46:
 452              	.L16:
 473:Middlewares/ST/STM32_USB_Device_Library/Core/Src/usbd_ctlreq.c ****     {
 453              		.loc 1 473 5 view .LVU128
 473:Middlewares/ST/STM32_USB_Device_Library/Core/Src/usbd_ctlreq.c ****     {
 454              		.loc 1 473 12 is_stmt 0 view .LVU129
 455 00e4 037C     		ldrb	r3, [r0, #16]	@ zero_extendqisi2
 473:Middlewares/ST/STM32_USB_Device_Library/Core/Src/usbd_ctlreq.c ****     {
 456              		.loc 1 473 7 view .LVU130
 457 00e6 33B9     		cbnz	r3, .L31
 475:Middlewares/ST/STM32_USB_Device_Library/Core/Src/usbd_ctlreq.c ****       break;
 458              		.loc 1 475 7 is_stmt 1 view .LVU131
 475:Middlewares/ST/STM32_USB_Device_Library/Core/Src/usbd_ctlreq.c ****       break;
 459              		.loc 1 475 29 is_stmt 0 view .LVU132
 460 00e8 D0F88C32 		ldr	r3, [r0, #652]
 475:Middlewares/ST/STM32_USB_Device_Library/Core/Src/usbd_ctlreq.c ****       break;
 461              		.loc 1 475 37 view .LVU133
 462 00ec 5B6B     		ldr	r3, [r3, #52]
 475:Middlewares/ST/STM32_USB_Device_Library/Core/Src/usbd_ctlreq.c ****       break;
 463              		.loc 1 475 14 view .LVU134
 464 00ee 0DF10600 		add	r0, sp, #6
 465              	.LVL47:
 475:Middlewares/ST/STM32_USB_Device_Library/Core/Src/usbd_ctlreq.c ****       break;
 466              		.loc 1 475 14 view .LVU135
 467 00f2 9847     		blx	r3
 468              	.LVL48:
 476:Middlewares/ST/STM32_USB_Device_Library/Core/Src/usbd_ctlreq.c ****     }
 469              		.loc 1 476 7 is_stmt 1 view .LVU136
 470 00f4 9BE7     		b	.L20
 471              	.LVL49:
 472              	.L31:
 480:Middlewares/ST/STM32_USB_Device_Library/Core/Src/usbd_ctlreq.c ****       return;
 473              		.loc 1 480 7 view .LVU137
 474 00f6 2146     		mov	r1, r4
 475 00f8 FFF7FEFF 		bl	USBD_CtlError
 476              	.LVL50:
 481:Middlewares/ST/STM32_USB_Device_Library/Core/Src/usbd_ctlreq.c ****     }
ARM GAS  /tmp/ccT1bBgQ.s 			page 26


 477              		.loc 1 481 7 view .LVU138
 478 00fc A0E7     		b	.L12
 479              	.LVL51:
 480              	.L14:
 485:Middlewares/ST/STM32_USB_Device_Library/Core/Src/usbd_ctlreq.c ****     {
 481              		.loc 1 485 5 view .LVU139
 485:Middlewares/ST/STM32_USB_Device_Library/Core/Src/usbd_ctlreq.c ****     {
 482              		.loc 1 485 12 is_stmt 0 view .LVU140
 483 00fe 037C     		ldrb	r3, [r0, #16]	@ zero_extendqisi2
 485:Middlewares/ST/STM32_USB_Device_Library/Core/Src/usbd_ctlreq.c ****     {
 484              		.loc 1 485 7 view .LVU141
 485 0100 43B9     		cbnz	r3, .L32
 487:Middlewares/ST/STM32_USB_Device_Library/Core/Src/usbd_ctlreq.c ****       pbuf[1] = USB_DESC_TYPE_OTHER_SPEED_CONFIGURATION;
 486              		.loc 1 487 7 is_stmt 1 view .LVU142
 487:Middlewares/ST/STM32_USB_Device_Library/Core/Src/usbd_ctlreq.c ****       pbuf[1] = USB_DESC_TYPE_OTHER_SPEED_CONFIGURATION;
 487              		.loc 1 487 31 is_stmt 0 view .LVU143
 488 0102 D0F88C32 		ldr	r3, [r0, #652]
 487:Middlewares/ST/STM32_USB_Device_Library/Core/Src/usbd_ctlreq.c ****       pbuf[1] = USB_DESC_TYPE_OTHER_SPEED_CONFIGURATION;
 489              		.loc 1 487 39 view .LVU144
 490 0106 1B6B     		ldr	r3, [r3, #48]
 487:Middlewares/ST/STM32_USB_Device_Library/Core/Src/usbd_ctlreq.c ****       pbuf[1] = USB_DESC_TYPE_OTHER_SPEED_CONFIGURATION;
 491              		.loc 1 487 16 view .LVU145
 492 0108 0DF10600 		add	r0, sp, #6
 493              	.LVL52:
 487:Middlewares/ST/STM32_USB_Device_Library/Core/Src/usbd_ctlreq.c ****       pbuf[1] = USB_DESC_TYPE_OTHER_SPEED_CONFIGURATION;
 494              		.loc 1 487 16 view .LVU146
 495 010c 9847     		blx	r3
 496              	.LVL53:
 488:Middlewares/ST/STM32_USB_Device_Library/Core/Src/usbd_ctlreq.c ****       break;
 497              		.loc 1 488 7 is_stmt 1 view .LVU147
 488:Middlewares/ST/STM32_USB_Device_Library/Core/Src/usbd_ctlreq.c ****       break;
 498              		.loc 1 488 15 is_stmt 0 view .LVU148
 499 010e 0723     		movs	r3, #7
 500 0110 4370     		strb	r3, [r0, #1]
 489:Middlewares/ST/STM32_USB_Device_Library/Core/Src/usbd_ctlreq.c ****     }
 501              		.loc 1 489 7 is_stmt 1 view .LVU149
 502 0112 8CE7     		b	.L20
 503              	.LVL54:
 504              	.L32:
 493:Middlewares/ST/STM32_USB_Device_Library/Core/Src/usbd_ctlreq.c ****       return;
 505              		.loc 1 493 7 view .LVU150
 506 0114 2146     		mov	r1, r4
 507 0116 FFF7FEFF 		bl	USBD_CtlError
 508              	.LVL55:
 494:Middlewares/ST/STM32_USB_Device_Library/Core/Src/usbd_ctlreq.c ****     }
 509              		.loc 1 494 7 view .LVU151
 510 011a 91E7     		b	.L12
 511              	.LVL56:
 512              	.L13:
 498:Middlewares/ST/STM32_USB_Device_Library/Core/Src/usbd_ctlreq.c ****     return;
 513              		.loc 1 498 6 view .LVU152
 514 011c 2146     		mov	r1, r4
 515 011e FFF7FEFF 		bl	USBD_CtlError
 516              	.LVL57:
 499:Middlewares/ST/STM32_USB_Device_Library/Core/Src/usbd_ctlreq.c ****   }
 517              		.loc 1 499 5 view .LVU153
 518 0122 8DE7     		b	.L12
ARM GAS  /tmp/ccT1bBgQ.s 			page 27


 519              	.LVL58:
 520              	.L37:
 505:Middlewares/ST/STM32_USB_Device_Library/Core/Src/usbd_ctlreq.c **** 
 521              		.loc 1 505 5 view .LVU154
 505:Middlewares/ST/STM32_USB_Device_Library/Core/Src/usbd_ctlreq.c **** 
 522              		.loc 1 505 11 is_stmt 0 view .LVU155
 523 0124 9A42     		cmp	r2, r3
 524 0126 28BF     		it	cs
 525 0128 1A46     		movcs	r2, r3
 505:Middlewares/ST/STM32_USB_Device_Library/Core/Src/usbd_ctlreq.c **** 
 526              		.loc 1 505 9 view .LVU156
 527 012a ADF80620 		strh	r2, [sp, #6]	@ movhi
 507:Middlewares/ST/STM32_USB_Device_Library/Core/Src/usbd_ctlreq.c ****   }
 528              		.loc 1 507 5 is_stmt 1 view .LVU157
 529 012e 0146     		mov	r1, r0
 530 0130 2846     		mov	r0, r5
 531              	.LVL59:
 507:Middlewares/ST/STM32_USB_Device_Library/Core/Src/usbd_ctlreq.c ****   }
 532              		.loc 1 507 5 is_stmt 0 view .LVU158
 533 0132 FFF7FEFF 		bl	USBD_CtlSendData
 534              	.LVL60:
 507:Middlewares/ST/STM32_USB_Device_Library/Core/Src/usbd_ctlreq.c ****   }
 535              		.loc 1 507 5 view .LVU159
 536 0136 80E7     		b	.L33
 537              	.L38:
 512:Middlewares/ST/STM32_USB_Device_Library/Core/Src/usbd_ctlreq.c ****   }
 538              		.loc 1 512 4 is_stmt 1 view .LVU160
 539 0138 2846     		mov	r0, r5
 540 013a FFF7FEFF 		bl	USBD_CtlSendStatus
 541              	.LVL61:
 542 013e 7FE7     		b	.L12
 543              		.cfi_endproc
 544              	.LFE136:
 546              		.section	.text.USBD_SetAddress,"ax",%progbits
 547              		.align	1
 548              		.syntax unified
 549              		.thumb
 550              		.thumb_func
 551              		.fpu fpv4-sp-d16
 553              	USBD_SetAddress:
 554              	.LVL62:
 555              	.LFB137:
 525:Middlewares/ST/STM32_USB_Device_Library/Core/Src/usbd_ctlreq.c ****   uint8_t  dev_addr;
 556              		.loc 1 525 1 view -0
 557              		.cfi_startproc
 558              		@ args = 0, pretend = 0, frame = 0
 559              		@ frame_needed = 0, uses_anonymous_args = 0
 525:Middlewares/ST/STM32_USB_Device_Library/Core/Src/usbd_ctlreq.c ****   uint8_t  dev_addr;
 560              		.loc 1 525 1 is_stmt 0 view .LVU162
 561 0000 38B5     		push	{r3, r4, r5, lr}
 562              	.LCFI6:
 563              		.cfi_def_cfa_offset 16
 564              		.cfi_offset 3, -16
 565              		.cfi_offset 4, -12
 566              		.cfi_offset 5, -8
 567              		.cfi_offset 14, -4
 568 0002 0446     		mov	r4, r0
ARM GAS  /tmp/ccT1bBgQ.s 			page 28


 526:Middlewares/ST/STM32_USB_Device_Library/Core/Src/usbd_ctlreq.c **** 
 569              		.loc 1 526 3 is_stmt 1 view .LVU163
 528:Middlewares/ST/STM32_USB_Device_Library/Core/Src/usbd_ctlreq.c ****   {
 570              		.loc 1 528 3 view .LVU164
 528:Middlewares/ST/STM32_USB_Device_Library/Core/Src/usbd_ctlreq.c ****   {
 571              		.loc 1 528 11 is_stmt 0 view .LVU165
 572 0004 8B88     		ldrh	r3, [r1, #4]
 528:Middlewares/ST/STM32_USB_Device_Library/Core/Src/usbd_ctlreq.c ****   {
 573              		.loc 1 528 6 view .LVU166
 574 0006 F3B9     		cbnz	r3, .L40
 528:Middlewares/ST/STM32_USB_Device_Library/Core/Src/usbd_ctlreq.c ****   {
 575              		.loc 1 528 34 discriminator 1 view .LVU167
 576 0008 CB88     		ldrh	r3, [r1, #6]
 528:Middlewares/ST/STM32_USB_Device_Library/Core/Src/usbd_ctlreq.c ****   {
 577              		.loc 1 528 27 discriminator 1 view .LVU168
 578 000a E3B9     		cbnz	r3, .L40
 528:Middlewares/ST/STM32_USB_Device_Library/Core/Src/usbd_ctlreq.c ****   {
 579              		.loc 1 528 58 discriminator 2 view .LVU169
 580 000c 4B88     		ldrh	r3, [r1, #2]
 528:Middlewares/ST/STM32_USB_Device_Library/Core/Src/usbd_ctlreq.c ****   {
 581              		.loc 1 528 51 discriminator 2 view .LVU170
 582 000e 7F2B     		cmp	r3, #127
 583 0010 19D8     		bhi	.L40
 530:Middlewares/ST/STM32_USB_Device_Library/Core/Src/usbd_ctlreq.c **** 
 584              		.loc 1 530 5 is_stmt 1 view .LVU171
 530:Middlewares/ST/STM32_USB_Device_Library/Core/Src/usbd_ctlreq.c **** 
 585              		.loc 1 530 14 is_stmt 0 view .LVU172
 586 0012 03F07F05 		and	r5, r3, #127
 587              	.LVL63:
 532:Middlewares/ST/STM32_USB_Device_Library/Core/Src/usbd_ctlreq.c ****     {
 588              		.loc 1 532 5 is_stmt 1 view .LVU173
 532:Middlewares/ST/STM32_USB_Device_Library/Core/Src/usbd_ctlreq.c ****     {
 589              		.loc 1 532 13 is_stmt 0 view .LVU174
 590 0016 90F87432 		ldrb	r3, [r0, #628]	@ zero_extendqisi2
 532:Middlewares/ST/STM32_USB_Device_Library/Core/Src/usbd_ctlreq.c ****     {
 591              		.loc 1 532 8 view .LVU175
 592 001a 032B     		cmp	r3, #3
 593 001c 0CD0     		beq	.L45
 538:Middlewares/ST/STM32_USB_Device_Library/Core/Src/usbd_ctlreq.c ****       USBD_LL_SetUSBAddress(pdev, dev_addr);
 594              		.loc 1 538 7 is_stmt 1 view .LVU176
 538:Middlewares/ST/STM32_USB_Device_Library/Core/Src/usbd_ctlreq.c ****       USBD_LL_SetUSBAddress(pdev, dev_addr);
 595              		.loc 1 538 25 is_stmt 0 view .LVU177
 596 001e 80F87652 		strb	r5, [r0, #630]
 539:Middlewares/ST/STM32_USB_Device_Library/Core/Src/usbd_ctlreq.c ****       USBD_CtlSendStatus(pdev);
 597              		.loc 1 539 7 is_stmt 1 view .LVU178
 598 0022 2946     		mov	r1, r5
 599              	.LVL64:
 539:Middlewares/ST/STM32_USB_Device_Library/Core/Src/usbd_ctlreq.c ****       USBD_CtlSendStatus(pdev);
 600              		.loc 1 539 7 is_stmt 0 view .LVU179
 601 0024 FFF7FEFF 		bl	USBD_LL_SetUSBAddress
 602              	.LVL65:
 540:Middlewares/ST/STM32_USB_Device_Library/Core/Src/usbd_ctlreq.c **** 
 603              		.loc 1 540 7 is_stmt 1 view .LVU180
 604 0028 2046     		mov	r0, r4
 605 002a FFF7FEFF 		bl	USBD_CtlSendStatus
 606              	.LVL66:
 542:Middlewares/ST/STM32_USB_Device_Library/Core/Src/usbd_ctlreq.c ****       {
ARM GAS  /tmp/ccT1bBgQ.s 			page 29


 607              		.loc 1 542 7 view .LVU181
 542:Middlewares/ST/STM32_USB_Device_Library/Core/Src/usbd_ctlreq.c ****       {
 608              		.loc 1 542 10 is_stmt 0 view .LVU182
 609 002e 35B1     		cbz	r5, .L43
 544:Middlewares/ST/STM32_USB_Device_Library/Core/Src/usbd_ctlreq.c ****       }
 610              		.loc 1 544 9 is_stmt 1 view .LVU183
 544:Middlewares/ST/STM32_USB_Device_Library/Core/Src/usbd_ctlreq.c ****       }
 611              		.loc 1 544 25 is_stmt 0 view .LVU184
 612 0030 0223     		movs	r3, #2
 613 0032 84F87432 		strb	r3, [r4, #628]
 614 0036 09E0     		b	.L39
 615              	.LVL67:
 616              	.L45:
 534:Middlewares/ST/STM32_USB_Device_Library/Core/Src/usbd_ctlreq.c ****     }
 617              		.loc 1 534 7 is_stmt 1 view .LVU185
 618 0038 FFF7FEFF 		bl	USBD_CtlError
 619              	.LVL68:
 534:Middlewares/ST/STM32_USB_Device_Library/Core/Src/usbd_ctlreq.c ****     }
 620              		.loc 1 534 7 is_stmt 0 view .LVU186
 621 003c 06E0     		b	.L39
 622              	.L43:
 548:Middlewares/ST/STM32_USB_Device_Library/Core/Src/usbd_ctlreq.c ****       }
 623              		.loc 1 548 9 is_stmt 1 view .LVU187
 548:Middlewares/ST/STM32_USB_Device_Library/Core/Src/usbd_ctlreq.c ****       }
 624              		.loc 1 548 25 is_stmt 0 view .LVU188
 625 003e 0123     		movs	r3, #1
 626 0040 84F87432 		strb	r3, [r4, #628]
 627 0044 02E0     		b	.L39
 628              	.LVL69:
 629              	.L40:
 554:Middlewares/ST/STM32_USB_Device_Library/Core/Src/usbd_ctlreq.c ****   }
 630              		.loc 1 554 5 is_stmt 1 view .LVU189
 631 0046 2046     		mov	r0, r4
 632              	.LVL70:
 554:Middlewares/ST/STM32_USB_Device_Library/Core/Src/usbd_ctlreq.c ****   }
 633              		.loc 1 554 5 is_stmt 0 view .LVU190
 634 0048 FFF7FEFF 		bl	USBD_CtlError
 635              	.LVL71:
 636              	.L39:
 556:Middlewares/ST/STM32_USB_Device_Library/Core/Src/usbd_ctlreq.c **** 
 637              		.loc 1 556 1 view .LVU191
 638 004c 38BD     		pop	{r3, r4, r5, pc}
 556:Middlewares/ST/STM32_USB_Device_Library/Core/Src/usbd_ctlreq.c **** 
 639              		.loc 1 556 1 view .LVU192
 640              		.cfi_endproc
 641              	.LFE137:
 643              		.section	.text.USBD_SetConfig,"ax",%progbits
 644              		.align	1
 645              		.syntax unified
 646              		.thumb
 647              		.thumb_func
 648              		.fpu fpv4-sp-d16
 650              	USBD_SetConfig:
 651              	.LVL72:
 652              	.LFB138:
 566:Middlewares/ST/STM32_USB_Device_Library/Core/Src/usbd_ctlreq.c ****   static uint8_t cfgidx;
 653              		.loc 1 566 1 is_stmt 1 view -0
ARM GAS  /tmp/ccT1bBgQ.s 			page 30


 654              		.cfi_startproc
 655              		@ args = 0, pretend = 0, frame = 0
 656              		@ frame_needed = 0, uses_anonymous_args = 0
 566:Middlewares/ST/STM32_USB_Device_Library/Core/Src/usbd_ctlreq.c ****   static uint8_t cfgidx;
 657              		.loc 1 566 1 is_stmt 0 view .LVU194
 658 0000 38B5     		push	{r3, r4, r5, lr}
 659              	.LCFI7:
 660              		.cfi_def_cfa_offset 16
 661              		.cfi_offset 3, -16
 662              		.cfi_offset 4, -12
 663              		.cfi_offset 5, -8
 664              		.cfi_offset 14, -4
 665 0002 0446     		mov	r4, r0
 666 0004 0D46     		mov	r5, r1
 567:Middlewares/ST/STM32_USB_Device_Library/Core/Src/usbd_ctlreq.c **** 
 667              		.loc 1 567 3 is_stmt 1 view .LVU195
 569:Middlewares/ST/STM32_USB_Device_Library/Core/Src/usbd_ctlreq.c **** 
 668              		.loc 1 569 3 view .LVU196
 569:Middlewares/ST/STM32_USB_Device_Library/Core/Src/usbd_ctlreq.c **** 
 669              		.loc 1 569 12 is_stmt 0 view .LVU197
 670 0006 8978     		ldrb	r1, [r1, #2]	@ zero_extendqisi2
 671              	.LVL73:
 569:Middlewares/ST/STM32_USB_Device_Library/Core/Src/usbd_ctlreq.c **** 
 672              		.loc 1 569 10 view .LVU198
 673 0008 284B     		ldr	r3, .L63
 674 000a 1970     		strb	r1, [r3]
 571:Middlewares/ST/STM32_USB_Device_Library/Core/Src/usbd_ctlreq.c ****   {
 675              		.loc 1 571 3 is_stmt 1 view .LVU199
 571:Middlewares/ST/STM32_USB_Device_Library/Core/Src/usbd_ctlreq.c ****   {
 676              		.loc 1 571 6 is_stmt 0 view .LVU200
 677 000c 0129     		cmp	r1, #1
 678 000e 0ED8     		bhi	.L59
 577:Middlewares/ST/STM32_USB_Device_Library/Core/Src/usbd_ctlreq.c ****     {
 679              		.loc 1 577 5 is_stmt 1 view .LVU201
 577:Middlewares/ST/STM32_USB_Device_Library/Core/Src/usbd_ctlreq.c ****     {
 680              		.loc 1 577 17 is_stmt 0 view .LVU202
 681 0010 90F87432 		ldrb	r3, [r0, #628]	@ zero_extendqisi2
 577:Middlewares/ST/STM32_USB_Device_Library/Core/Src/usbd_ctlreq.c ****     {
 682              		.loc 1 577 5 view .LVU203
 683 0014 022B     		cmp	r3, #2
 684 0016 0ED0     		beq	.L49
 685 0018 032B     		cmp	r3, #3
 686 001a 21D0     		beq	.L50
 626:Middlewares/ST/STM32_USB_Device_Library/Core/Src/usbd_ctlreq.c ****       USBD_ClrClassConfig(pdev, cfgidx);
 687              		.loc 1 626 7 is_stmt 1 view .LVU204
 688 001c 2946     		mov	r1, r5
 689 001e FFF7FEFF 		bl	USBD_CtlError
 690              	.LVL74:
 627:Middlewares/ST/STM32_USB_Device_Library/Core/Src/usbd_ctlreq.c ****       break;
 691              		.loc 1 627 7 view .LVU205
 692 0022 224B     		ldr	r3, .L63
 693 0024 1978     		ldrb	r1, [r3]	@ zero_extendqisi2
 694 0026 2046     		mov	r0, r4
 695 0028 FFF7FEFF 		bl	USBD_ClrClassConfig
 696              	.LVL75:
 628:Middlewares/ST/STM32_USB_Device_Library/Core/Src/usbd_ctlreq.c ****     }
 697              		.loc 1 628 7 view .LVU206
ARM GAS  /tmp/ccT1bBgQ.s 			page 31


 698 002c 02E0     		b	.L46
 699              	.LVL76:
 700              	.L59:
 573:Middlewares/ST/STM32_USB_Device_Library/Core/Src/usbd_ctlreq.c ****   }
 701              		.loc 1 573 5 view .LVU207
 702 002e 2946     		mov	r1, r5
 703 0030 FFF7FEFF 		bl	USBD_CtlError
 704              	.LVL77:
 705              	.L46:
 631:Middlewares/ST/STM32_USB_Device_Library/Core/Src/usbd_ctlreq.c **** 
 706              		.loc 1 631 1 is_stmt 0 view .LVU208
 707 0034 38BD     		pop	{r3, r4, r5, pc}
 708              	.LVL78:
 709              	.L49:
 580:Middlewares/ST/STM32_USB_Device_Library/Core/Src/usbd_ctlreq.c ****       {
 710              		.loc 1 580 7 is_stmt 1 view .LVU209
 580:Middlewares/ST/STM32_USB_Device_Library/Core/Src/usbd_ctlreq.c ****       {
 711              		.loc 1 580 10 is_stmt 0 view .LVU210
 712 0036 81B1     		cbz	r1, .L52
 582:Middlewares/ST/STM32_USB_Device_Library/Core/Src/usbd_ctlreq.c ****         pdev->dev_state = USBD_STATE_CONFIGURED;
 713              		.loc 1 582 9 is_stmt 1 view .LVU211
 582:Middlewares/ST/STM32_USB_Device_Library/Core/Src/usbd_ctlreq.c ****         pdev->dev_state = USBD_STATE_CONFIGURED;
 714              		.loc 1 582 26 is_stmt 0 view .LVU212
 715 0038 4160     		str	r1, [r0, #4]
 583:Middlewares/ST/STM32_USB_Device_Library/Core/Src/usbd_ctlreq.c ****         if(USBD_SetClassConfig(pdev, cfgidx) == USBD_FAIL)
 716              		.loc 1 583 9 is_stmt 1 view .LVU213
 583:Middlewares/ST/STM32_USB_Device_Library/Core/Src/usbd_ctlreq.c ****         if(USBD_SetClassConfig(pdev, cfgidx) == USBD_FAIL)
 717              		.loc 1 583 25 is_stmt 0 view .LVU214
 718 003a 0323     		movs	r3, #3
 719 003c 80F87432 		strb	r3, [r0, #628]
 584:Middlewares/ST/STM32_USB_Device_Library/Core/Src/usbd_ctlreq.c ****         {
 720              		.loc 1 584 9 is_stmt 1 view .LVU215
 584:Middlewares/ST/STM32_USB_Device_Library/Core/Src/usbd_ctlreq.c ****         {
 721              		.loc 1 584 12 is_stmt 0 view .LVU216
 722 0040 FFF7FEFF 		bl	USBD_SetClassConfig
 723              	.LVL79:
 584:Middlewares/ST/STM32_USB_Device_Library/Core/Src/usbd_ctlreq.c ****         {
 724              		.loc 1 584 11 view .LVU217
 725 0044 0228     		cmp	r0, #2
 726 0046 03D0     		beq	.L60
 589:Middlewares/ST/STM32_USB_Device_Library/Core/Src/usbd_ctlreq.c ****       }
 727              		.loc 1 589 9 is_stmt 1 view .LVU218
 728 0048 2046     		mov	r0, r4
 729 004a FFF7FEFF 		bl	USBD_CtlSendStatus
 730              	.LVL80:
 731 004e F1E7     		b	.L46
 732              	.L60:
 586:Middlewares/ST/STM32_USB_Device_Library/Core/Src/usbd_ctlreq.c ****           return;
 733              		.loc 1 586 11 view .LVU219
 734 0050 2946     		mov	r1, r5
 735 0052 2046     		mov	r0, r4
 736 0054 FFF7FEFF 		bl	USBD_CtlError
 737              	.LVL81:
 587:Middlewares/ST/STM32_USB_Device_Library/Core/Src/usbd_ctlreq.c ****         }
 738              		.loc 1 587 11 view .LVU220
 739 0058 ECE7     		b	.L46
 740              	.LVL82:
ARM GAS  /tmp/ccT1bBgQ.s 			page 32


 741              	.L52:
 593:Middlewares/ST/STM32_USB_Device_Library/Core/Src/usbd_ctlreq.c ****       }
 742              		.loc 1 593 9 view .LVU221
 743 005a FFF7FEFF 		bl	USBD_CtlSendStatus
 744              	.LVL83:
 593:Middlewares/ST/STM32_USB_Device_Library/Core/Src/usbd_ctlreq.c ****       }
 745              		.loc 1 593 9 is_stmt 0 view .LVU222
 746 005e E9E7     		b	.L46
 747              	.LVL84:
 748              	.L50:
 598:Middlewares/ST/STM32_USB_Device_Library/Core/Src/usbd_ctlreq.c ****       {
 749              		.loc 1 598 7 is_stmt 1 view .LVU223
 598:Middlewares/ST/STM32_USB_Device_Library/Core/Src/usbd_ctlreq.c ****       {
 750              		.loc 1 598 10 is_stmt 0 view .LVU224
 751 0060 89B1     		cbz	r1, .L61
 605:Middlewares/ST/STM32_USB_Device_Library/Core/Src/usbd_ctlreq.c ****       {
 752              		.loc 1 605 12 is_stmt 1 view .LVU225
 605:Middlewares/ST/STM32_USB_Device_Library/Core/Src/usbd_ctlreq.c ****       {
 753              		.loc 1 605 30 is_stmt 0 view .LVU226
 754 0062 4368     		ldr	r3, [r0, #4]
 605:Middlewares/ST/STM32_USB_Device_Library/Core/Src/usbd_ctlreq.c ****       {
 755              		.loc 1 605 15 view .LVU227
 756 0064 9942     		cmp	r1, r3
 757 0066 1DD0     		beq	.L55
 608:Middlewares/ST/STM32_USB_Device_Library/Core/Src/usbd_ctlreq.c **** 
 758              		.loc 1 608 9 is_stmt 1 view .LVU228
 759 0068 D9B2     		uxtb	r1, r3
 760 006a FFF7FEFF 		bl	USBD_ClrClassConfig
 761              	.LVL85:
 611:Middlewares/ST/STM32_USB_Device_Library/Core/Src/usbd_ctlreq.c ****         if(USBD_SetClassConfig(pdev, cfgidx) == USBD_FAIL)
 762              		.loc 1 611 9 view .LVU229
 611:Middlewares/ST/STM32_USB_Device_Library/Core/Src/usbd_ctlreq.c ****         if(USBD_SetClassConfig(pdev, cfgidx) == USBD_FAIL)
 763              		.loc 1 611 26 is_stmt 0 view .LVU230
 764 006e 0F4B     		ldr	r3, .L63
 765 0070 1978     		ldrb	r1, [r3]	@ zero_extendqisi2
 766 0072 6160     		str	r1, [r4, #4]
 612:Middlewares/ST/STM32_USB_Device_Library/Core/Src/usbd_ctlreq.c ****         {
 767              		.loc 1 612 9 is_stmt 1 view .LVU231
 612:Middlewares/ST/STM32_USB_Device_Library/Core/Src/usbd_ctlreq.c ****         {
 768              		.loc 1 612 12 is_stmt 0 view .LVU232
 769 0074 2046     		mov	r0, r4
 770 0076 FFF7FEFF 		bl	USBD_SetClassConfig
 771              	.LVL86:
 612:Middlewares/ST/STM32_USB_Device_Library/Core/Src/usbd_ctlreq.c ****         {
 772              		.loc 1 612 11 view .LVU233
 773 007a 0228     		cmp	r0, #2
 774 007c 0DD0     		beq	.L62
 617:Middlewares/ST/STM32_USB_Device_Library/Core/Src/usbd_ctlreq.c ****       }
 775              		.loc 1 617 9 is_stmt 1 view .LVU234
 776 007e 2046     		mov	r0, r4
 777 0080 FFF7FEFF 		bl	USBD_CtlSendStatus
 778              	.LVL87:
 779 0084 D6E7     		b	.L46
 780              	.LVL88:
 781              	.L61:
 600:Middlewares/ST/STM32_USB_Device_Library/Core/Src/usbd_ctlreq.c ****         pdev->dev_config = cfgidx;
 782              		.loc 1 600 9 view .LVU235
ARM GAS  /tmp/ccT1bBgQ.s 			page 33


 600:Middlewares/ST/STM32_USB_Device_Library/Core/Src/usbd_ctlreq.c ****         pdev->dev_config = cfgidx;
 783              		.loc 1 600 25 is_stmt 0 view .LVU236
 784 0086 0223     		movs	r3, #2
 785 0088 80F87432 		strb	r3, [r0, #628]
 601:Middlewares/ST/STM32_USB_Device_Library/Core/Src/usbd_ctlreq.c ****         USBD_ClrClassConfig(pdev, cfgidx);
 786              		.loc 1 601 9 is_stmt 1 view .LVU237
 601:Middlewares/ST/STM32_USB_Device_Library/Core/Src/usbd_ctlreq.c ****         USBD_ClrClassConfig(pdev, cfgidx);
 787              		.loc 1 601 26 is_stmt 0 view .LVU238
 788 008c 4160     		str	r1, [r0, #4]
 602:Middlewares/ST/STM32_USB_Device_Library/Core/Src/usbd_ctlreq.c ****         USBD_CtlSendStatus(pdev);
 789              		.loc 1 602 9 is_stmt 1 view .LVU239
 790 008e FFF7FEFF 		bl	USBD_ClrClassConfig
 791              	.LVL89:
 603:Middlewares/ST/STM32_USB_Device_Library/Core/Src/usbd_ctlreq.c ****       }
 792              		.loc 1 603 9 view .LVU240
 793 0092 2046     		mov	r0, r4
 794 0094 FFF7FEFF 		bl	USBD_CtlSendStatus
 795              	.LVL90:
 796 0098 CCE7     		b	.L46
 797              	.L62:
 614:Middlewares/ST/STM32_USB_Device_Library/Core/Src/usbd_ctlreq.c ****           return;
 798              		.loc 1 614 11 view .LVU241
 799 009a 2946     		mov	r1, r5
 800 009c 2046     		mov	r0, r4
 801 009e FFF7FEFF 		bl	USBD_CtlError
 802              	.LVL91:
 615:Middlewares/ST/STM32_USB_Device_Library/Core/Src/usbd_ctlreq.c ****         }
 803              		.loc 1 615 11 view .LVU242
 804 00a2 C7E7     		b	.L46
 805              	.LVL92:
 806              	.L55:
 621:Middlewares/ST/STM32_USB_Device_Library/Core/Src/usbd_ctlreq.c ****       }
 807              		.loc 1 621 9 view .LVU243
 808 00a4 FFF7FEFF 		bl	USBD_CtlSendStatus
 809              	.LVL93:
 621:Middlewares/ST/STM32_USB_Device_Library/Core/Src/usbd_ctlreq.c ****       }
 810              		.loc 1 621 9 is_stmt 0 view .LVU244
 811 00a8 C4E7     		b	.L46
 812              	.L64:
 813 00aa 00BF     		.align	2
 814              	.L63:
 815 00ac 00000000 		.word	.LANCHOR0
 816              		.cfi_endproc
 817              	.LFE138:
 819              		.section	.text.USBD_GetConfig,"ax",%progbits
 820              		.align	1
 821              		.syntax unified
 822              		.thumb
 823              		.thumb_func
 824              		.fpu fpv4-sp-d16
 826              	USBD_GetConfig:
 827              	.LVL94:
 828              	.LFB139:
 641:Middlewares/ST/STM32_USB_Device_Library/Core/Src/usbd_ctlreq.c ****   if (req->wLength != 1U)
 829              		.loc 1 641 1 is_stmt 1 view -0
 830              		.cfi_startproc
 831              		@ args = 0, pretend = 0, frame = 0
ARM GAS  /tmp/ccT1bBgQ.s 			page 34


 832              		@ frame_needed = 0, uses_anonymous_args = 0
 641:Middlewares/ST/STM32_USB_Device_Library/Core/Src/usbd_ctlreq.c ****   if (req->wLength != 1U)
 833              		.loc 1 641 1 is_stmt 0 view .LVU246
 834 0000 08B5     		push	{r3, lr}
 835              	.LCFI8:
 836              		.cfi_def_cfa_offset 8
 837              		.cfi_offset 3, -8
 838              		.cfi_offset 14, -4
 642:Middlewares/ST/STM32_USB_Device_Library/Core/Src/usbd_ctlreq.c ****   {
 839              		.loc 1 642 3 is_stmt 1 view .LVU247
 642:Middlewares/ST/STM32_USB_Device_Library/Core/Src/usbd_ctlreq.c ****   {
 840              		.loc 1 642 10 is_stmt 0 view .LVU248
 841 0002 CB88     		ldrh	r3, [r1, #6]
 642:Middlewares/ST/STM32_USB_Device_Library/Core/Src/usbd_ctlreq.c ****   {
 842              		.loc 1 642 6 view .LVU249
 843 0004 012B     		cmp	r3, #1
 844 0006 0CD1     		bne	.L72
 648:Middlewares/ST/STM32_USB_Device_Library/Core/Src/usbd_ctlreq.c ****     {
 845              		.loc 1 648 5 is_stmt 1 view .LVU250
 648:Middlewares/ST/STM32_USB_Device_Library/Core/Src/usbd_ctlreq.c ****     {
 846              		.loc 1 648 17 is_stmt 0 view .LVU251
 847 0008 90F87432 		ldrb	r3, [r0, #628]	@ zero_extendqisi2
 648:Middlewares/ST/STM32_USB_Device_Library/Core/Src/usbd_ctlreq.c ****     {
 848              		.loc 1 648 5 view .LVU252
 849 000c 5AB2     		sxtb	r2, r3
 850 000e 9AB1     		cbz	r2, .L68
 851 0010 022B     		cmp	r3, #2
 852 0012 09D9     		bls	.L69
 853 0014 032B     		cmp	r3, #3
 854 0016 0FD1     		bne	.L68
 657:Middlewares/ST/STM32_USB_Device_Library/Core/Src/usbd_ctlreq.c ****       break;
 855              		.loc 1 657 7 is_stmt 1 view .LVU253
 856 0018 0122     		movs	r2, #1
 857 001a 011D     		adds	r1, r0, #4
 858              	.LVL95:
 657:Middlewares/ST/STM32_USB_Device_Library/Core/Src/usbd_ctlreq.c ****       break;
 859              		.loc 1 657 7 is_stmt 0 view .LVU254
 860 001c FFF7FEFF 		bl	USBD_CtlSendData
 861              	.LVL96:
 658:Middlewares/ST/STM32_USB_Device_Library/Core/Src/usbd_ctlreq.c **** 
 862              		.loc 1 658 7 is_stmt 1 view .LVU255
 863 0020 01E0     		b	.L65
 864              	.LVL97:
 865              	.L72:
 644:Middlewares/ST/STM32_USB_Device_Library/Core/Src/usbd_ctlreq.c ****   }
 866              		.loc 1 644 5 view .LVU256
 867 0022 FFF7FEFF 		bl	USBD_CtlError
 868              	.LVL98:
 869              	.L65:
 665:Middlewares/ST/STM32_USB_Device_Library/Core/Src/usbd_ctlreq.c **** 
 870              		.loc 1 665 1 is_stmt 0 view .LVU257
 871 0026 08BD     		pop	{r3, pc}
 872              	.LVL99:
 873              	.L69:
 652:Middlewares/ST/STM32_USB_Device_Library/Core/Src/usbd_ctlreq.c ****       USBD_CtlSendData (pdev, (uint8_t *)(void *)&pdev->dev_default_config, 1U);
 874              		.loc 1 652 7 is_stmt 1 view .LVU258
 652:Middlewares/ST/STM32_USB_Device_Library/Core/Src/usbd_ctlreq.c ****       USBD_CtlSendData (pdev, (uint8_t *)(void *)&pdev->dev_default_config, 1U);
ARM GAS  /tmp/ccT1bBgQ.s 			page 35


 875              		.loc 1 652 32 is_stmt 0 view .LVU259
 876 0028 0146     		mov	r1, r0
 877              	.LVL100:
 652:Middlewares/ST/STM32_USB_Device_Library/Core/Src/usbd_ctlreq.c ****       USBD_CtlSendData (pdev, (uint8_t *)(void *)&pdev->dev_default_config, 1U);
 878              		.loc 1 652 32 view .LVU260
 879 002a 0023     		movs	r3, #0
 880 002c 41F8083F 		str	r3, [r1, #8]!
 653:Middlewares/ST/STM32_USB_Device_Library/Core/Src/usbd_ctlreq.c ****       break;
 881              		.loc 1 653 7 is_stmt 1 view .LVU261
 882 0030 0122     		movs	r2, #1
 883 0032 FFF7FEFF 		bl	USBD_CtlSendData
 884              	.LVL101:
 654:Middlewares/ST/STM32_USB_Device_Library/Core/Src/usbd_ctlreq.c **** 
 885              		.loc 1 654 7 view .LVU262
 886 0036 F6E7     		b	.L65
 887              	.LVL102:
 888              	.L68:
 661:Middlewares/ST/STM32_USB_Device_Library/Core/Src/usbd_ctlreq.c ****       break;
 889              		.loc 1 661 7 view .LVU263
 890 0038 FFF7FEFF 		bl	USBD_CtlError
 891              	.LVL103:
 662:Middlewares/ST/STM32_USB_Device_Library/Core/Src/usbd_ctlreq.c ****     }
 892              		.loc 1 662 7 view .LVU264
 665:Middlewares/ST/STM32_USB_Device_Library/Core/Src/usbd_ctlreq.c **** 
 893              		.loc 1 665 1 is_stmt 0 view .LVU265
 894 003c F3E7     		b	.L65
 895              		.cfi_endproc
 896              	.LFE139:
 898              		.section	.text.USBD_GetStatus,"ax",%progbits
 899              		.align	1
 900              		.syntax unified
 901              		.thumb
 902              		.thumb_func
 903              		.fpu fpv4-sp-d16
 905              	USBD_GetStatus:
 906              	.LVL104:
 907              	.LFB140:
 675:Middlewares/ST/STM32_USB_Device_Library/Core/Src/usbd_ctlreq.c ****   switch (pdev->dev_state)
 908              		.loc 1 675 1 is_stmt 1 view -0
 909              		.cfi_startproc
 910              		@ args = 0, pretend = 0, frame = 0
 911              		@ frame_needed = 0, uses_anonymous_args = 0
 675:Middlewares/ST/STM32_USB_Device_Library/Core/Src/usbd_ctlreq.c ****   switch (pdev->dev_state)
 912              		.loc 1 675 1 is_stmt 0 view .LVU267
 913 0000 08B5     		push	{r3, lr}
 914              	.LCFI9:
 915              		.cfi_def_cfa_offset 8
 916              		.cfi_offset 3, -8
 917              		.cfi_offset 14, -4
 676:Middlewares/ST/STM32_USB_Device_Library/Core/Src/usbd_ctlreq.c ****   {
 918              		.loc 1 676 3 is_stmt 1 view .LVU268
 676:Middlewares/ST/STM32_USB_Device_Library/Core/Src/usbd_ctlreq.c ****   {
 919              		.loc 1 676 15 is_stmt 0 view .LVU269
 920 0002 90F87432 		ldrb	r3, [r0, #628]	@ zero_extendqisi2
 676:Middlewares/ST/STM32_USB_Device_Library/Core/Src/usbd_ctlreq.c ****   {
 921              		.loc 1 676 3 view .LVU270
 922 0006 013B     		subs	r3, r3, #1
ARM GAS  /tmp/ccT1bBgQ.s 			page 36


 923 0008 022B     		cmp	r3, #2
 924 000a 12D8     		bhi	.L74
 681:Middlewares/ST/STM32_USB_Device_Library/Core/Src/usbd_ctlreq.c ****     {
 925              		.loc 1 681 5 is_stmt 1 view .LVU271
 681:Middlewares/ST/STM32_USB_Device_Library/Core/Src/usbd_ctlreq.c ****     {
 926              		.loc 1 681 11 is_stmt 0 view .LVU272
 927 000c CB88     		ldrh	r3, [r1, #6]
 681:Middlewares/ST/STM32_USB_Device_Library/Core/Src/usbd_ctlreq.c ****     {
 928              		.loc 1 681 7 view .LVU273
 929 000e 022B     		cmp	r3, #2
 930 0010 0CD1     		bne	.L79
 688:Middlewares/ST/STM32_USB_Device_Library/Core/Src/usbd_ctlreq.c **** #else
 931              		.loc 1 688 5 is_stmt 1 view .LVU274
 688:Middlewares/ST/STM32_USB_Device_Library/Core/Src/usbd_ctlreq.c **** #else
 932              		.loc 1 688 29 is_stmt 0 view .LVU275
 933 0012 0123     		movs	r3, #1
 934 0014 C360     		str	r3, [r0, #12]
 693:Middlewares/ST/STM32_USB_Device_Library/Core/Src/usbd_ctlreq.c ****     {
 935              		.loc 1 693 5 is_stmt 1 view .LVU276
 693:Middlewares/ST/STM32_USB_Device_Library/Core/Src/usbd_ctlreq.c ****     {
 936              		.loc 1 693 13 is_stmt 0 view .LVU277
 937 0016 D0F87C32 		ldr	r3, [r0, #636]
 693:Middlewares/ST/STM32_USB_Device_Library/Core/Src/usbd_ctlreq.c ****     {
 938              		.loc 1 693 8 view .LVU278
 939 001a 0BB1     		cbz	r3, .L77
 695:Middlewares/ST/STM32_USB_Device_Library/Core/Src/usbd_ctlreq.c ****     }
 940              		.loc 1 695 7 is_stmt 1 view .LVU279
 695:Middlewares/ST/STM32_USB_Device_Library/Core/Src/usbd_ctlreq.c ****     }
 941              		.loc 1 695 31 is_stmt 0 view .LVU280
 942 001c 0323     		movs	r3, #3
 943 001e C360     		str	r3, [r0, #12]
 944              	.L77:
 698:Middlewares/ST/STM32_USB_Device_Library/Core/Src/usbd_ctlreq.c ****     break;
 945              		.loc 1 698 5 is_stmt 1 view .LVU281
 946 0020 0222     		movs	r2, #2
 947 0022 00F10C01 		add	r1, r0, #12
 948              	.LVL105:
 698:Middlewares/ST/STM32_USB_Device_Library/Core/Src/usbd_ctlreq.c ****     break;
 949              		.loc 1 698 5 is_stmt 0 view .LVU282
 950 0026 FFF7FEFF 		bl	USBD_CtlSendData
 951              	.LVL106:
 699:Middlewares/ST/STM32_USB_Device_Library/Core/Src/usbd_ctlreq.c **** 
 952              		.loc 1 699 5 is_stmt 1 view .LVU283
 953              	.L73:
 705:Middlewares/ST/STM32_USB_Device_Library/Core/Src/usbd_ctlreq.c **** 
 954              		.loc 1 705 1 is_stmt 0 view .LVU284
 955 002a 08BD     		pop	{r3, pc}
 956              	.LVL107:
 957              	.L79:
 683:Middlewares/ST/STM32_USB_Device_Library/Core/Src/usbd_ctlreq.c ****       break;
 958              		.loc 1 683 7 is_stmt 1 view .LVU285
 959 002c FFF7FEFF 		bl	USBD_CtlError
 960              	.LVL108:
 684:Middlewares/ST/STM32_USB_Device_Library/Core/Src/usbd_ctlreq.c ****     }
 961              		.loc 1 684 7 view .LVU286
 962 0030 FBE7     		b	.L73
 963              	.LVL109:
ARM GAS  /tmp/ccT1bBgQ.s 			page 37


 964              	.L74:
 702:Middlewares/ST/STM32_USB_Device_Library/Core/Src/usbd_ctlreq.c ****     break;
 965              		.loc 1 702 5 view .LVU287
 966 0032 FFF7FEFF 		bl	USBD_CtlError
 967              	.LVL110:
 703:Middlewares/ST/STM32_USB_Device_Library/Core/Src/usbd_ctlreq.c ****   }
 968              		.loc 1 703 5 view .LVU288
 705:Middlewares/ST/STM32_USB_Device_Library/Core/Src/usbd_ctlreq.c **** 
 969              		.loc 1 705 1 is_stmt 0 view .LVU289
 970 0036 F8E7     		b	.L73
 971              		.cfi_endproc
 972              	.LFE140:
 974              		.section	.text.USBD_ClrFeature,"ax",%progbits
 975              		.align	1
 976              		.syntax unified
 977              		.thumb
 978              		.thumb_func
 979              		.fpu fpv4-sp-d16
 981              	USBD_ClrFeature:
 982              	.LVL111:
 983              	.LFB142:
 737:Middlewares/ST/STM32_USB_Device_Library/Core/Src/usbd_ctlreq.c ****   switch (pdev->dev_state)
 984              		.loc 1 737 1 is_stmt 1 view -0
 985              		.cfi_startproc
 986              		@ args = 0, pretend = 0, frame = 0
 987              		@ frame_needed = 0, uses_anonymous_args = 0
 737:Middlewares/ST/STM32_USB_Device_Library/Core/Src/usbd_ctlreq.c ****   switch (pdev->dev_state)
 988              		.loc 1 737 1 is_stmt 0 view .LVU291
 989 0000 08B5     		push	{r3, lr}
 990              	.LCFI10:
 991              		.cfi_def_cfa_offset 8
 992              		.cfi_offset 3, -8
 993              		.cfi_offset 14, -4
 738:Middlewares/ST/STM32_USB_Device_Library/Core/Src/usbd_ctlreq.c ****   {
 994              		.loc 1 738 3 is_stmt 1 view .LVU292
 738:Middlewares/ST/STM32_USB_Device_Library/Core/Src/usbd_ctlreq.c ****   {
 995              		.loc 1 738 15 is_stmt 0 view .LVU293
 996 0002 90F87432 		ldrb	r3, [r0, #628]	@ zero_extendqisi2
 738:Middlewares/ST/STM32_USB_Device_Library/Core/Src/usbd_ctlreq.c ****   {
 997              		.loc 1 738 3 view .LVU294
 998 0006 013B     		subs	r3, r3, #1
 999 0008 022B     		cmp	r3, #2
 1000 000a 09D8     		bhi	.L81
 743:Middlewares/ST/STM32_USB_Device_Library/Core/Src/usbd_ctlreq.c ****     {
 1001              		.loc 1 743 5 is_stmt 1 view .LVU295
 743:Middlewares/ST/STM32_USB_Device_Library/Core/Src/usbd_ctlreq.c ****     {
 1002              		.loc 1 743 12 is_stmt 0 view .LVU296
 1003 000c 4B88     		ldrh	r3, [r1, #2]
 743:Middlewares/ST/STM32_USB_Device_Library/Core/Src/usbd_ctlreq.c ****     {
 1004              		.loc 1 743 8 view .LVU297
 1005 000e 012B     		cmp	r3, #1
 1006 0010 00D0     		beq	.L84
 1007              	.LVL112:
 1008              	.L80:
 754:Middlewares/ST/STM32_USB_Device_Library/Core/Src/usbd_ctlreq.c **** 
 1009              		.loc 1 754 1 view .LVU298
 1010 0012 08BD     		pop	{r3, pc}
ARM GAS  /tmp/ccT1bBgQ.s 			page 38


 1011              	.LVL113:
 1012              	.L84:
 745:Middlewares/ST/STM32_USB_Device_Library/Core/Src/usbd_ctlreq.c ****       USBD_CtlSendStatus(pdev);
 1013              		.loc 1 745 7 is_stmt 1 view .LVU299
 745:Middlewares/ST/STM32_USB_Device_Library/Core/Src/usbd_ctlreq.c ****       USBD_CtlSendStatus(pdev);
 1014              		.loc 1 745 31 is_stmt 0 view .LVU300
 1015 0014 0023     		movs	r3, #0
 1016 0016 C0F87C32 		str	r3, [r0, #636]
 746:Middlewares/ST/STM32_USB_Device_Library/Core/Src/usbd_ctlreq.c ****     }
 1017              		.loc 1 746 7 is_stmt 1 view .LVU301
 1018 001a FFF7FEFF 		bl	USBD_CtlSendStatus
 1019              	.LVL114:
 746:Middlewares/ST/STM32_USB_Device_Library/Core/Src/usbd_ctlreq.c ****     }
 1020              		.loc 1 746 7 is_stmt 0 view .LVU302
 1021 001e F8E7     		b	.L80
 1022              	.LVL115:
 1023              	.L81:
 751:Middlewares/ST/STM32_USB_Device_Library/Core/Src/usbd_ctlreq.c ****     break;
 1024              		.loc 1 751 6 is_stmt 1 view .LVU303
 1025 0020 FFF7FEFF 		bl	USBD_CtlError
 1026              	.LVL116:
 752:Middlewares/ST/STM32_USB_Device_Library/Core/Src/usbd_ctlreq.c ****   }
 1027              		.loc 1 752 5 view .LVU304
 754:Middlewares/ST/STM32_USB_Device_Library/Core/Src/usbd_ctlreq.c **** 
 1028              		.loc 1 754 1 is_stmt 0 view .LVU305
 1029 0024 F5E7     		b	.L80
 1030              		.cfi_endproc
 1031              	.LFE142:
 1033              		.section	.text.USBD_StdDevReq,"ax",%progbits
 1034              		.align	1
 1035              		.global	USBD_StdDevReq
 1036              		.syntax unified
 1037              		.thumb
 1038              		.thumb_func
 1039              		.fpu fpv4-sp-d16
 1041              	USBD_StdDevReq:
 1042              	.LVL117:
 1043              	.LFB133:
 112:Middlewares/ST/STM32_USB_Device_Library/Core/Src/usbd_ctlreq.c ****   USBD_StatusTypeDef ret = USBD_OK;
 1044              		.loc 1 112 1 is_stmt 1 view -0
 1045              		.cfi_startproc
 1046              		@ args = 0, pretend = 0, frame = 0
 1047              		@ frame_needed = 0, uses_anonymous_args = 0
 112:Middlewares/ST/STM32_USB_Device_Library/Core/Src/usbd_ctlreq.c ****   USBD_StatusTypeDef ret = USBD_OK;
 1048              		.loc 1 112 1 is_stmt 0 view .LVU307
 1049 0000 08B5     		push	{r3, lr}
 1050              	.LCFI11:
 1051              		.cfi_def_cfa_offset 8
 1052              		.cfi_offset 3, -8
 1053              		.cfi_offset 14, -4
 113:Middlewares/ST/STM32_USB_Device_Library/Core/Src/usbd_ctlreq.c **** 
 1054              		.loc 1 113 3 is_stmt 1 view .LVU308
 1055              	.LVL118:
 115:Middlewares/ST/STM32_USB_Device_Library/Core/Src/usbd_ctlreq.c ****   {
 1056              		.loc 1 115 3 view .LVU309
 115:Middlewares/ST/STM32_USB_Device_Library/Core/Src/usbd_ctlreq.c ****   {
 1057              		.loc 1 115 14 is_stmt 0 view .LVU310
ARM GAS  /tmp/ccT1bBgQ.s 			page 39


 1058 0002 0B78     		ldrb	r3, [r1]	@ zero_extendqisi2
 1059 0004 03F06003 		and	r3, r3, #96
 115:Middlewares/ST/STM32_USB_Device_Library/Core/Src/usbd_ctlreq.c ****   {
 1060              		.loc 1 115 3 view .LVU311
 1061 0008 202B     		cmp	r3, #32
 1062 000a 05D0     		beq	.L86
 1063 000c 402B     		cmp	r3, #64
 1064 000e 03D0     		beq	.L86
 1065 0010 43B1     		cbz	r3, .L101
 163:Middlewares/ST/STM32_USB_Device_Library/Core/Src/usbd_ctlreq.c ****     break;
 1066              		.loc 1 163 5 is_stmt 1 view .LVU312
 1067 0012 FFF7FEFF 		bl	USBD_CtlError
 1068              	.LVL119:
 164:Middlewares/ST/STM32_USB_Device_Library/Core/Src/usbd_ctlreq.c ****   }
 1069              		.loc 1 164 5 view .LVU313
 1070 0016 03E0     		b	.L89
 1071              	.LVL120:
 1072              	.L86:
 119:Middlewares/ST/STM32_USB_Device_Library/Core/Src/usbd_ctlreq.c ****     break;
 1073              		.loc 1 119 5 view .LVU314
 119:Middlewares/ST/STM32_USB_Device_Library/Core/Src/usbd_ctlreq.c ****     break;
 1074              		.loc 1 119 9 is_stmt 0 view .LVU315
 1075 0018 D0F88C32 		ldr	r3, [r0, #652]
 119:Middlewares/ST/STM32_USB_Device_Library/Core/Src/usbd_ctlreq.c ****     break;
 1076              		.loc 1 119 17 view .LVU316
 1077 001c 9B68     		ldr	r3, [r3, #8]
 119:Middlewares/ST/STM32_USB_Device_Library/Core/Src/usbd_ctlreq.c ****     break;
 1078              		.loc 1 119 5 view .LVU317
 1079 001e 9847     		blx	r3
 1080              	.LVL121:
 120:Middlewares/ST/STM32_USB_Device_Library/Core/Src/usbd_ctlreq.c **** 
 1081              		.loc 1 120 5 is_stmt 1 view .LVU318
 1082              	.L89:
 167:Middlewares/ST/STM32_USB_Device_Library/Core/Src/usbd_ctlreq.c **** }
 1083              		.loc 1 167 3 view .LVU319
 168:Middlewares/ST/STM32_USB_Device_Library/Core/Src/usbd_ctlreq.c **** 
 1084              		.loc 1 168 1 is_stmt 0 view .LVU320
 1085 0020 0020     		movs	r0, #0
 1086 0022 08BD     		pop	{r3, pc}
 1087              	.LVL122:
 1088              	.L101:
 124:Middlewares/ST/STM32_USB_Device_Library/Core/Src/usbd_ctlreq.c ****     {
 1089              		.loc 1 124 5 is_stmt 1 view .LVU321
 124:Middlewares/ST/STM32_USB_Device_Library/Core/Src/usbd_ctlreq.c ****     {
 1090              		.loc 1 124 16 is_stmt 0 view .LVU322
 1091 0024 4B78     		ldrb	r3, [r1, #1]	@ zero_extendqisi2
 1092 0026 092B     		cmp	r3, #9
 1093 0028 1BD8     		bhi	.L90
 1094 002a DFE803F0 		tbb	[pc, r3]
 1095              	.L92:
 1096 002e 11       		.byte	(.L98-.L92)/2
 1097 002f 17       		.byte	(.L97-.L92)/2
 1098 0030 1A       		.byte	(.L90-.L92)/2
 1099 0031 14       		.byte	(.L96-.L92)/2
 1100 0032 1A       		.byte	(.L90-.L92)/2
 1101 0033 08       		.byte	(.L95-.L92)/2
 1102 0034 05       		.byte	(.L94-.L92)/2
ARM GAS  /tmp/ccT1bBgQ.s 			page 40


 1103 0035 1A       		.byte	(.L90-.L92)/2
 1104 0036 0E       		.byte	(.L93-.L92)/2
 1105 0037 0B       		.byte	(.L91-.L92)/2
 1106              		.p2align 1
 1107              	.L94:
 128:Middlewares/ST/STM32_USB_Device_Library/Core/Src/usbd_ctlreq.c ****       break;
 1108              		.loc 1 128 7 is_stmt 1 view .LVU323
 1109 0038 FFF7FEFF 		bl	USBD_GetDescriptor
 1110              	.LVL123:
 129:Middlewares/ST/STM32_USB_Device_Library/Core/Src/usbd_ctlreq.c **** 
 1111              		.loc 1 129 7 view .LVU324
 1112 003c F0E7     		b	.L89
 1113              	.LVL124:
 1114              	.L95:
 132:Middlewares/ST/STM32_USB_Device_Library/Core/Src/usbd_ctlreq.c ****       break;
 1115              		.loc 1 132 7 view .LVU325
 1116 003e FFF7FEFF 		bl	USBD_SetAddress
 1117              	.LVL125:
 133:Middlewares/ST/STM32_USB_Device_Library/Core/Src/usbd_ctlreq.c **** 
 1118              		.loc 1 133 7 view .LVU326
 1119 0042 EDE7     		b	.L89
 1120              	.LVL126:
 1121              	.L91:
 136:Middlewares/ST/STM32_USB_Device_Library/Core/Src/usbd_ctlreq.c ****       break;
 1122              		.loc 1 136 7 view .LVU327
 1123 0044 FFF7FEFF 		bl	USBD_SetConfig
 1124              	.LVL127:
 137:Middlewares/ST/STM32_USB_Device_Library/Core/Src/usbd_ctlreq.c **** 
 1125              		.loc 1 137 7 view .LVU328
 1126 0048 EAE7     		b	.L89
 1127              	.LVL128:
 1128              	.L93:
 140:Middlewares/ST/STM32_USB_Device_Library/Core/Src/usbd_ctlreq.c ****       break;
 1129              		.loc 1 140 7 view .LVU329
 1130 004a FFF7FEFF 		bl	USBD_GetConfig
 1131              	.LVL129:
 141:Middlewares/ST/STM32_USB_Device_Library/Core/Src/usbd_ctlreq.c **** 
 1132              		.loc 1 141 7 view .LVU330
 1133 004e E7E7     		b	.L89
 1134              	.LVL130:
 1135              	.L98:
 144:Middlewares/ST/STM32_USB_Device_Library/Core/Src/usbd_ctlreq.c ****       break;
 1136              		.loc 1 144 7 view .LVU331
 1137 0050 FFF7FEFF 		bl	USBD_GetStatus
 1138              	.LVL131:
 145:Middlewares/ST/STM32_USB_Device_Library/Core/Src/usbd_ctlreq.c **** 
 1139              		.loc 1 145 7 view .LVU332
 1140 0054 E4E7     		b	.L89
 1141              	.LVL132:
 1142              	.L96:
 149:Middlewares/ST/STM32_USB_Device_Library/Core/Src/usbd_ctlreq.c ****       break;
 1143              		.loc 1 149 7 view .LVU333
 1144 0056 FFF7FEFF 		bl	USBD_SetFeature
 1145              	.LVL133:
 150:Middlewares/ST/STM32_USB_Device_Library/Core/Src/usbd_ctlreq.c **** 
 1146              		.loc 1 150 7 view .LVU334
 1147 005a E1E7     		b	.L89
ARM GAS  /tmp/ccT1bBgQ.s 			page 41


 1148              	.LVL134:
 1149              	.L97:
 153:Middlewares/ST/STM32_USB_Device_Library/Core/Src/usbd_ctlreq.c ****       break;
 1150              		.loc 1 153 7 view .LVU335
 1151 005c FFF7FEFF 		bl	USBD_ClrFeature
 1152              	.LVL135:
 154:Middlewares/ST/STM32_USB_Device_Library/Core/Src/usbd_ctlreq.c **** 
 1153              		.loc 1 154 7 view .LVU336
 1154 0060 DEE7     		b	.L89
 1155              	.LVL136:
 1156              	.L90:
 157:Middlewares/ST/STM32_USB_Device_Library/Core/Src/usbd_ctlreq.c ****       break;
 1157              		.loc 1 157 7 view .LVU337
 1158 0062 FFF7FEFF 		bl	USBD_CtlError
 1159              	.LVL137:
 158:Middlewares/ST/STM32_USB_Device_Library/Core/Src/usbd_ctlreq.c ****     }
 1160              		.loc 1 158 7 view .LVU338
 1161 0066 DBE7     		b	.L89
 1162              		.cfi_endproc
 1163              	.LFE133:
 1165              		.section	.text.USBD_StdItfReq,"ax",%progbits
 1166              		.align	1
 1167              		.global	USBD_StdItfReq
 1168              		.syntax unified
 1169              		.thumb
 1170              		.thumb_func
 1171              		.fpu fpv4-sp-d16
 1173              	USBD_StdItfReq:
 1174              	.LVL138:
 1175              	.LFB134:
 178:Middlewares/ST/STM32_USB_Device_Library/Core/Src/usbd_ctlreq.c ****   USBD_StatusTypeDef ret = USBD_OK;
 1176              		.loc 1 178 1 view -0
 1177              		.cfi_startproc
 1178              		@ args = 0, pretend = 0, frame = 0
 1179              		@ frame_needed = 0, uses_anonymous_args = 0
 178:Middlewares/ST/STM32_USB_Device_Library/Core/Src/usbd_ctlreq.c ****   USBD_StatusTypeDef ret = USBD_OK;
 1180              		.loc 1 178 1 is_stmt 0 view .LVU340
 1181 0000 38B5     		push	{r3, r4, r5, lr}
 1182              	.LCFI12:
 1183              		.cfi_def_cfa_offset 16
 1184              		.cfi_offset 3, -16
 1185              		.cfi_offset 4, -12
 1186              		.cfi_offset 5, -8
 1187              		.cfi_offset 14, -4
 1188 0002 0546     		mov	r5, r0
 1189 0004 0C46     		mov	r4, r1
 179:Middlewares/ST/STM32_USB_Device_Library/Core/Src/usbd_ctlreq.c **** 
 1190              		.loc 1 179 3 is_stmt 1 view .LVU341
 1191              	.LVL139:
 181:Middlewares/ST/STM32_USB_Device_Library/Core/Src/usbd_ctlreq.c ****   {
 1192              		.loc 1 181 3 view .LVU342
 181:Middlewares/ST/STM32_USB_Device_Library/Core/Src/usbd_ctlreq.c ****   {
 1193              		.loc 1 181 14 is_stmt 0 view .LVU343
 1194 0006 0B78     		ldrb	r3, [r1]	@ zero_extendqisi2
 1195 0008 03F06003 		and	r3, r3, #96
 181:Middlewares/ST/STM32_USB_Device_Library/Core/Src/usbd_ctlreq.c ****   {
 1196              		.loc 1 181 3 view .LVU344
ARM GAS  /tmp/ccT1bBgQ.s 			page 42


 1197 000c 202B     		cmp	r3, #32
 1198 000e 06D0     		beq	.L103
 1199 0010 402B     		cmp	r3, #64
 1200 0012 04D0     		beq	.L103
 1201 0014 1BB1     		cbz	r3, .L103
 214:Middlewares/ST/STM32_USB_Device_Library/Core/Src/usbd_ctlreq.c ****     break;
 1202              		.loc 1 214 5 is_stmt 1 view .LVU345
 1203 0016 FFF7FEFF 		bl	USBD_CtlError
 1204              	.LVL140:
 215:Middlewares/ST/STM32_USB_Device_Library/Core/Src/usbd_ctlreq.c ****   }
 1205              		.loc 1 215 5 view .LVU346
 1206              	.L107:
 218:Middlewares/ST/STM32_USB_Device_Library/Core/Src/usbd_ctlreq.c **** }
 1207              		.loc 1 218 3 view .LVU347
 219:Middlewares/ST/STM32_USB_Device_Library/Core/Src/usbd_ctlreq.c **** 
 1208              		.loc 1 219 1 is_stmt 0 view .LVU348
 1209 001a 0020     		movs	r0, #0
 1210 001c 38BD     		pop	{r3, r4, r5, pc}
 1211              	.LVL141:
 1212              	.L103:
 186:Middlewares/ST/STM32_USB_Device_Library/Core/Src/usbd_ctlreq.c ****     {
 1213              		.loc 1 186 5 is_stmt 1 view .LVU349
 186:Middlewares/ST/STM32_USB_Device_Library/Core/Src/usbd_ctlreq.c ****     {
 1214              		.loc 1 186 17 is_stmt 0 view .LVU350
 1215 001e 95F87432 		ldrb	r3, [r5, #628]	@ zero_extendqisi2
 1216 0022 013B     		subs	r3, r3, #1
 1217 0024 022B     		cmp	r3, #2
 1218 0026 16D8     		bhi	.L105
 192:Middlewares/ST/STM32_USB_Device_Library/Core/Src/usbd_ctlreq.c ****       {
 1219              		.loc 1 192 7 is_stmt 1 view .LVU351
 192:Middlewares/ST/STM32_USB_Device_Library/Core/Src/usbd_ctlreq.c ****       {
 1220              		.loc 1 192 11 is_stmt 0 view .LVU352
 1221 0028 2379     		ldrb	r3, [r4, #4]	@ zero_extendqisi2
 192:Middlewares/ST/STM32_USB_Device_Library/Core/Src/usbd_ctlreq.c ****       {
 1222              		.loc 1 192 10 view .LVU353
 1223 002a 012B     		cmp	r3, #1
 1224 002c 0ED8     		bhi	.L106
 194:Middlewares/ST/STM32_USB_Device_Library/Core/Src/usbd_ctlreq.c **** 
 1225              		.loc 1 194 9 is_stmt 1 view .LVU354
 194:Middlewares/ST/STM32_USB_Device_Library/Core/Src/usbd_ctlreq.c **** 
 1226              		.loc 1 194 39 is_stmt 0 view .LVU355
 1227 002e D5F88C32 		ldr	r3, [r5, #652]
 194:Middlewares/ST/STM32_USB_Device_Library/Core/Src/usbd_ctlreq.c **** 
 1228              		.loc 1 194 47 view .LVU356
 1229 0032 9B68     		ldr	r3, [r3, #8]
 194:Middlewares/ST/STM32_USB_Device_Library/Core/Src/usbd_ctlreq.c **** 
 1230              		.loc 1 194 35 view .LVU357
 1231 0034 2146     		mov	r1, r4
 1232              	.LVL142:
 194:Middlewares/ST/STM32_USB_Device_Library/Core/Src/usbd_ctlreq.c **** 
 1233              		.loc 1 194 35 view .LVU358
 1234 0036 2846     		mov	r0, r5
 1235              	.LVL143:
 194:Middlewares/ST/STM32_USB_Device_Library/Core/Src/usbd_ctlreq.c **** 
 1236              		.loc 1 194 35 view .LVU359
 1237 0038 9847     		blx	r3
 1238              	.LVL144:
ARM GAS  /tmp/ccT1bBgQ.s 			page 43


 196:Middlewares/ST/STM32_USB_Device_Library/Core/Src/usbd_ctlreq.c ****         {
 1239              		.loc 1 196 9 is_stmt 1 view .LVU360
 196:Middlewares/ST/STM32_USB_Device_Library/Core/Src/usbd_ctlreq.c ****         {
 1240              		.loc 1 196 17 is_stmt 0 view .LVU361
 1241 003a E388     		ldrh	r3, [r4, #6]
 196:Middlewares/ST/STM32_USB_Device_Library/Core/Src/usbd_ctlreq.c ****         {
 1242              		.loc 1 196 12 view .LVU362
 1243 003c 002B     		cmp	r3, #0
 1244 003e ECD1     		bne	.L107
 196:Middlewares/ST/STM32_USB_Device_Library/Core/Src/usbd_ctlreq.c ****         {
 1245              		.loc 1 196 34 discriminator 1 view .LVU363
 1246 0040 0028     		cmp	r0, #0
 1247 0042 EAD1     		bne	.L107
 198:Middlewares/ST/STM32_USB_Device_Library/Core/Src/usbd_ctlreq.c ****         }
 1248              		.loc 1 198 11 is_stmt 1 view .LVU364
 1249 0044 2846     		mov	r0, r5
 1250              	.LVL145:
 198:Middlewares/ST/STM32_USB_Device_Library/Core/Src/usbd_ctlreq.c ****         }
 1251              		.loc 1 198 11 is_stmt 0 view .LVU365
 1252 0046 FFF7FEFF 		bl	USBD_CtlSendStatus
 1253              	.LVL146:
 1254 004a E6E7     		b	.L107
 1255              	.LVL147:
 1256              	.L106:
 203:Middlewares/ST/STM32_USB_Device_Library/Core/Src/usbd_ctlreq.c ****       }
 1257              		.loc 1 203 9 is_stmt 1 view .LVU366
 1258 004c 2146     		mov	r1, r4
 1259              	.LVL148:
 203:Middlewares/ST/STM32_USB_Device_Library/Core/Src/usbd_ctlreq.c ****       }
 1260              		.loc 1 203 9 is_stmt 0 view .LVU367
 1261 004e 2846     		mov	r0, r5
 1262              	.LVL149:
 203:Middlewares/ST/STM32_USB_Device_Library/Core/Src/usbd_ctlreq.c ****       }
 1263              		.loc 1 203 9 view .LVU368
 1264 0050 FFF7FEFF 		bl	USBD_CtlError
 1265              	.LVL150:
 1266 0054 E1E7     		b	.L107
 1267              	.LVL151:
 1268              	.L105:
 208:Middlewares/ST/STM32_USB_Device_Library/Core/Src/usbd_ctlreq.c ****       break;
 1269              		.loc 1 208 7 is_stmt 1 view .LVU369
 1270 0056 2146     		mov	r1, r4
 1271              	.LVL152:
 208:Middlewares/ST/STM32_USB_Device_Library/Core/Src/usbd_ctlreq.c ****       break;
 1272              		.loc 1 208 7 is_stmt 0 view .LVU370
 1273 0058 2846     		mov	r0, r5
 1274              	.LVL153:
 208:Middlewares/ST/STM32_USB_Device_Library/Core/Src/usbd_ctlreq.c ****       break;
 1275              		.loc 1 208 7 view .LVU371
 1276 005a FFF7FEFF 		bl	USBD_CtlError
 1277              	.LVL154:
 209:Middlewares/ST/STM32_USB_Device_Library/Core/Src/usbd_ctlreq.c ****     }
 1278              		.loc 1 209 7 is_stmt 1 view .LVU372
 1279 005e DCE7     		b	.L107
 1280              		.cfi_endproc
 1281              	.LFE134:
 1283              		.section	.text.USBD_StdEPReq,"ax",%progbits
ARM GAS  /tmp/ccT1bBgQ.s 			page 44


 1284              		.align	1
 1285              		.global	USBD_StdEPReq
 1286              		.syntax unified
 1287              		.thumb
 1288              		.thumb_func
 1289              		.fpu fpv4-sp-d16
 1291              	USBD_StdEPReq:
 1292              	.LVL155:
 1293              	.LFB135:
 229:Middlewares/ST/STM32_USB_Device_Library/Core/Src/usbd_ctlreq.c **** 
 1294              		.loc 1 229 1 view -0
 1295              		.cfi_startproc
 1296              		@ args = 0, pretend = 0, frame = 0
 1297              		@ frame_needed = 0, uses_anonymous_args = 0
 229:Middlewares/ST/STM32_USB_Device_Library/Core/Src/usbd_ctlreq.c **** 
 1298              		.loc 1 229 1 is_stmt 0 view .LVU374
 1299 0000 38B5     		push	{r3, r4, r5, lr}
 1300              	.LCFI13:
 1301              		.cfi_def_cfa_offset 16
 1302              		.cfi_offset 3, -16
 1303              		.cfi_offset 4, -12
 1304              		.cfi_offset 5, -8
 1305              		.cfi_offset 14, -4
 1306 0002 0446     		mov	r4, r0
 231:Middlewares/ST/STM32_USB_Device_Library/Core/Src/usbd_ctlreq.c ****   USBD_StatusTypeDef ret = USBD_OK;
 1307              		.loc 1 231 3 is_stmt 1 view .LVU375
 232:Middlewares/ST/STM32_USB_Device_Library/Core/Src/usbd_ctlreq.c ****   USBD_EndpointTypeDef   *pep;
 1308              		.loc 1 232 3 view .LVU376
 1309              	.LVL156:
 233:Middlewares/ST/STM32_USB_Device_Library/Core/Src/usbd_ctlreq.c ****   ep_addr  = LOBYTE(req->wIndex);
 1310              		.loc 1 233 3 view .LVU377
 234:Middlewares/ST/STM32_USB_Device_Library/Core/Src/usbd_ctlreq.c **** 
 1311              		.loc 1 234 3 view .LVU378
 234:Middlewares/ST/STM32_USB_Device_Library/Core/Src/usbd_ctlreq.c **** 
 1312              		.loc 1 234 14 is_stmt 0 view .LVU379
 1313 0004 8A88     		ldrh	r2, [r1, #4]
 1314              	.LVL157:
 236:Middlewares/ST/STM32_USB_Device_Library/Core/Src/usbd_ctlreq.c ****   {
 1315              		.loc 1 236 3 is_stmt 1 view .LVU380
 236:Middlewares/ST/STM32_USB_Device_Library/Core/Src/usbd_ctlreq.c ****   {
 1316              		.loc 1 236 14 is_stmt 0 view .LVU381
 1317 0006 0B78     		ldrb	r3, [r1]	@ zero_extendqisi2
 1318 0008 03F06003 		and	r3, r3, #96
 236:Middlewares/ST/STM32_USB_Device_Library/Core/Src/usbd_ctlreq.c ****   {
 1319              		.loc 1 236 3 view .LVU382
 1320 000c 202B     		cmp	r3, #32
 1321 000e 08D0     		beq	.L110
 1322 0010 D0B2     		uxtb	r0, r2
 1323              	.LVL158:
 236:Middlewares/ST/STM32_USB_Device_Library/Core/Src/usbd_ctlreq.c ****   {
 1324              		.loc 1 236 3 view .LVU383
 1325 0012 402B     		cmp	r3, #64
 1326 0014 05D0     		beq	.L110
 1327 0016 5BB1     		cbz	r3, .L148
 390:Middlewares/ST/STM32_USB_Device_Library/Core/Src/usbd_ctlreq.c ****     break;
 1328              		.loc 1 390 5 is_stmt 1 view .LVU384
 1329 0018 2046     		mov	r0, r4
ARM GAS  /tmp/ccT1bBgQ.s 			page 45


 1330 001a FFF7FEFF 		bl	USBD_CtlError
 1331              	.LVL159:
 391:Middlewares/ST/STM32_USB_Device_Library/Core/Src/usbd_ctlreq.c ****   }
 1332              		.loc 1 391 5 view .LVU385
 394:Middlewares/ST/STM32_USB_Device_Library/Core/Src/usbd_ctlreq.c **** }
 1333              		.loc 1 394 10 is_stmt 0 view .LVU386
 1334 001e 0020     		movs	r0, #0
 391:Middlewares/ST/STM32_USB_Device_Library/Core/Src/usbd_ctlreq.c ****   }
 1335              		.loc 1 391 5 view .LVU387
 1336 0020 05E0     		b	.L113
 1337              	.LVL160:
 1338              	.L110:
 241:Middlewares/ST/STM32_USB_Device_Library/Core/Src/usbd_ctlreq.c ****     break;
 1339              		.loc 1 241 5 is_stmt 1 view .LVU388
 241:Middlewares/ST/STM32_USB_Device_Library/Core/Src/usbd_ctlreq.c ****     break;
 1340              		.loc 1 241 9 is_stmt 0 view .LVU389
 1341 0022 D4F88C32 		ldr	r3, [r4, #652]
 241:Middlewares/ST/STM32_USB_Device_Library/Core/Src/usbd_ctlreq.c ****     break;
 1342              		.loc 1 241 17 view .LVU390
 1343 0026 9B68     		ldr	r3, [r3, #8]
 241:Middlewares/ST/STM32_USB_Device_Library/Core/Src/usbd_ctlreq.c ****     break;
 1344              		.loc 1 241 5 view .LVU391
 1345 0028 2046     		mov	r0, r4
 1346 002a 9847     		blx	r3
 1347              	.LVL161:
 242:Middlewares/ST/STM32_USB_Device_Library/Core/Src/usbd_ctlreq.c **** 
 1348              		.loc 1 242 5 is_stmt 1 view .LVU392
 394:Middlewares/ST/STM32_USB_Device_Library/Core/Src/usbd_ctlreq.c **** }
 1349              		.loc 1 394 10 is_stmt 0 view .LVU393
 1350 002c 0020     		movs	r0, #0
 1351              	.LVL162:
 1352              	.L113:
 395:Middlewares/ST/STM32_USB_Device_Library/Core/Src/usbd_ctlreq.c **** /**
 1353              		.loc 1 395 1 view .LVU394
 1354 002e 38BD     		pop	{r3, r4, r5, pc}
 1355              	.LVL163:
 1356              	.L148:
 246:Middlewares/ST/STM32_USB_Device_Library/Core/Src/usbd_ctlreq.c ****     {
 1357              		.loc 1 246 5 is_stmt 1 view .LVU395
 246:Middlewares/ST/STM32_USB_Device_Library/Core/Src/usbd_ctlreq.c ****     {
 1358              		.loc 1 246 8 is_stmt 0 view .LVU396
 1359 0030 202B     		cmp	r3, #32
 1360 0032 13D0     		beq	.L149
 253:Middlewares/ST/STM32_USB_Device_Library/Core/Src/usbd_ctlreq.c ****     {
 1361              		.loc 1 253 5 is_stmt 1 view .LVU397
 253:Middlewares/ST/STM32_USB_Device_Library/Core/Src/usbd_ctlreq.c ****     {
 1362              		.loc 1 253 16 is_stmt 0 view .LVU398
 1363 0034 4B78     		ldrb	r3, [r1, #1]	@ zero_extendqisi2
 1364 0036 012B     		cmp	r3, #1
 1365 0038 39D0     		beq	.L115
 1366 003a 5DB2     		sxtb	r5, r3
 1367 003c 002D     		cmp	r5, #0
 1368 003e 64D0     		beq	.L116
 1369 0040 032B     		cmp	r3, #3
 1370 0042 40F0DC80 		bne	.L117
 258:Middlewares/ST/STM32_USB_Device_Library/Core/Src/usbd_ctlreq.c ****       {
 1371              		.loc 1 258 7 is_stmt 1 discriminator 3 view .LVU399
ARM GAS  /tmp/ccT1bBgQ.s 			page 46


 258:Middlewares/ST/STM32_USB_Device_Library/Core/Src/usbd_ctlreq.c ****       {
 1372              		.loc 1 258 19 is_stmt 0 discriminator 3 view .LVU400
 1373 0046 94F87432 		ldrb	r3, [r4, #628]	@ zero_extendqisi2
 1374 004a 022B     		cmp	r3, #2
 1375 004c 0CD0     		beq	.L118
 1376 004e 032B     		cmp	r3, #3
 1377 0050 1CD0     		beq	.L119
 285:Middlewares/ST/STM32_USB_Device_Library/Core/Src/usbd_ctlreq.c ****         break;
 1378              		.loc 1 285 9 is_stmt 1 view .LVU401
 1379 0052 2046     		mov	r0, r4
 1380 0054 FFF7FEFF 		bl	USBD_CtlError
 1381              	.LVL164:
 286:Middlewares/ST/STM32_USB_Device_Library/Core/Src/usbd_ctlreq.c ****       }
 1382              		.loc 1 286 9 view .LVU402
 394:Middlewares/ST/STM32_USB_Device_Library/Core/Src/usbd_ctlreq.c **** }
 1383              		.loc 1 394 10 is_stmt 0 view .LVU403
 1384 0058 0020     		movs	r0, #0
 286:Middlewares/ST/STM32_USB_Device_Library/Core/Src/usbd_ctlreq.c ****       }
 1385              		.loc 1 286 9 view .LVU404
 1386 005a E8E7     		b	.L113
 1387              	.LVL165:
 1388              	.L149:
 248:Middlewares/ST/STM32_USB_Device_Library/Core/Src/usbd_ctlreq.c **** 
 1389              		.loc 1 248 7 is_stmt 1 view .LVU405
 248:Middlewares/ST/STM32_USB_Device_Library/Core/Src/usbd_ctlreq.c **** 
 1390              		.loc 1 248 37 is_stmt 0 view .LVU406
 1391 005c D4F88C32 		ldr	r3, [r4, #652]
 248:Middlewares/ST/STM32_USB_Device_Library/Core/Src/usbd_ctlreq.c **** 
 1392              		.loc 1 248 45 view .LVU407
 1393 0060 9B68     		ldr	r3, [r3, #8]
 248:Middlewares/ST/STM32_USB_Device_Library/Core/Src/usbd_ctlreq.c **** 
 1394              		.loc 1 248 33 view .LVU408
 1395 0062 2046     		mov	r0, r4
 1396 0064 9847     		blx	r3
 1397              	.LVL166:
 250:Middlewares/ST/STM32_USB_Device_Library/Core/Src/usbd_ctlreq.c ****     }
 1398              		.loc 1 250 7 is_stmt 1 view .LVU409
 250:Middlewares/ST/STM32_USB_Device_Library/Core/Src/usbd_ctlreq.c ****     }
 1399              		.loc 1 250 14 is_stmt 0 view .LVU410
 1400 0066 E2E7     		b	.L113
 1401              	.LVL167:
 1402              	.L118:
 261:Middlewares/ST/STM32_USB_Device_Library/Core/Src/usbd_ctlreq.c ****         {
 1403              		.loc 1 261 9 is_stmt 1 view .LVU411
 261:Middlewares/ST/STM32_USB_Device_Library/Core/Src/usbd_ctlreq.c ****         {
 1404              		.loc 1 261 12 is_stmt 0 view .LVU412
 1405 0068 08B1     		cbz	r0, .L121
 261:Middlewares/ST/STM32_USB_Device_Library/Core/Src/usbd_ctlreq.c ****         {
 1406              		.loc 1 261 32 discriminator 1 view .LVU413
 1407 006a 8028     		cmp	r0, #128
 1408 006c 04D1     		bne	.L150
 1409              	.L121:
 268:Middlewares/ST/STM32_USB_Device_Library/Core/Src/usbd_ctlreq.c ****         }
 1410              		.loc 1 268 11 is_stmt 1 view .LVU414
 1411 006e 2046     		mov	r0, r4
 1412 0070 FFF7FEFF 		bl	USBD_CtlError
 1413              	.LVL168:
ARM GAS  /tmp/ccT1bBgQ.s 			page 47


 394:Middlewares/ST/STM32_USB_Device_Library/Core/Src/usbd_ctlreq.c **** }
 1414              		.loc 1 394 10 is_stmt 0 view .LVU415
 1415 0074 0020     		movs	r0, #0
 1416 0076 DAE7     		b	.L113
 1417              	.LVL169:
 1418              	.L150:
 263:Middlewares/ST/STM32_USB_Device_Library/Core/Src/usbd_ctlreq.c ****           USBD_LL_StallEP(pdev, 0x80U);
 1419              		.loc 1 263 11 is_stmt 1 view .LVU416
 1420 0078 0146     		mov	r1, r0
 1421              	.LVL170:
 263:Middlewares/ST/STM32_USB_Device_Library/Core/Src/usbd_ctlreq.c ****           USBD_LL_StallEP(pdev, 0x80U);
 1422              		.loc 1 263 11 is_stmt 0 view .LVU417
 1423 007a 2046     		mov	r0, r4
 1424 007c FFF7FEFF 		bl	USBD_LL_StallEP
 1425              	.LVL171:
 264:Middlewares/ST/STM32_USB_Device_Library/Core/Src/usbd_ctlreq.c ****         }
 1426              		.loc 1 264 11 is_stmt 1 view .LVU418
 1427 0080 8021     		movs	r1, #128
 1428 0082 2046     		mov	r0, r4
 1429 0084 FFF7FEFF 		bl	USBD_LL_StallEP
 1430              	.LVL172:
 394:Middlewares/ST/STM32_USB_Device_Library/Core/Src/usbd_ctlreq.c **** }
 1431              		.loc 1 394 10 is_stmt 0 view .LVU419
 1432 0088 0020     		movs	r0, #0
 264:Middlewares/ST/STM32_USB_Device_Library/Core/Src/usbd_ctlreq.c ****         }
 1433              		.loc 1 264 11 view .LVU420
 1434 008a D0E7     		b	.L113
 1435              	.LVL173:
 1436              	.L119:
 273:Middlewares/ST/STM32_USB_Device_Library/Core/Src/usbd_ctlreq.c ****         {
 1437              		.loc 1 273 9 is_stmt 1 view .LVU421
 273:Middlewares/ST/STM32_USB_Device_Library/Core/Src/usbd_ctlreq.c ****         {
 1438              		.loc 1 273 16 is_stmt 0 view .LVU422
 1439 008c 4B88     		ldrh	r3, [r1, #2]
 273:Middlewares/ST/STM32_USB_Device_Library/Core/Src/usbd_ctlreq.c ****         {
 1440              		.loc 1 273 12 view .LVU423
 1441 008e 23B9     		cbnz	r3, .L122
 275:Middlewares/ST/STM32_USB_Device_Library/Core/Src/usbd_ctlreq.c ****           {
 1442              		.loc 1 275 11 is_stmt 1 view .LVU424
 275:Middlewares/ST/STM32_USB_Device_Library/Core/Src/usbd_ctlreq.c ****           {
 1443              		.loc 1 275 14 is_stmt 0 view .LVU425
 1444 0090 18B1     		cbz	r0, .L122
 275:Middlewares/ST/STM32_USB_Device_Library/Core/Src/usbd_ctlreq.c ****           {
 1445              		.loc 1 275 34 discriminator 1 view .LVU426
 1446 0092 8028     		cmp	r0, #128
 1447 0094 01D0     		beq	.L122
 275:Middlewares/ST/STM32_USB_Device_Library/Core/Src/usbd_ctlreq.c ****           {
 1448              		.loc 1 275 63 discriminator 2 view .LVU427
 1449 0096 CB88     		ldrh	r3, [r1, #6]
 275:Middlewares/ST/STM32_USB_Device_Library/Core/Src/usbd_ctlreq.c ****           {
 1450              		.loc 1 275 56 discriminator 2 view .LVU428
 1451 0098 23B1     		cbz	r3, .L151
 1452              	.LVL174:
 1453              	.L122:
 280:Middlewares/ST/STM32_USB_Device_Library/Core/Src/usbd_ctlreq.c **** 
 1454              		.loc 1 280 9 is_stmt 1 view .LVU429
 1455 009a 2046     		mov	r0, r4
ARM GAS  /tmp/ccT1bBgQ.s 			page 48


 1456 009c FFF7FEFF 		bl	USBD_CtlSendStatus
 1457              	.LVL175:
 282:Middlewares/ST/STM32_USB_Device_Library/Core/Src/usbd_ctlreq.c **** 
 1458              		.loc 1 282 9 view .LVU430
 394:Middlewares/ST/STM32_USB_Device_Library/Core/Src/usbd_ctlreq.c **** }
 1459              		.loc 1 394 10 is_stmt 0 view .LVU431
 1460 00a0 0020     		movs	r0, #0
 282:Middlewares/ST/STM32_USB_Device_Library/Core/Src/usbd_ctlreq.c **** 
 1461              		.loc 1 282 9 view .LVU432
 1462 00a2 C4E7     		b	.L113
 1463              	.LVL176:
 1464              	.L151:
 277:Middlewares/ST/STM32_USB_Device_Library/Core/Src/usbd_ctlreq.c ****           }
 1465              		.loc 1 277 13 is_stmt 1 view .LVU433
 1466 00a4 0146     		mov	r1, r0
 1467              	.LVL177:
 277:Middlewares/ST/STM32_USB_Device_Library/Core/Src/usbd_ctlreq.c ****           }
 1468              		.loc 1 277 13 is_stmt 0 view .LVU434
 1469 00a6 2046     		mov	r0, r4
 1470 00a8 FFF7FEFF 		bl	USBD_LL_StallEP
 1471              	.LVL178:
 277:Middlewares/ST/STM32_USB_Device_Library/Core/Src/usbd_ctlreq.c ****           }
 1472              		.loc 1 277 13 view .LVU435
 1473 00ac F5E7     		b	.L122
 1474              	.LVL179:
 1475              	.L115:
 292:Middlewares/ST/STM32_USB_Device_Library/Core/Src/usbd_ctlreq.c ****       {
 1476              		.loc 1 292 7 is_stmt 1 discriminator 2 view .LVU436
 292:Middlewares/ST/STM32_USB_Device_Library/Core/Src/usbd_ctlreq.c ****       {
 1477              		.loc 1 292 19 is_stmt 0 discriminator 2 view .LVU437
 1478 00ae 94F87432 		ldrb	r3, [r4, #628]	@ zero_extendqisi2
 1479 00b2 022B     		cmp	r3, #2
 1480 00b4 06D0     		beq	.L123
 1481 00b6 032B     		cmp	r3, #3
 1482 00b8 16D0     		beq	.L124
 318:Middlewares/ST/STM32_USB_Device_Library/Core/Src/usbd_ctlreq.c ****         break;
 1483              		.loc 1 318 9 is_stmt 1 view .LVU438
 1484 00ba 2046     		mov	r0, r4
 1485 00bc FFF7FEFF 		bl	USBD_CtlError
 1486              	.LVL180:
 319:Middlewares/ST/STM32_USB_Device_Library/Core/Src/usbd_ctlreq.c ****       }
 1487              		.loc 1 319 9 view .LVU439
 394:Middlewares/ST/STM32_USB_Device_Library/Core/Src/usbd_ctlreq.c **** }
 1488              		.loc 1 394 10 is_stmt 0 view .LVU440
 1489 00c0 0020     		movs	r0, #0
 319:Middlewares/ST/STM32_USB_Device_Library/Core/Src/usbd_ctlreq.c ****       }
 1490              		.loc 1 319 9 view .LVU441
 1491 00c2 B4E7     		b	.L113
 1492              	.LVL181:
 1493              	.L123:
 295:Middlewares/ST/STM32_USB_Device_Library/Core/Src/usbd_ctlreq.c ****         {
 1494              		.loc 1 295 9 is_stmt 1 view .LVU442
 295:Middlewares/ST/STM32_USB_Device_Library/Core/Src/usbd_ctlreq.c ****         {
 1495              		.loc 1 295 12 is_stmt 0 view .LVU443
 1496 00c4 08B1     		cbz	r0, .L126
 295:Middlewares/ST/STM32_USB_Device_Library/Core/Src/usbd_ctlreq.c ****         {
 1497              		.loc 1 295 32 discriminator 1 view .LVU444
ARM GAS  /tmp/ccT1bBgQ.s 			page 49


 1498 00c6 8028     		cmp	r0, #128
 1499 00c8 04D1     		bne	.L152
 1500              	.L126:
 302:Middlewares/ST/STM32_USB_Device_Library/Core/Src/usbd_ctlreq.c ****         }
 1501              		.loc 1 302 11 is_stmt 1 view .LVU445
 1502 00ca 2046     		mov	r0, r4
 1503 00cc FFF7FEFF 		bl	USBD_CtlError
 1504              	.LVL182:
 394:Middlewares/ST/STM32_USB_Device_Library/Core/Src/usbd_ctlreq.c **** }
 1505              		.loc 1 394 10 is_stmt 0 view .LVU446
 1506 00d0 0020     		movs	r0, #0
 1507 00d2 ACE7     		b	.L113
 1508              	.LVL183:
 1509              	.L152:
 297:Middlewares/ST/STM32_USB_Device_Library/Core/Src/usbd_ctlreq.c ****           USBD_LL_StallEP(pdev, 0x80U);
 1510              		.loc 1 297 11 is_stmt 1 view .LVU447
 1511 00d4 0146     		mov	r1, r0
 1512              	.LVL184:
 297:Middlewares/ST/STM32_USB_Device_Library/Core/Src/usbd_ctlreq.c ****           USBD_LL_StallEP(pdev, 0x80U);
 1513              		.loc 1 297 11 is_stmt 0 view .LVU448
 1514 00d6 2046     		mov	r0, r4
 1515 00d8 FFF7FEFF 		bl	USBD_LL_StallEP
 1516              	.LVL185:
 298:Middlewares/ST/STM32_USB_Device_Library/Core/Src/usbd_ctlreq.c ****         }
 1517              		.loc 1 298 11 is_stmt 1 view .LVU449
 1518 00dc 8021     		movs	r1, #128
 1519 00de 2046     		mov	r0, r4
 1520 00e0 FFF7FEFF 		bl	USBD_LL_StallEP
 1521              	.LVL186:
 394:Middlewares/ST/STM32_USB_Device_Library/Core/Src/usbd_ctlreq.c **** }
 1522              		.loc 1 394 10 is_stmt 0 view .LVU450
 1523 00e4 0020     		movs	r0, #0
 298:Middlewares/ST/STM32_USB_Device_Library/Core/Src/usbd_ctlreq.c ****         }
 1524              		.loc 1 298 11 view .LVU451
 1525 00e6 A2E7     		b	.L113
 1526              	.LVL187:
 1527              	.L124:
 307:Middlewares/ST/STM32_USB_Device_Library/Core/Src/usbd_ctlreq.c ****         {
 1528              		.loc 1 307 9 is_stmt 1 view .LVU452
 307:Middlewares/ST/STM32_USB_Device_Library/Core/Src/usbd_ctlreq.c ****         {
 1529              		.loc 1 307 16 is_stmt 0 view .LVU453
 1530 00e8 4B88     		ldrh	r3, [r1, #2]
 307:Middlewares/ST/STM32_USB_Device_Library/Core/Src/usbd_ctlreq.c ****         {
 1531              		.loc 1 307 12 view .LVU454
 1532 00ea 002B     		cmp	r3, #0
 1533 00ec 40F08C80 		bne	.L142
 309:Middlewares/ST/STM32_USB_Device_Library/Core/Src/usbd_ctlreq.c ****           {
 1534              		.loc 1 309 11 is_stmt 1 view .LVU455
 309:Middlewares/ST/STM32_USB_Device_Library/Core/Src/usbd_ctlreq.c ****           {
 1535              		.loc 1 309 14 is_stmt 0 view .LVU456
 1536 00f0 10F07F0F 		tst	r0, #127
 1537 00f4 04D1     		bne	.L153
 1538              	.LVL188:
 1539              	.L127:
 313:Middlewares/ST/STM32_USB_Device_Library/Core/Src/usbd_ctlreq.c ****         }
 1540              		.loc 1 313 11 is_stmt 1 view .LVU457
 1541 00f6 2046     		mov	r0, r4
ARM GAS  /tmp/ccT1bBgQ.s 			page 50


 1542 00f8 FFF7FEFF 		bl	USBD_CtlSendStatus
 1543              	.LVL189:
 394:Middlewares/ST/STM32_USB_Device_Library/Core/Src/usbd_ctlreq.c **** }
 1544              		.loc 1 394 10 is_stmt 0 view .LVU458
 1545 00fc 0020     		movs	r0, #0
 1546 00fe 96E7     		b	.L113
 1547              	.LVL190:
 1548              	.L153:
 311:Middlewares/ST/STM32_USB_Device_Library/Core/Src/usbd_ctlreq.c ****           }
 1549              		.loc 1 311 13 is_stmt 1 view .LVU459
 1550 0100 0146     		mov	r1, r0
 1551              	.LVL191:
 311:Middlewares/ST/STM32_USB_Device_Library/Core/Src/usbd_ctlreq.c ****           }
 1552              		.loc 1 311 13 is_stmt 0 view .LVU460
 1553 0102 2046     		mov	r0, r4
 1554 0104 FFF7FEFF 		bl	USBD_LL_ClearStallEP
 1555              	.LVL192:
 311:Middlewares/ST/STM32_USB_Device_Library/Core/Src/usbd_ctlreq.c ****           }
 1556              		.loc 1 311 13 view .LVU461
 1557 0108 F5E7     		b	.L127
 1558              	.LVL193:
 1559              	.L116:
 324:Middlewares/ST/STM32_USB_Device_Library/Core/Src/usbd_ctlreq.c ****       {
 1560              		.loc 1 324 7 is_stmt 1 discriminator 1 view .LVU462
 324:Middlewares/ST/STM32_USB_Device_Library/Core/Src/usbd_ctlreq.c ****       {
 1561              		.loc 1 324 19 is_stmt 0 discriminator 1 view .LVU463
 1562 010a 94F87432 		ldrb	r3, [r4, #628]	@ zero_extendqisi2
 1563 010e 022B     		cmp	r3, #2
 1564 0110 06D0     		beq	.L128
 1565 0112 032B     		cmp	r3, #3
 1566 0114 29D0     		beq	.L129
 378:Middlewares/ST/STM32_USB_Device_Library/Core/Src/usbd_ctlreq.c ****         break;
 1567              		.loc 1 378 9 is_stmt 1 view .LVU464
 1568 0116 2046     		mov	r0, r4
 1569 0118 FFF7FEFF 		bl	USBD_CtlError
 1570              	.LVL194:
 379:Middlewares/ST/STM32_USB_Device_Library/Core/Src/usbd_ctlreq.c ****       }
 1571              		.loc 1 379 9 view .LVU465
 394:Middlewares/ST/STM32_USB_Device_Library/Core/Src/usbd_ctlreq.c **** }
 1572              		.loc 1 394 10 is_stmt 0 view .LVU466
 1573 011c 0020     		movs	r0, #0
 379:Middlewares/ST/STM32_USB_Device_Library/Core/Src/usbd_ctlreq.c ****       }
 1574              		.loc 1 379 9 view .LVU467
 1575 011e 86E7     		b	.L113
 1576              	.LVL195:
 1577              	.L128:
 327:Middlewares/ST/STM32_USB_Device_Library/Core/Src/usbd_ctlreq.c ****         {
 1578              		.loc 1 327 9 is_stmt 1 view .LVU468
 327:Middlewares/ST/STM32_USB_Device_Library/Core/Src/usbd_ctlreq.c ****         {
 1579              		.loc 1 327 12 is_stmt 0 view .LVU469
 1580 0120 08B1     		cbz	r0, .L131
 327:Middlewares/ST/STM32_USB_Device_Library/Core/Src/usbd_ctlreq.c ****         {
 1581              		.loc 1 327 32 discriminator 1 view .LVU470
 1582 0122 8028     		cmp	r0, #128
 1583 0124 12D1     		bne	.L154
 1584              	.L131:
 332:Middlewares/ST/STM32_USB_Device_Library/Core/Src/usbd_ctlreq.c ****           &pdev->ep_out[ep_addr & 0x7FU];
ARM GAS  /tmp/ccT1bBgQ.s 			page 51


 1585              		.loc 1 332 9 is_stmt 1 view .LVU471
 332:Middlewares/ST/STM32_USB_Device_Library/Core/Src/usbd_ctlreq.c ****           &pdev->ep_out[ep_addr & 0x7FU];
 1586              		.loc 1 332 75 is_stmt 0 view .LVU472
 1587 0126 12F0800F 		tst	r2, #128
 1588 012a 14D1     		bne	.L155
 333:Middlewares/ST/STM32_USB_Device_Library/Core/Src/usbd_ctlreq.c **** 
 1589              		.loc 1 333 33 discriminator 2 view .LVU473
 1590 012c 00F07F00 		and	r0, r0, #127
 332:Middlewares/ST/STM32_USB_Device_Library/Core/Src/usbd_ctlreq.c ****           &pdev->ep_out[ep_addr & 0x7FU];
 1591              		.loc 1 332 75 discriminator 2 view .LVU474
 1592 0130 00EB8000 		add	r0, r0, r0, lsl #2
 1593 0134 8300     		lsls	r3, r0, #2
 1594 0136 03F5A073 		add	r3, r3, #320
 1595 013a E118     		adds	r1, r4, r3
 1596              	.LVL196:
 1597              	.L133:
 335:Middlewares/ST/STM32_USB_Device_Library/Core/Src/usbd_ctlreq.c **** 
 1598              		.loc 1 335 11 is_stmt 1 discriminator 4 view .LVU475
 335:Middlewares/ST/STM32_USB_Device_Library/Core/Src/usbd_ctlreq.c **** 
 1599              		.loc 1 335 23 is_stmt 0 discriminator 4 view .LVU476
 1600 013c 0025     		movs	r5, #0
 1601 013e 0D60     		str	r5, [r1]
 337:Middlewares/ST/STM32_USB_Device_Library/Core/Src/usbd_ctlreq.c ****           break;
 1602              		.loc 1 337 11 is_stmt 1 discriminator 4 view .LVU477
 1603 0140 0222     		movs	r2, #2
 1604              	.LVL197:
 337:Middlewares/ST/STM32_USB_Device_Library/Core/Src/usbd_ctlreq.c ****           break;
 1605              		.loc 1 337 11 is_stmt 0 discriminator 4 view .LVU478
 1606 0142 2046     		mov	r0, r4
 1607 0144 FFF7FEFF 		bl	USBD_CtlSendData
 1608              	.LVL198:
 338:Middlewares/ST/STM32_USB_Device_Library/Core/Src/usbd_ctlreq.c **** 
 1609              		.loc 1 338 11 is_stmt 1 discriminator 4 view .LVU479
 394:Middlewares/ST/STM32_USB_Device_Library/Core/Src/usbd_ctlreq.c **** }
 1610              		.loc 1 394 10 is_stmt 0 discriminator 4 view .LVU480
 1611 0148 2846     		mov	r0, r5
 338:Middlewares/ST/STM32_USB_Device_Library/Core/Src/usbd_ctlreq.c **** 
 1612              		.loc 1 338 11 discriminator 4 view .LVU481
 1613 014a 70E7     		b	.L113
 1614              	.LVL199:
 1615              	.L154:
 329:Middlewares/ST/STM32_USB_Device_Library/Core/Src/usbd_ctlreq.c ****           break;
 1616              		.loc 1 329 11 is_stmt 1 view .LVU482
 1617 014c 2046     		mov	r0, r4
 1618 014e FFF7FEFF 		bl	USBD_CtlError
 1619              	.LVL200:
 330:Middlewares/ST/STM32_USB_Device_Library/Core/Src/usbd_ctlreq.c ****         }
 1620              		.loc 1 330 11 view .LVU483
 394:Middlewares/ST/STM32_USB_Device_Library/Core/Src/usbd_ctlreq.c **** }
 1621              		.loc 1 394 10 is_stmt 0 view .LVU484
 1622 0152 0020     		movs	r0, #0
 330:Middlewares/ST/STM32_USB_Device_Library/Core/Src/usbd_ctlreq.c ****         }
 1623              		.loc 1 330 11 view .LVU485
 1624 0154 6BE7     		b	.L113
 1625              	.LVL201:
 1626              	.L155:
 332:Middlewares/ST/STM32_USB_Device_Library/Core/Src/usbd_ctlreq.c ****           &pdev->ep_out[ep_addr & 0x7FU];
ARM GAS  /tmp/ccT1bBgQ.s 			page 52


 1627              		.loc 1 332 67 discriminator 1 view .LVU486
 1628 0156 00F07F00 		and	r0, r0, #127
 332:Middlewares/ST/STM32_USB_Device_Library/Core/Src/usbd_ctlreq.c ****           &pdev->ep_out[ep_addr & 0x7FU];
 1629              		.loc 1 332 75 discriminator 1 view .LVU487
 1630 015a 00EB8000 		add	r0, r0, r0, lsl #2
 1631 015e 8300     		lsls	r3, r0, #2
 1632 0160 03F11001 		add	r1, r3, #16
 1633              	.LVL202:
 332:Middlewares/ST/STM32_USB_Device_Library/Core/Src/usbd_ctlreq.c ****           &pdev->ep_out[ep_addr & 0x7FU];
 1634              		.loc 1 332 75 discriminator 1 view .LVU488
 1635 0164 2144     		add	r1, r1, r4
 1636 0166 0431     		adds	r1, r1, #4
 1637 0168 E8E7     		b	.L133
 1638              	.LVL203:
 1639              	.L129:
 341:Middlewares/ST/STM32_USB_Device_Library/Core/Src/usbd_ctlreq.c ****         {
 1640              		.loc 1 341 9 is_stmt 1 view .LVU489
 341:Middlewares/ST/STM32_USB_Device_Library/Core/Src/usbd_ctlreq.c ****         {
 1641              		.loc 1 341 30 is_stmt 0 view .LVU490
 1642 016a 52B2     		sxtb	r2, r2
 341:Middlewares/ST/STM32_USB_Device_Library/Core/Src/usbd_ctlreq.c ****         {
 1643              		.loc 1 341 11 view .LVU491
 1644 016c 002A     		cmp	r2, #0
 1645 016e 1EDB     		blt	.L156
 351:Middlewares/ST/STM32_USB_Device_Library/Core/Src/usbd_ctlreq.c ****           {
 1646              		.loc 1 351 11 is_stmt 1 view .LVU492
 351:Middlewares/ST/STM32_USB_Device_Library/Core/Src/usbd_ctlreq.c ****           {
 1647              		.loc 1 351 36 is_stmt 0 view .LVU493
 1648 0170 00F00F03 		and	r3, r0, #15
 351:Middlewares/ST/STM32_USB_Device_Library/Core/Src/usbd_ctlreq.c ****           {
 1649              		.loc 1 351 43 view .LVU494
 1650 0174 03EB8303 		add	r3, r3, r3, lsl #2
 1651 0178 9D00     		lsls	r5, r3, #2
 1652 017a 2544     		add	r5, r5, r4
 1653 017c D5F84431 		ldr	r3, [r5, #324]
 351:Middlewares/ST/STM32_USB_Device_Library/Core/Src/usbd_ctlreq.c ****           {
 1654              		.loc 1 351 14 view .LVU495
 1655 0180 1BB3     		cbz	r3, .L157
 1656              	.L135:
 358:Middlewares/ST/STM32_USB_Device_Library/Core/Src/usbd_ctlreq.c ****           &pdev->ep_out[ep_addr & 0x7FU];
 1657              		.loc 1 358 9 is_stmt 1 view .LVU496
 358:Middlewares/ST/STM32_USB_Device_Library/Core/Src/usbd_ctlreq.c ****           &pdev->ep_out[ep_addr & 0x7FU];
 1658              		.loc 1 358 75 is_stmt 0 view .LVU497
 1659 0182 002A     		cmp	r2, #0
 1660 0184 26DB     		blt	.L158
 359:Middlewares/ST/STM32_USB_Device_Library/Core/Src/usbd_ctlreq.c **** 
 1661              		.loc 1 359 33 discriminator 2 view .LVU498
 1662 0186 00F07F02 		and	r2, r0, #127
 1663              	.LVL204:
 358:Middlewares/ST/STM32_USB_Device_Library/Core/Src/usbd_ctlreq.c ****           &pdev->ep_out[ep_addr & 0x7FU];
 1664              		.loc 1 358 75 discriminator 2 view .LVU499
 1665 018a 02EB8202 		add	r2, r2, r2, lsl #2
 1666 018e 9300     		lsls	r3, r2, #2
 1667 0190 03F5A073 		add	r3, r3, #320
 1668 0194 E518     		adds	r5, r4, r3
 1669              	.L137:
 1670              	.LVL205:
ARM GAS  /tmp/ccT1bBgQ.s 			page 53


 361:Middlewares/ST/STM32_USB_Device_Library/Core/Src/usbd_ctlreq.c ****           {
 1671              		.loc 1 361 11 is_stmt 1 discriminator 4 view .LVU500
 361:Middlewares/ST/STM32_USB_Device_Library/Core/Src/usbd_ctlreq.c ****           {
 1672              		.loc 1 361 14 is_stmt 0 discriminator 4 view .LVU501
 1673 0196 08B1     		cbz	r0, .L138
 361:Middlewares/ST/STM32_USB_Device_Library/Core/Src/usbd_ctlreq.c ****           {
 1674              		.loc 1 361 34 discriminator 1 view .LVU502
 1675 0198 8028     		cmp	r0, #128
 1676 019a 25D1     		bne	.L139
 1677              	.L138:
 363:Middlewares/ST/STM32_USB_Device_Library/Core/Src/usbd_ctlreq.c ****           }
 1678              		.loc 1 363 13 is_stmt 1 view .LVU503
 363:Middlewares/ST/STM32_USB_Device_Library/Core/Src/usbd_ctlreq.c ****           }
 1679              		.loc 1 363 25 is_stmt 0 view .LVU504
 1680 019c 0023     		movs	r3, #0
 1681 019e 2B60     		str	r3, [r5]
 1682              	.LVL206:
 1683              	.L140:
 374:Middlewares/ST/STM32_USB_Device_Library/Core/Src/usbd_ctlreq.c ****           break;
 1684              		.loc 1 374 11 is_stmt 1 view .LVU505
 1685 01a0 0222     		movs	r2, #2
 1686 01a2 2946     		mov	r1, r5
 1687 01a4 2046     		mov	r0, r4
 1688 01a6 FFF7FEFF 		bl	USBD_CtlSendData
 1689              	.LVL207:
 375:Middlewares/ST/STM32_USB_Device_Library/Core/Src/usbd_ctlreq.c **** 
 1690              		.loc 1 375 11 view .LVU506
 394:Middlewares/ST/STM32_USB_Device_Library/Core/Src/usbd_ctlreq.c **** }
 1691              		.loc 1 394 10 is_stmt 0 view .LVU507
 1692 01aa 0020     		movs	r0, #0
 375:Middlewares/ST/STM32_USB_Device_Library/Core/Src/usbd_ctlreq.c **** 
 1693              		.loc 1 375 11 view .LVU508
 1694 01ac 3FE7     		b	.L113
 1695              	.LVL208:
 1696              	.L156:
 343:Middlewares/ST/STM32_USB_Device_Library/Core/Src/usbd_ctlreq.c ****           {
 1697              		.loc 1 343 11 is_stmt 1 view .LVU509
 343:Middlewares/ST/STM32_USB_Device_Library/Core/Src/usbd_ctlreq.c ****           {
 1698              		.loc 1 343 35 is_stmt 0 view .LVU510
 1699 01ae 00F00F03 		and	r3, r0, #15
 343:Middlewares/ST/STM32_USB_Device_Library/Core/Src/usbd_ctlreq.c ****           {
 1700              		.loc 1 343 42 view .LVU511
 1701 01b2 03EB8303 		add	r3, r3, r3, lsl #2
 1702 01b6 9D00     		lsls	r5, r3, #2
 1703 01b8 2544     		add	r5, r5, r4
 1704 01ba AB69     		ldr	r3, [r5, #24]
 343:Middlewares/ST/STM32_USB_Device_Library/Core/Src/usbd_ctlreq.c ****           {
 1705              		.loc 1 343 14 view .LVU512
 1706 01bc 002B     		cmp	r3, #0
 1707 01be E0D1     		bne	.L135
 345:Middlewares/ST/STM32_USB_Device_Library/Core/Src/usbd_ctlreq.c ****             break;
 1708              		.loc 1 345 13 is_stmt 1 view .LVU513
 1709 01c0 2046     		mov	r0, r4
 1710 01c2 FFF7FEFF 		bl	USBD_CtlError
 1711              	.LVL209:
 346:Middlewares/ST/STM32_USB_Device_Library/Core/Src/usbd_ctlreq.c ****           }
 1712              		.loc 1 346 13 view .LVU514
ARM GAS  /tmp/ccT1bBgQ.s 			page 54


 394:Middlewares/ST/STM32_USB_Device_Library/Core/Src/usbd_ctlreq.c **** }
 1713              		.loc 1 394 10 is_stmt 0 view .LVU515
 1714 01c6 0020     		movs	r0, #0
 346:Middlewares/ST/STM32_USB_Device_Library/Core/Src/usbd_ctlreq.c ****           }
 1715              		.loc 1 346 13 view .LVU516
 1716 01c8 31E7     		b	.L113
 1717              	.LVL210:
 1718              	.L157:
 353:Middlewares/ST/STM32_USB_Device_Library/Core/Src/usbd_ctlreq.c ****             break;
 1719              		.loc 1 353 13 is_stmt 1 view .LVU517
 1720 01ca 2046     		mov	r0, r4
 1721 01cc FFF7FEFF 		bl	USBD_CtlError
 1722              	.LVL211:
 354:Middlewares/ST/STM32_USB_Device_Library/Core/Src/usbd_ctlreq.c ****           }
 1723              		.loc 1 354 13 view .LVU518
 394:Middlewares/ST/STM32_USB_Device_Library/Core/Src/usbd_ctlreq.c **** }
 1724              		.loc 1 394 10 is_stmt 0 view .LVU519
 1725 01d0 0020     		movs	r0, #0
 354:Middlewares/ST/STM32_USB_Device_Library/Core/Src/usbd_ctlreq.c ****           }
 1726              		.loc 1 354 13 view .LVU520
 1727 01d2 2CE7     		b	.L113
 1728              	.LVL212:
 1729              	.L158:
 358:Middlewares/ST/STM32_USB_Device_Library/Core/Src/usbd_ctlreq.c ****           &pdev->ep_out[ep_addr & 0x7FU];
 1730              		.loc 1 358 67 discriminator 1 view .LVU521
 1731 01d4 00F07F02 		and	r2, r0, #127
 1732              	.LVL213:
 358:Middlewares/ST/STM32_USB_Device_Library/Core/Src/usbd_ctlreq.c ****           &pdev->ep_out[ep_addr & 0x7FU];
 1733              		.loc 1 358 75 discriminator 1 view .LVU522
 1734 01d8 02EB8202 		add	r2, r2, r2, lsl #2
 1735 01dc 9300     		lsls	r3, r2, #2
 1736 01de 03F11005 		add	r5, r3, #16
 1737 01e2 2544     		add	r5, r5, r4
 1738 01e4 0435     		adds	r5, r5, #4
 1739 01e6 D6E7     		b	.L137
 1740              	.LVL214:
 1741              	.L139:
 365:Middlewares/ST/STM32_USB_Device_Library/Core/Src/usbd_ctlreq.c ****           {
 1742              		.loc 1 365 16 is_stmt 1 view .LVU523
 365:Middlewares/ST/STM32_USB_Device_Library/Core/Src/usbd_ctlreq.c ****           {
 1743              		.loc 1 365 19 is_stmt 0 view .LVU524
 1744 01e8 0146     		mov	r1, r0
 1745              	.LVL215:
 365:Middlewares/ST/STM32_USB_Device_Library/Core/Src/usbd_ctlreq.c ****           {
 1746              		.loc 1 365 19 view .LVU525
 1747 01ea 2046     		mov	r0, r4
 1748              	.LVL216:
 365:Middlewares/ST/STM32_USB_Device_Library/Core/Src/usbd_ctlreq.c ****           {
 1749              		.loc 1 365 19 view .LVU526
 1750 01ec FFF7FEFF 		bl	USBD_LL_IsStallEP
 1751              	.LVL217:
 365:Middlewares/ST/STM32_USB_Device_Library/Core/Src/usbd_ctlreq.c ****           {
 1752              		.loc 1 365 18 view .LVU527
 1753 01f0 10B1     		cbz	r0, .L141
 367:Middlewares/ST/STM32_USB_Device_Library/Core/Src/usbd_ctlreq.c ****           }
 1754              		.loc 1 367 13 is_stmt 1 view .LVU528
 367:Middlewares/ST/STM32_USB_Device_Library/Core/Src/usbd_ctlreq.c ****           }
ARM GAS  /tmp/ccT1bBgQ.s 			page 55


 1755              		.loc 1 367 25 is_stmt 0 view .LVU529
 1756 01f2 0123     		movs	r3, #1
 1757 01f4 2B60     		str	r3, [r5]
 1758 01f6 D3E7     		b	.L140
 1759              	.L141:
 371:Middlewares/ST/STM32_USB_Device_Library/Core/Src/usbd_ctlreq.c ****           }
 1760              		.loc 1 371 13 is_stmt 1 view .LVU530
 371:Middlewares/ST/STM32_USB_Device_Library/Core/Src/usbd_ctlreq.c ****           }
 1761              		.loc 1 371 25 is_stmt 0 view .LVU531
 1762 01f8 0023     		movs	r3, #0
 1763 01fa 2B60     		str	r3, [r5]
 1764 01fc D0E7     		b	.L140
 1765              	.LVL218:
 1766              	.L117:
 384:Middlewares/ST/STM32_USB_Device_Library/Core/Src/usbd_ctlreq.c ****       break;
 1767              		.loc 1 384 7 is_stmt 1 view .LVU532
 1768 01fe 2046     		mov	r0, r4
 1769 0200 FFF7FEFF 		bl	USBD_CtlError
 1770              	.LVL219:
 385:Middlewares/ST/STM32_USB_Device_Library/Core/Src/usbd_ctlreq.c ****     }
 1771              		.loc 1 385 7 view .LVU533
 394:Middlewares/ST/STM32_USB_Device_Library/Core/Src/usbd_ctlreq.c **** }
 1772              		.loc 1 394 10 is_stmt 0 view .LVU534
 1773 0204 0020     		movs	r0, #0
 385:Middlewares/ST/STM32_USB_Device_Library/Core/Src/usbd_ctlreq.c ****     }
 1774              		.loc 1 385 7 view .LVU535
 1775 0206 12E7     		b	.L113
 1776              	.LVL220:
 1777              	.L142:
 394:Middlewares/ST/STM32_USB_Device_Library/Core/Src/usbd_ctlreq.c **** }
 1778              		.loc 1 394 10 view .LVU536
 1779 0208 0020     		movs	r0, #0
 1780 020a 10E7     		b	.L113
 1781              		.cfi_endproc
 1782              	.LFE135:
 1784              		.section	.text.USBD_GetString,"ax",%progbits
 1785              		.align	1
 1786              		.global	USBD_GetString
 1787              		.syntax unified
 1788              		.thumb
 1789              		.thumb_func
 1790              		.fpu fpv4-sp-d16
 1792              	USBD_GetString:
 1793              	.LVL221:
 1794              	.LFB145:
 799:Middlewares/ST/STM32_USB_Device_Library/Core/Src/usbd_ctlreq.c ****   uint8_t idx = 0U;
 1795              		.loc 1 799 1 is_stmt 1 view -0
 1796              		.cfi_startproc
 1797              		@ args = 0, pretend = 0, frame = 0
 1798              		@ frame_needed = 0, uses_anonymous_args = 0
 800:Middlewares/ST/STM32_USB_Device_Library/Core/Src/usbd_ctlreq.c **** 
 1799              		.loc 1 800 3 view .LVU538
 802:Middlewares/ST/STM32_USB_Device_Library/Core/Src/usbd_ctlreq.c ****   {
 1800              		.loc 1 802 3 view .LVU539
 802:Middlewares/ST/STM32_USB_Device_Library/Core/Src/usbd_ctlreq.c ****   {
 1801              		.loc 1 802 6 is_stmt 0 view .LVU540
 1802 0000 C0B1     		cbz	r0, .L164
ARM GAS  /tmp/ccT1bBgQ.s 			page 56


 799:Middlewares/ST/STM32_USB_Device_Library/Core/Src/usbd_ctlreq.c ****   uint8_t idx = 0U;
 1803              		.loc 1 799 1 view .LVU541
 1804 0002 70B5     		push	{r4, r5, r6, lr}
 1805              	.LCFI14:
 1806              		.cfi_def_cfa_offset 16
 1807              		.cfi_offset 4, -16
 1808              		.cfi_offset 5, -12
 1809              		.cfi_offset 6, -8
 1810              		.cfi_offset 14, -4
 1811 0004 0D46     		mov	r5, r1
 1812 0006 1646     		mov	r6, r2
 1813 0008 0446     		mov	r4, r0
 804:Middlewares/ST/STM32_USB_Device_Library/Core/Src/usbd_ctlreq.c ****     unicode[idx++] = *(uint8_t *)(void *)len;
 1814              		.loc 1 804 5 is_stmt 1 view .LVU542
 804:Middlewares/ST/STM32_USB_Device_Library/Core/Src/usbd_ctlreq.c ****     unicode[idx++] = *(uint8_t *)(void *)len;
 1815              		.loc 1 804 22 is_stmt 0 view .LVU543
 1816 000a FFF7FEFF 		bl	USBD_GetLen
 1817              	.LVL222:
 804:Middlewares/ST/STM32_USB_Device_Library/Core/Src/usbd_ctlreq.c ****     unicode[idx++] = *(uint8_t *)(void *)len;
 1818              		.loc 1 804 10 view .LVU544
 1819 000e 0130     		adds	r0, r0, #1
 1820 0010 4000     		lsls	r0, r0, #1
 1821 0012 3080     		strh	r0, [r6]	@ movhi
 805:Middlewares/ST/STM32_USB_Device_Library/Core/Src/usbd_ctlreq.c ****     unicode[idx++] = USB_DESC_TYPE_STRING;
 1822              		.loc 1 805 5 is_stmt 1 view .LVU545
 1823              	.LVL223:
 805:Middlewares/ST/STM32_USB_Device_Library/Core/Src/usbd_ctlreq.c ****     unicode[idx++] = USB_DESC_TYPE_STRING;
 1824              		.loc 1 805 20 is_stmt 0 view .LVU546
 1825 0014 2870     		strb	r0, [r5]
 806:Middlewares/ST/STM32_USB_Device_Library/Core/Src/usbd_ctlreq.c **** 
 1826              		.loc 1 806 5 is_stmt 1 view .LVU547
 1827              	.LVL224:
 806:Middlewares/ST/STM32_USB_Device_Library/Core/Src/usbd_ctlreq.c **** 
 1828              		.loc 1 806 20 is_stmt 0 view .LVU548
 1829 0016 0323     		movs	r3, #3
 1830 0018 6B70     		strb	r3, [r5, #1]
 808:Middlewares/ST/STM32_USB_Device_Library/Core/Src/usbd_ctlreq.c ****     {
 1831              		.loc 1 808 5 is_stmt 1 view .LVU549
 806:Middlewares/ST/STM32_USB_Device_Library/Core/Src/usbd_ctlreq.c **** 
 1832              		.loc 1 806 16 is_stmt 0 view .LVU550
 1833 001a 0223     		movs	r3, #2
 1834              	.LVL225:
 1835              	.L161:
 808:Middlewares/ST/STM32_USB_Device_Library/Core/Src/usbd_ctlreq.c ****     {
 1836              		.loc 1 808 12 view .LVU551
 1837 001c 2178     		ldrb	r1, [r4]	@ zero_extendqisi2
 808:Middlewares/ST/STM32_USB_Device_Library/Core/Src/usbd_ctlreq.c ****     {
 1838              		.loc 1 808 11 view .LVU552
 1839 001e 41B1     		cbz	r1, .L167
 810:Middlewares/ST/STM32_USB_Device_Library/Core/Src/usbd_ctlreq.c ****       unicode[idx++] =  0U;
 1840              		.loc 1 810 7 is_stmt 1 view .LVU553
 810:Middlewares/ST/STM32_USB_Device_Library/Core/Src/usbd_ctlreq.c ****       unicode[idx++] =  0U;
 1841              		.loc 1 810 29 is_stmt 0 view .LVU554
 1842 0020 0134     		adds	r4, r4, #1
 1843              	.LVL226:
 810:Middlewares/ST/STM32_USB_Device_Library/Core/Src/usbd_ctlreq.c ****       unicode[idx++] =  0U;
 1844              		.loc 1 810 18 view .LVU555
ARM GAS  /tmp/ccT1bBgQ.s 			page 57


 1845 0022 5A1C     		adds	r2, r3, #1
 1846 0024 D2B2     		uxtb	r2, r2
 1847              	.LVL227:
 810:Middlewares/ST/STM32_USB_Device_Library/Core/Src/usbd_ctlreq.c ****       unicode[idx++] =  0U;
 1848              		.loc 1 810 22 view .LVU556
 1849 0026 E954     		strb	r1, [r5, r3]
 811:Middlewares/ST/STM32_USB_Device_Library/Core/Src/usbd_ctlreq.c ****     }
 1850              		.loc 1 811 7 is_stmt 1 view .LVU557
 811:Middlewares/ST/STM32_USB_Device_Library/Core/Src/usbd_ctlreq.c ****     }
 1851              		.loc 1 811 18 is_stmt 0 view .LVU558
 1852 0028 0233     		adds	r3, r3, #2
 1853 002a DBB2     		uxtb	r3, r3
 1854              	.LVL228:
 811:Middlewares/ST/STM32_USB_Device_Library/Core/Src/usbd_ctlreq.c ****     }
 1855              		.loc 1 811 22 view .LVU559
 1856 002c 0021     		movs	r1, #0
 1857 002e A954     		strb	r1, [r5, r2]
 1858 0030 F4E7     		b	.L161
 1859              	.L167:
 814:Middlewares/ST/STM32_USB_Device_Library/Core/Src/usbd_ctlreq.c **** 
 1860              		.loc 1 814 1 view .LVU560
 1861 0032 70BD     		pop	{r4, r5, r6, pc}
 1862              	.LVL229:
 1863              	.L164:
 1864              	.LCFI15:
 1865              		.cfi_def_cfa_offset 0
 1866              		.cfi_restore 4
 1867              		.cfi_restore 5
 1868              		.cfi_restore 6
 1869              		.cfi_restore 14
 814:Middlewares/ST/STM32_USB_Device_Library/Core/Src/usbd_ctlreq.c **** 
 1870              		.loc 1 814 1 view .LVU561
 1871 0034 7047     		bx	lr
 1872              		.cfi_endproc
 1873              	.LFE145:
 1875              		.comm	htim1,64,4
 1876              		.comm	hdma_adc1,96,4
 1877              		.comm	hadc1,72,4
 1878              		.section	.bss.cfgidx.10482,"aw",%nobits
 1879              		.set	.LANCHOR0,. + 0
 1882              	cfgidx.10482:
 1883 0000 00       		.space	1
 1884              		.text
 1885              	.Letext0:
 1886              		.file 2 "/opt/gcc-arm-none-eabi-8-2018-q4-major/arm-none-eabi/include/machine/_default_types.h"
 1887              		.file 3 "/opt/gcc-arm-none-eabi-8-2018-q4-major/arm-none-eabi/include/sys/lock.h"
 1888              		.file 4 "/opt/gcc-arm-none-eabi-8-2018-q4-major/arm-none-eabi/include/sys/_types.h"
 1889              		.file 5 "/opt/gcc-arm-none-eabi-8-2018-q4-major/lib/gcc/arm-none-eabi/8.2.1/include/stddef.h"
 1890              		.file 6 "/opt/gcc-arm-none-eabi-8-2018-q4-major/arm-none-eabi/include/sys/reent.h"
 1891              		.file 7 "/opt/gcc-arm-none-eabi-8-2018-q4-major/arm-none-eabi/include/sys/_stdint.h"
 1892              		.file 8 "/opt/gcc-arm-none-eabi-8-2018-q4-major/arm-none-eabi/include/stdlib.h"
 1893              		.file 9 "Drivers/CMSIS/Include/core_cm4.h"
 1894              		.file 10 "Drivers/CMSIS/Device/ST/STM32F4xx/Include/system_stm32f4xx.h"
 1895              		.file 11 "Drivers/CMSIS/Device/ST/STM32F4xx/Include/stm32f407xx.h"
 1896              		.file 12 "Drivers/CMSIS/Device/ST/STM32F4xx/Include/stm32f4xx.h"
 1897              		.file 13 "Drivers/STM32F4xx_HAL_Driver/Inc/stm32f4xx_hal_def.h"
 1898              		.file 14 "Drivers/STM32F4xx_HAL_Driver/Inc/stm32f4xx_hal_dma.h"
ARM GAS  /tmp/ccT1bBgQ.s 			page 58


 1899              		.file 15 "Drivers/STM32F4xx_HAL_Driver/Inc/stm32f4xx_hal_adc.h"
 1900              		.file 16 "Drivers/STM32F4xx_HAL_Driver/Inc/stm32f4xx_hal_tim.h"
 1901              		.file 17 "Inc/main.h"
 1902              		.file 18 "Middlewares/ST/STM32_USB_Device_Library/Core/Inc/usbd_def.h"
 1903              		.file 19 "Middlewares/ST/STM32_USB_Device_Library/Core/Inc/usbd_core.h"
 1904              		.file 20 "Middlewares/ST/STM32_USB_Device_Library/Core/Inc/usbd_ioreq.h"
ARM GAS  /tmp/ccT1bBgQ.s 			page 59

